
IntegratedTest.elf:     file format elf32-littlenios2
IntegratedTest.elf
architecture: nios2, flags 0x00000112:
EXEC_P, HAS_SYMS, D_PAGED
start address 0x00800198

Program Header:
    LOAD off    0x00001020 vaddr 0x01104020 paddr 0x00800000 align 2**12
         filesz 0x00000198 memsz 0x00000198 flags r-x
    LOAD off    0x00002198 vaddr 0x00800198 paddr 0x00800198 align 2**12
         filesz 0x00013420 memsz 0x00013420 flags r-x
    LOAD off    0x000155b8 vaddr 0x008135b8 paddr 0x00815390 align 2**12
         filesz 0x00001dd8 memsz 0x00001dd8 flags rw-
    LOAD off    0x00018168 vaddr 0x00817168 paddr 0x00817168 align 2**12
         filesz 0x00000000 memsz 0x00000340 flags rw-
    LOAD off    0x00018000 vaddr 0x01104000 paddr 0x01104000 align 2**12
         filesz 0x00000020 memsz 0x00000020 flags r-x

Sections:
Idx Name          Size      VMA       LMA       File off  Algn
  0 .entry        00000020  01104000  01104000  00018000  2**5
                  CONTENTS, ALLOC, LOAD, READONLY, CODE
  1 .exceptions   00000198  01104020  00800000  00001020  2**2
                  CONTENTS, ALLOC, LOAD, READONLY, CODE
  2 .text         000125f8  00800198  00800198  00002198  2**2
                  CONTENTS, ALLOC, LOAD, READONLY, CODE
  3 .rodata       00000e28  00812790  00812790  00014790  2**2
                  CONTENTS, ALLOC, LOAD, READONLY, DATA
  4 .rwdata       00001dd8  008135b8  00815390  000155b8  2**2
                  CONTENTS, ALLOC, LOAD, DATA, SMALL_DATA
  5 .bss          00000340  00817168  00817168  00018168  2**2
                  ALLOC, SMALL_DATA
  6 .comment      00000026  00000000  00000000  00018020  2**0
                  CONTENTS, READONLY
  7 .debug_aranges 00000e78  00000000  00000000  00018048  2**3
                  CONTENTS, READONLY, DEBUGGING
  8 .debug_pubnames 000022eb  00000000  00000000  00018ec0  2**0
                  CONTENTS, READONLY, DEBUGGING
  9 .debug_info   0002df69  00000000  00000000  0001b1ab  2**0
                  CONTENTS, READONLY, DEBUGGING
 10 .debug_abbrev 00008ea1  00000000  00000000  00049114  2**0
                  CONTENTS, READONLY, DEBUGGING
 11 .debug_line   00018878  00000000  00000000  00051fb5  2**0
                  CONTENTS, READONLY, DEBUGGING
 12 .debug_frame  00002694  00000000  00000000  0006a830  2**2
                  CONTENTS, READONLY, DEBUGGING
 13 .debug_str    0000262f  00000000  00000000  0006cec4  2**0
                  CONTENTS, READONLY, DEBUGGING
 14 .debug_loc    0000d7a1  00000000  00000000  0006f4f3  2**0
                  CONTENTS, READONLY, DEBUGGING
 15 .debug_alt_sim_info 00000040  00000000  00000000  0007cc94  2**2
                  CONTENTS, READONLY, DEBUGGING
 16 .debug_ranges 000009e0  00000000  00000000  0007ccd8  2**3
                  CONTENTS, READONLY, DEBUGGING
 17 .thread_model 00000003  00000000  00000000  00081d0f  2**0
                  CONTENTS, READONLY
 18 .cpu          0000000c  00000000  00000000  00081d12  2**0
                  CONTENTS, READONLY
 19 .qsys         00000001  00000000  00000000  00081d1e  2**0
                  CONTENTS, READONLY
 20 .simulation_enabled 00000001  00000000  00000000  00081d1f  2**0
                  CONTENTS, READONLY
 21 .sysid_hash   00000004  00000000  00000000  00081d20  2**0
                  CONTENTS, READONLY
 22 .sysid_base   00000004  00000000  00000000  00081d24  2**0
                  CONTENTS, READONLY
 23 .sysid_time   00000004  00000000  00000000  00081d28  2**0
                  CONTENTS, READONLY
 24 .stderr_dev   0000000b  00000000  00000000  00081d2c  2**0
                  CONTENTS, READONLY
 25 .stdin_dev    0000000b  00000000  00000000  00081d37  2**0
                  CONTENTS, READONLY
 26 .stdout_dev   0000000b  00000000  00000000  00081d42  2**0
                  CONTENTS, READONLY
 27 .sopc_system_name 0000000d  00000000  00000000  00081d4d  2**0
                  CONTENTS, READONLY
 28 .quartus_project_dir 00000047  00000000  00000000  00081d5a  2**0
                  CONTENTS, READONLY
 29 .sopcinfo     00065157  00000000  00000000  00081da1  2**0
                  CONTENTS, READONLY
SYMBOL TABLE:
01104000 l    d  .entry	00000000 .entry
01104020 l    d  .exceptions	00000000 .exceptions
00800198 l    d  .text	00000000 .text
00812790 l    d  .rodata	00000000 .rodata
008135b8 l    d  .rwdata	00000000 .rwdata
00817168 l    d  .bss	00000000 .bss
00000000 l    d  .comment	00000000 .comment
00000000 l    d  .debug_aranges	00000000 .debug_aranges
00000000 l    d  .debug_pubnames	00000000 .debug_pubnames
00000000 l    d  .debug_info	00000000 .debug_info
00000000 l    d  .debug_abbrev	00000000 .debug_abbrev
00000000 l    d  .debug_line	00000000 .debug_line
00000000 l    d  .debug_frame	00000000 .debug_frame
00000000 l    d  .debug_str	00000000 .debug_str
00000000 l    d  .debug_loc	00000000 .debug_loc
00000000 l    d  .debug_alt_sim_info	00000000 .debug_alt_sim_info
00000000 l    d  .debug_ranges	00000000 .debug_ranges
008001d0 l       .text	00000000 alt_after_alt_main
00000000 l    df *ABS*	00000000 alt_irq_handler.c
00000000 l    df *ABS*	00000000 CHAP_9.c
00000000 l    df *ABS*	00000000 D13BUS.c
00000000 l    df *ABS*	00000000 HAL4D13.c
00000000 l    df *ABS*	00000000 HID.c
00000000 l    df *ABS*	00000000 ISR.c
00000000 l    df *ABS*	00000000 IntegratedMain.c
00000000 l    df *ABS*	00000000 MAINLOOP.c
00000000 l    df *ABS*	00000000 hello_world.c
00000000 l    df *ABS*	00000000 usb_irq.c
00000000 l    df *ABS*	00000000 dp-bit.c
0080563c l     F .text	00000410 _fpadd_parts
00000000 l    df *ABS*	00000000 dp-bit.c
00000000 l    df *ABS*	00000000 dp-bit.c
00000000 l    df *ABS*	00000000 dp-bit.c
00000000 l    df *ABS*	00000000 lib2-divmod.c
00805d10 l     F .text	0000007c udivmodsi4
00000000 l    df *ABS*	00000000 libgcc2.c
00000000 l    df *ABS*	00000000 dp-bit.c
00000000 l    df *ABS*	00000000 dp-bit.c
00000000 l    df *ABS*	00000000 libgcc2.c
00000000 l    df *ABS*	00000000 atoi.c
00000000 l    df *ABS*	00000000 memcpy.c
00000000 l    df *ABS*	00000000 printf.c
00000000 l    df *ABS*	00000000 putchar.c
00000000 l    df *ABS*	00000000 puts.c
00000000 l    df *ABS*	00000000 strlen.c
00000000 l    df *ABS*	00000000 strtol.c
00000000 l    df *ABS*	00000000 vfprintf.c
00806818 l     F .text	00000058 __sprint_r
0081315e l     O .rodata	00000010 blanks.3452
0081314e l     O .rodata	00000010 zeroes.3453
00000000 l    df *ABS*	00000000 wsetup.c
00000000 l    df *ABS*	00000000 ctype_.c
0081326f l     O .rodata	00000180 _ctype_b
00000000 l    df *ABS*	00000000 dtoa.c
00808894 l     F .text	00000244 quorem
00000000 l    df *ABS*	00000000 fflush.c
00000000 l    df *ABS*	00000000 findfp.c
0080a2bc l     F .text	00000058 std
0080a3c8 l     F .text	00000008 __fp_lock
0080a3d0 l     F .text	00000008 __fp_unlock
00000000 l    df *ABS*	00000000 mallocr.c
00000000 l    df *ABS*	00000000 fvwrite.c
00000000 l    df *ABS*	00000000 fwalk.c
00000000 l    df *ABS*	00000000 impure.c
008138c0 l     O .rwdata	00000400 impure_data
00000000 l    df *ABS*	00000000 locale.c
0081535c l     O .rwdata	00000004 charset
00813414 l     O .rodata	00000030 lconv
00000000 l    df *ABS*	00000000 makebuf.c
00000000 l    df *ABS*	00000000 mallocr.c
00000000 l    df *ABS*	00000000 memchr.c
00000000 l    df *ABS*	00000000 memmove.c
00000000 l    df *ABS*	00000000 memset.c
00000000 l    df *ABS*	00000000 mprec.c
0081355c l     O .rodata	0000000c p05.2458
00000000 l    df *ABS*	00000000 putc.c
00000000 l    df *ABS*	00000000 mallocr.c
00000000 l    df *ABS*	00000000 s_isinfd.c
00000000 l    df *ABS*	00000000 s_isnand.c
00000000 l    df *ABS*	00000000 sbrkr.c
00000000 l    df *ABS*	00000000 stdio.c
00000000 l    df *ABS*	00000000 strcmp.c
00000000 l    df *ABS*	00000000 wbuf.c
00000000 l    df *ABS*	00000000 writer.c
00000000 l    df *ABS*	00000000 mallocr.c
00000000 l    df *ABS*	00000000 closer.c
00000000 l    df *ABS*	00000000 fclose.c
00000000 l    df *ABS*	00000000 fstatr.c
00000000 l    df *ABS*	00000000 int_errno.c
00000000 l    df *ABS*	00000000 isattyr.c
00000000 l    df *ABS*	00000000 lseekr.c
00000000 l    df *ABS*	00000000 readr.c
00000000 l    df *ABS*	00000000 libgcc2.c
00000000 l    df *ABS*	00000000 libgcc2.c
00000000 l    df *ABS*	00000000 dp-bit.c
00000000 l    df *ABS*	00000000 dp-bit.c
00000000 l    df *ABS*	00000000 dp-bit.c
00000000 l    df *ABS*	00000000 dp-bit.c
00000000 l    df *ABS*	00000000 dp-bit.c
00000000 l    df *ABS*	00000000 dp-bit.c
00000000 l    df *ABS*	00000000 dp-bit.c
00000000 l    df *ABS*	00000000 dp-bit.c
00000000 l    df *ABS*	00000000 lib2-mul.c
00000000 l    df *ABS*	00000000 libgcc2.c
00000000 l    df *ABS*	00000000 dp-bit.c
00000000 l    df *ABS*	00000000 alt_close.c
0080f790 l     F .text	00000060 alt_get_errno
00000000 l    df *ABS*	00000000 alt_dev.c
0080f7f0 l     F .text	0000002c alt_dev_null_write
00000000 l    df *ABS*	00000000 alt_errno.c
00000000 l    df *ABS*	00000000 alt_fstat.c
0080f8f4 l     F .text	00000060 alt_get_errno
00000000 l    df *ABS*	00000000 alt_irq_register.c
00000000 l    df *ABS*	00000000 alt_irq_vars.c
00000000 l    df *ABS*	00000000 alt_isatty.c
0080fbd8 l     F .text	00000060 alt_get_errno
00000000 l    df *ABS*	00000000 alt_load.c
0080fcb8 l     F .text	0000006c alt_load_section
00000000 l    df *ABS*	00000000 alt_lseek.c
0080fe18 l     F .text	00000060 alt_get_errno
00000000 l    df *ABS*	00000000 alt_main.c
00000000 l    df *ABS*	00000000 alt_malloc_lock.c
00000000 l    df *ABS*	00000000 alt_printf.c
00000000 l    df *ABS*	00000000 alt_putchar.c
00000000 l    df *ABS*	00000000 alt_read.c
008102e0 l     F .text	00000060 alt_get_errno
00000000 l    df *ABS*	00000000 alt_release_fd.c
00000000 l    df *ABS*	00000000 alt_sbrk.c
00815384 l     O .rwdata	00000004 heap_end
00000000 l    df *ABS*	00000000 alt_usleep.c
00000000 l    df *ABS*	00000000 alt_write.c
008105c8 l     F .text	00000060 alt_get_errno
00000000 l    df *ABS*	00000000 alt_sys_init.c
0081427c l     O .rwdata	00001060 jtag_uart_0
008152dc l     O .rwdata	0000002c rs232_0
00815308 l     O .rwdata	00000034 usb_0
008106d0 l     F .text	00000038 alt_dev_reg
00000000 l    df *ABS*	00000000 altera_avalon_jtag_uart_fd.c
00000000 l    df *ABS*	00000000 altera_avalon_jtag_uart_init.c
00810908 l     F .text	0000022c altera_avalon_jtag_uart_irq
00810b34 l     F .text	000000b0 altera_avalon_jtag_uart_timeout
00000000 l    df *ABS*	00000000 altera_avalon_jtag_uart_ioctl.c
00000000 l    df *ABS*	00000000 altera_avalon_jtag_uart_read.c
00000000 l    df *ABS*	00000000 altera_avalon_jtag_uart_write.c
00000000 l    df *ABS*	00000000 altera_avalon_timer_sc.c
008111b0 l     F .text	00000074 alt_avalon_timer_sc_irq
00000000 l    df *ABS*	00000000 altera_up_avalon_rs232.c
00000000 l    df *ABS*	00000000 alt_alarm_start.c
00000000 l    df *ABS*	00000000 alt_busy_sleep.c
00000000 l    df *ABS*	00000000 alt_dcache_flush_all.c
00000000 l    df *ABS*	00000000 alt_dev_llist_insert.c
008119c4 l     F .text	00000060 alt_get_errno
00000000 l    df *ABS*	00000000 alt_do_ctors.c
00000000 l    df *ABS*	00000000 alt_do_dtors.c
00000000 l    df *ABS*	00000000 alt_find_dev.c
00000000 l    df *ABS*	00000000 alt_icache_flush_all.c
00000000 l    df *ABS*	00000000 alt_io_redirect.c
00811b9c l     F .text	000000d8 alt_open_fd
00000000 l    df *ABS*	00000000 alt_open.c
00811cec l     F .text	000000f8 alt_file_locked
00811f70 l     F .text	00000060 alt_get_errno
00000000 l    df *ABS*	00000000 alt_tick.c
00000000 l    df *ABS*	00000000 altera_nios2_qsys_irq.c
00000000 l    df *ABS*	00000000 alt_find_file.c
00000000 l    df *ABS*	00000000 alt_get_fd.c
00000000 l    df *ABS*	00000000 atexit.c
00000000 l    df *ABS*	00000000 exit.c
00000000 l    df *ABS*	00000000 memcmp.c
00000000 l    df *ABS*	00000000 __atexit.c
00000000 l    df *ABS*	00000000 __call_atexit.c
00812578 l     F .text	00000004 register_fini
00000000 l    df *ABS*	00000000 alt_exit.c
0081272c l     F .text	00000040 alt_sim_halt
008015d4 g     F .text	00000210 read_write_register
00806458 g     F .text	0000001c putchar
0080c00c g     F .text	00000094 _mprec_log10
00802864 g     F .text	00000054 Hal4D13_GetErrorCode
00801308 g     F .text	00000064 Chap9_StallEP0InControlRead
0080c0f8 g     F .text	00000088 __any_on
0080dbe8 g     F .text	00000070 _isatty_r
00813534 g     O .rodata	00000028 __mprec_tinytens
0080fe78 g     F .text	0000006c alt_main
008029d8 g     F .text	00000168 Hal4D13_RegAccess
008027c8 g     F .text	0000005c Hal4D13_LockDevice
0080647c g     F .text	000000a0 _puts_r
00817218 g     O .bss	00000100 alt_irq
0080dc58 g     F .text	00000078 _lseek_r
00802418 g     F .text	00000070 Hal4D13_SetIntEnable
00802608 g     F .text	00000040 Hal4D13_SetDMAConfig
00815390 g       *ABS*	00000000 __flash_rwdata_start
008135b8 g     O .rwdata	00000012 DeviceDescr
0080f030 g     F .text	00000088 __eqdf2
0080190c g     F .text	00000028 D13Bus_StallEP0
00813880 g     O .rwdata	00000040 _NAME_USB_VENDOR_REQUEST
008174a8 g       *ABS*	00000000 __alt_heap_start
008008c4 g     F .text	0000023c Chap9_SetAddress
008012a4 g     F .text	00000064 Chap9_StallEP0InControlWrite
008063e0 g     F .text	00000044 printf
00803df8 g     F .text	00000038 ML_Reserved
0080d554 g     F .text	00000068 __sseek
0080a324 g     F .text	000000a4 __sinit
0080d754 g     F .text	00000130 __swbuf_r
0080b030 g     F .text	00000084 _setlocale_r
0080a424 g     F .text	0000009c __sfmoreglue
008136c1 g     O .rwdata	0000001a strSerialNum
0080ff04 g     F .text	00000020 __malloc_unlock
008015ac g     F .text	00000028 reserved
008114e0 g     F .text	00000090 alt_up_rs232_read_fd
00804fe0 g     F .text	00000174 largestPalmLeft
0080ba88 g     F .text	000000e0 memmove
008052c8 g     F .text	00000174 largestPalmUp
00803c4c g     F .text	000000f4 config_endpoints
0080a414 g     F .text	00000010 _cleanup
0080c180 g     F .text	000000bc _Balloc
0080f140 g     F .text	00000088 __gtdf2
00000000  w      *UND*	00000000 __errno
00802688 g     F .text	00000040 Hal4D13_SetDMACounter
00802708 g     F .text	00000040 Hal4D13_GetDataFromChipRam
01104000 g     F .entry	0000000c __reset
0081716c g     O .bss	00000004 bD13flags
0080543c g     F .text	0000016c orientation
00800000 g       *ABS*	00000000 __flash_exceptions_start
0080db74 g     F .text	00000074 _fstat_r
008171b0 g     O .bss	00000004 errno
008171bc g     O .bss	00000004 alt_argv
0081d33c g       *ABS*	00000000 _gp
00803e30 g     F .text	000000c8 CHECK_CHIP_ID
00810474 g     F .text	00000030 usleep
00801fac g     F .text	000000fc Hal4D13_ReadBulkEndpoint
008140fc g     O .rwdata	00000180 alt_fd_list
00801584 g     F .text	00000028 D13Bus_ControlEntry
00802d74 g     F .text	00000030 HID_Set_Report
00806474 g     F .text	00000008 _putchar_r
00811aec g     F .text	00000094 alt_find_dev
00806340 g     F .text	000000a0 memcpy
0080a408 g     F .text	0000000c _cleanup_r
00805b40 g     F .text	000000f8 __floatsidf
00802e88 g     F .text	00000030 HID_Set_Protocol
00811c74 g     F .text	00000078 alt_io_redirect
0080f250 g     F .text	00000088 __ltdf2
008055f8 g     F .text	00000044 enable_irq
00812790 g       *ABS*	00000000 __DTOR_END__
0081146c g     F .text	00000074 alt_up_rs232_read_data
0080651c g     F .text	00000014 puts
00805154 g     F .text	00000174 largestPalmRight
0080bf5c g     F .text	000000b0 __ratio
00802974 g     F .text	0000001c Hal4D13_ConfigDevice
00810d4c g     F .text	00000224 altera_avalon_jtag_uart_read
00000000  w      *UND*	00000000 malloc
00806424 g     F .text	00000034 _printf_r
01104000 g       *ABS*	00000000 __alt_mem_onchip_memory2_0
00805e4c g     F .text	00000008 __udivsi3
0080fb14 g     F .text	000000c4 isatty
00802648 g     F .text	00000040 Hal4D13_GetDMAConfig
00813444 g     O .rodata	000000c8 __mprec_tens
0080b00c g     F .text	00000008 __locale_charset
00800464 g     F .text	00000238 Chap9_ClearFeature
00800b00 g     F .text	000002a4 Chap9_GetDescriptor
0081366a g     O .rwdata	0000002d REPORT_DESCRIPTOR
008171a4 g     O .bss	00000004 __malloc_top_pad
0081379c g     O .rwdata	00000010 _NAME_USB_REQUEST_TYPE
00802788 g     F .text	00000040 Hal4D13_ReadCurrentFrameNumber
00817168 g     O .bss	00000001 ALTERNATIVE_SETTING
00815358 g     O .rwdata	00000004 __mb_cur_max
0080b014 g     F .text	0000000c _localeconv_r
0080c8e4 g     F .text	0000003c __i2b
0080a9f0 g     F .text	0000049c __sfvwrite_r
00803d9c g     F .text	0000005c ML_AcknowledgeSETUP
00802958 g     F .text	0000001c Hal4D13_UnconfigDevice
0080136c g     F .text	0000009c Chap9_SingleTransmitEP0
0080d4dc g     F .text	00000070 _sbrk_r
0080dcd0 g     F .text	00000078 _read_r
00802c74 g     F .text	000000a0 HID_Get_Report
00813cc0 g     O .rwdata	0000000c __lc_ctype
00801b90 g     F .text	0000002c Hal4D13_ResetDevice
00815378 g     O .rwdata	00000004 alt_max_fd
008113d4 g     F .text	00000050 alt_up_rs232_check_parity
008061f0 g     F .text	00000138 __unpack_d
0080da50 g     F .text	00000110 _fclose_r
00815340 g     O .rwdata	00000008 _NAME_USB_REQUEST_DIRECTION
0080a288 g     F .text	00000034 fflush
008171a8 g     O .bss	00000004 __malloc_max_sbrked_mem
0080f954 g     F .text	000001c0 alt_irq_register
00801114 g     F .text	00000100 Chap9_SetInterface
00802488 g     F .text	00000070 Hal4D13_ReadInterruptRegister
0081371d g     O .rwdata	00000038 strManufacturer
00805acc g     F .text	00000074 __adddf3
0080be3c g     F .text	00000120 __b2d
00802da4 g     F .text	000000e4 HID_Set_Idle
0080e3b4 g     F .text	00000660 __umoddi3
0080fd24 g     F .text	000000f4 lseek
00817170 g     O .bss	00000004 clk_rate
00815354 g     O .rwdata	00000004 _global_impure_ptr
00801408 g     F .text	0000017c Chap9_BurstTransmitEP0
0080ce78 g     F .text	000005f4 _realloc_r
008174a8 g       *ABS*	00000000 __bss_end
00817174 g     O .bss	00000008 new_report
00812068 g     F .text	0000010c alt_tick
008036f4 g     F .text	00000274 SetupToken_Handler
0080dd48 g     F .text	0000066c __udivdi3
0081350c g     O .rodata	00000028 __mprec_bigtens
0080cb6c g     F .text	00000120 __s2b
0080f2d8 g     F .text	00000194 __floatunsidf
0080bd5c g     F .text	00000060 __mcmp
00813758 g     O .rwdata	00000034 StandardDeviceRequest
0081534c g     O .rwdata	00000004 __ctype_ptr
008136db g     O .rwdata	00000042 strProduct
0080a3f0 g     F .text	00000018 __fp_lock_all
00811fd0 g     F .text	00000098 alt_alarm_stop
008067f4 g     F .text	00000024 strtol
008171b4 g     O .bss	00000004 alt_irq_active
00804ce8 g     F .text	00000100 mapGestureToKeycodes
011040ec g     F .exceptions	000000cc alt_irq_handler
008140d4 g     O .rwdata	00000028 alt_dev_null
00801eb0 g     F .text	000000fc Hal4D13_ReadEndpoint
00803d6c g     F .text	00000030 change_suspend_state
008118f4 g     F .text	0000001c alt_dcache_flush_all
0080bc28 g     F .text	00000070 __hi0bits
00805c38 g     F .text	000000d8 __fixdfsi
008019d0 g     F .text	00000184 D13Bus_BurstTransmitEP0
00815390 g       *ABS*	00000000 __ram_rwdata_end
00815370 g     O .rwdata	00000008 alt_dev_list
008104a4 g     F .text	00000124 write
0080cd90 g     F .text	000000e8 _putc_r
00801d84 g     F .text	00000098 Hal4D13_SoftConnect
008135b8 g       *ABS*	00000000 __ram_rodata_end
0080f81c g     F .text	000000d8 fstat
00811570 g     F .text	00000094 alt_up_rs232_write_fd
0081717c g     O .bss	00000008 ioRequest
0080ca4c g     F .text	00000120 __pow5mult
00817198 g     O .bss	00000004 __nlocale_changed
00805e54 g     F .text	00000008 __umodsi3
00801e48 g     F .text	00000034 Hal4D13_ClearBuffer
008174a8 g       *ABS*	00000000 end
008023bc g     F .text	0000005c Hal4D13_GetIntEnable
00806328 g     F .text	0000000c _atoi_r
00813697 g     O .rwdata	00000018 strInterface
00810850 g     F .text	000000b8 altera_avalon_jtag_uart_init
00801c7c g     F .text	0000004c Hal4D13_GetMode
0081278c g       *ABS*	00000000 __CTOR_LIST__
01000000 g       *ABS*	00000000 __alt_stack_pointer
00804c20 g     F .text	000000a4 reportChanged
00811224 g     F .text	00000088 alt_avalon_timer_sc_init
00805e5c g     F .text	00000080 __clzsi2
0080312c g     F .text	00000030 Isr_SuspendChange
00810f70 g     F .text	00000240 altera_avalon_jtag_uart_write
00804de8 g     F .text	00000084 noMovement
0080a314 g     F .text	00000004 __sfp_lock_acquire
0080b9a4 g     F .text	000000e4 memchr
00806870 g     F .text	00001ec4 ___vfprintf_internal_r
0080a6dc g     F .text	00000314 _free_r
0080ff24 g     F .text	00000258 alt_printf
00803a78 g     F .text	0000012c help_devreq
0081257c g     F .text	000001b0 __call_exitprocs
00802d44 g     F .text	00000030 HID_Get_Protocol
0081719c g     O .bss	00000004 __mlocale_changed
00803ba4 g     F .text	00000040 disconnect_USB_controller
00815364 g     O .rwdata	00000004 __malloc_sbrk_base
00800198 g     F .text	0000003c _start
008171c4 g     O .bss	00000004 _alt_tick_rate
0080c544 g     F .text	0000014c __lshift
008171c8 g     O .bss	00000004 _alt_nticks
008021a4 g     F .text	00000128 Hal4D13_WriteEndpoint
008101bc g     F .text	00000124 read
0081065c g     F .text	00000074 alt_sys_init
00817184 g     O .bss	00000004 clk_ticks
00802990 g     F .text	00000048 Hal4D13_SingleTransmitEP0
00812444 g     F .text	00000134 __register_exitproc
00811394 g     F .text	00000040 alt_up_rs232_get_available_space_in_write_FIFO
0080315c g     F .text	00000030 Isr_SHORT_PACKET
0080c690 g     F .text	00000254 __multiply
008025a0 g     F .text	00000068 Hal4D13_SetEndpointStatus
00804cc4 g     F .text	00000024 readGesture
00810be4 g     F .text	00000074 altera_avalon_jtag_uart_close
0080f46c g     F .text	00000038 __mulsi3
008135b8 g       *ABS*	00000000 __ram_rwdata_start
00813840 g     O .rwdata	00000040 VendorDeviceRequest
00812790 g       *ABS*	00000000 __ram_rodata_start
008171cc g     O .bss	00000028 __malloc_current_mallinfo
0080c23c g     F .text	0000017c __d2b
00815348 g     O .rwdata	00000001 INT_Enabled
00810708 g     F .text	00000058 altera_avalon_jtag_uart_read_fd
008122b4 g     F .text	000000d0 alt_get_fd
00802eec g     F .text	00000154 usb_isr
00811798 g     F .text	0000015c alt_busy_sleep
0080f5c8 g     F .text	000000c8 __fpcmp_parts_d
0080d9e0 g     F .text	00000070 _close_r
00802b7c g     F .text	0000003c Hal4D13_StallEP0InControlRead
008123d0 g     F .text	00000074 memcmp
008107b8 g     F .text	00000048 altera_avalon_jtag_uart_close_fd
008174a8 g       *ABS*	00000000 __alt_stack_base
00810800 g     F .text	00000050 altera_avalon_jtag_uart_ioctl_fd
00808758 g     F .text	0000013c __swsetup_r
0081378c g     O .rwdata	00000010 _NAME_USB_REQUEST_RECIPIENT
00803478 g     F .text	00000218 Isr_Ep00TxDone
0080edd8 g     F .text	00000258 __divdf3
0080a4c0 g     F .text	000000f0 __sfp
00813810 g     O .rwdata	00000030 _NAME_USB_CLASS_REQUEST
0080c0a0 g     F .text	00000058 __copybits
00813ccc g     O .rwdata	00000408 __malloc_av_
0080069c g     F .text	00000228 Chap9_SetFeature
0080a320 g     F .text	00000004 __sinit_lock_release
0080ea14 g     F .text	000003c4 __muldf3
0080d638 g     F .text	00000060 __sread
00811300 g     F .text	00000058 alt_up_rs232_disable_read_interrupt
00812194 g     F .text	00000120 alt_find_file
00811910 g     F .text	000000b4 alt_dev_llist_insert
0080fee4 g     F .text	00000020 __malloc_lock
008103b8 g     F .text	000000bc sbrk
00803274 g     F .text	00000204 Isr_Ep00RxDone
00803040 g     F .text	000000ec Isr_BusReset
0080a08c g     F .text	000001fc _fflush_r
0080d918 g     F .text	000000c8 _calloc_r
00802d14 g     F .text	00000030 HID_Get_Idle
008024f8 g     F .text	00000054 Hal4D13_GetEndpointStatusWInteruptClear
00801214 g     F .text	00000090 Chap9_StallEP0
00817168 g       *ABS*	00000000 __bss_start
0080bb68 g     F .text	00000098 memset
00801c3c g     F .text	00000040 Hal4D13_SetMode
00803ef8 g     F .text	00000d28 main
008171c0 g     O .bss	00000004 alt_envp
008171ac g     O .bss	00000004 __malloc_max_total_mem
00817188 g     O .bss	00000008 hid_settings
00810760 g     F .text	00000058 altera_avalon_jtag_uart_write_fd
0080d884 g     F .text	0000001c __swbuf
0080d54c g     F .text	00000008 __sclose
01000000 g       *ABS*	00000000 __alt_heap_limit
008028b8 g     F .text	00000054 Hal4D13_GetEndpointConfig
0080db60 g     F .text	00000014 fclose
008017e4 g     F .text	000000f0 setup_dma_request
008065a4 g     F .text	00000250 _strtol_r
00817318 g     O .bss	00000190 _atexit0
00808ad8 g     F .text	000015b4 _dtoa_r
0080b264 g     F .text	00000740 _malloc_r
00813634 g     O .rwdata	00000009 InterfaceDescr0
0081537c g     O .rwdata	00000004 alt_errno
00801cc8 g     F .text	0000004c Hal4D13_GetAddress
0080af54 g     F .text	000000b8 _fwalk
00803d40 g     F .text	0000002c reconnect_USB_controller
0080cc8c g     F .text	00000104 putc
00805d8c g     F .text	00000060 __divsi3
00812fd8 g     O .rodata	00000014 __thenan_df
00802b40 g     F .text	0000003c Hal4D13_StallEP0InControlWrite
0080a5b0 g     F .text	0000012c _malloc_trim_r
00812790 g       *ABS*	00000000 __CTOR_END__
0080d698 g     F .text	000000bc strcmp
0080318c g     F .text	000000cc Isr_DmaEot
00812790 g       *ABS*	00000000 __flash_rodata_start
00812790 g       *ABS*	00000000 __DTOR_LIST__
00802c38 g     F .text	0000003c Read_HC_Config_Reg
00801e7c g     F .text	00000034 Hal4D13_ValidBuffer
00802824 g     F .text	00000040 Hal4D13_ReadChipID
00811604 g     F .text	00000040 alt_up_rs232_open_dev
00803968 g     F .text	00000110 DeviceRequest_Handler
008022cc g     F .text	000000f0 Hal4D13_WriteBulkEndpoint
0080f0b8 g     F .text	00000088 __nedf2
01080000 g       *ABS*	00000000 __alt_mem_sram_0
00810628 g     F .text	00000034 alt_irq_init
00810340 g     F .text	00000078 alt_release_fd
00812fec g     O .rodata	00000100 __clz_tab
008171a0 g     O .bss	00000004 _PathLocale
00812384 g     F .text	00000014 atexit
00801bfc g     F .text	00000040 Hal4D13_SetDevConfig
0080d8a0 g     F .text	00000078 _write_r
00801bbc g     F .text	00000040 Hal4D13_GetDevConfig
0080b0b4 g     F .text	0000001c setlocale
00802bb8 g     F .text	00000040 Hal4D13_IsSetupPktInvalid
00803690 g     F .text	00000064 Isr_Ep01Done
008171f4 g     O .bss	00000024 ControlData
00815350 g     O .rwdata	00000004 _impure_ptr
008171b8 g     O .bss	00000004 alt_argc
00811a88 g     F .text	00000064 _do_dtors
0081363d g     O .rwdata	0000002d REPORT_DESCRIPTOR2
00800da4 g     F .text	000000c0 Chap9_GetConfiguration
00800000 g       *ABS*	00000000 __alt_mem_sdram_0
01104020 g       .exceptions	00000000 alt_irq_entry
0080bdbc g     F .text	00000080 __ulp
0080d46c g     F .text	00000040 __isinfd
0080a3d8 g     F .text	00000018 __fp_unlock_all
00815368 g     O .rwdata	00000008 alt_fs_list
008112ac g     F .text	00000054 alt_up_rs232_enable_read_interrupt
008135ca g     O .rwdata	00000022 ConfigDescr_a
008136af g     O .rwdata	00000012 strConfiguration
00811424 g     F .text	00000048 alt_up_rs232_write_data
01104020 g       *ABS*	00000000 __ram_exceptions_start
0080b020 g     F .text	00000010 localeconv
008137ac g     O .rwdata	00000034 _NAME_USB_STANDARD_REQUEST
0080290c g     F .text	0000004c Hal4D13_SetEndpointConfig
00815390 g       *ABS*	00000000 _edata
008174a8 g       *ABS*	00000000 _end
011041b8 g       *ABS*	00000000 __ram_exceptions_end
00810c58 g     F .text	000000f4 altera_avalon_jtag_uart_ioctl
00802bf8 g     F .text	00000040 Write_HC_Config_Reg
00801d14 g     F .text	00000070 Hal4D13_SetAddressEnable
0080d5bc g     F .text	0000007c __swrite
00817190 g     O .bss	00000003 bUSBCheck_Device_State
00815360 g     O .rwdata	00000004 __malloc_trim_threshold
00802748 g     F .text	00000040 Hal4D13_SetDataToChipRam
00812174 g     F .text	00000020 altera_nios2_qsys_irq_init
00801070 g     F .text	000000a4 Chap9_GetInterface
00812398 g     F .text	00000038 exit
0080ae8c g     F .text	000000c8 _fwalk_reent
0080c3b8 g     F .text	0000018c __mdiff
00805dec g     F .text	00000060 __modsi3
01000000 g       *ABS*	00000000 __alt_data_end
01104020 g     F .exceptions	00000000 alt_exception
0080a318 g     F .text	00000004 __sfp_lock_release
00801e1c g     F .text	0000002c Hal4D13_AcknowledgeSETUP
00801934 g     F .text	0000009c D13Bus_SingleTransmitEP0
00806334 g     F .text	0000000c atoi
008026c8 g     F .text	00000040 Hal4D13_GetDMACounter
0081316e g     O .rodata	00000101 _ctype_
0081276c g     F .text	00000020 _exit
0080d4ac g     F .text	00000030 __isnand
00811644 g     F .text	00000154 alt_alarm_start
0080254c g     F .text	00000054 Hal4D13_GetEndpointStatusWOInteruptClear
0080f4a4 g     F .text	00000124 __muldi3
0080b0d0 g     F .text	00000194 __smakebuf_r
00806530 g     F .text	00000074 strlen
00804e6c g     F .text	00000174 largest
00811de4 g     F .text	0000018c open
0080f1c8 g     F .text	00000088 __gedf2
0081017c g     F .text	00000040 alt_putchar
008001d4 g     F .text	00000290 Chap9_GetStatus
00811b80 g     F .text	0000001c alt_icache_flush_all
00815380 g     O .rwdata	00000004 alt_priority_mask
008135ec g     O .rwdata	00000048 ConfigDescr
00808734 g     F .text	00000024 __vfprintf_internal
00805a4c g     F .text	00000080 __subdf3
00803be4 g     F .text	00000068 connect_USB_controller
0080bc98 g     F .text	000000c4 __lo0bits
00815388 g     O .rwdata	00000008 alt_alarm_list
00811a24 g     F .text	00000064 _do_ctors
00817194 g     O .bss	00000004 status
008020a8 g     F .text	000000fc Hal4D13_ReadEndpointWOClearBuffer
00803258 g     F .text	0000001c Isr_SOF
00811358 g     F .text	0000003c alt_up_rs232_get_used_space_in_read_FIFO
0080f690 g     F .text	00000100 close
00801b54 g     F .text	0000003c Hal4D13_AcquireD13
00800e64 g     F .text	0000020c Chap9_SetConfiguration
0080fc38 g     F .text	00000080 alt_load
00805edc g     F .text	00000314 __pack_d
00802eb8 g     F .text	00000034 fn_usb_isr
0081533c g     O .rwdata	00000004 strLanguage
008137e0 g     O .rwdata	00000030 ClassDeviceRequest
008055a8 g     F .text	00000050 disable_irq
00000000  w      *UND*	00000000 free
0080a31c g     F .text	00000004 __sinit_lock_acquire
0080c920 g     F .text	0000012c __multadd
0080bc00 g     F .text	00000028 _Bfree
008018d4 g     F .text	00000038 get_firmware_version



Disassembly of section .entry:

01104000 <__reset>:
 * Jump to the _start entry point in the .text section if reset code
 * is allowed or if optimizing for RTL simulation.
 */
#if defined(ALT_ALLOW_CODE_AT_RESET) || defined(ALT_SIM_OPTIMIZE)
    /* Jump to the _start entry point in the .text section. */
    movhi r1, %hi(_start)
 1104000:	00402034 	movhi	at,128
    ori r1, r1, %lo(_start)
 1104004:	08406614 	ori	at,at,408
    jmp r1
 1104008:	0800683a 	jmp	at
	...

Disassembly of section .exceptions:

01104020 <alt_exception>:
         * Process an exception.  For all exceptions we must preserve all
         * caller saved registers on the stack (See the Nios2 ABI
         * documentation for details).
         */

        addi  sp, sp, -76
 1104020:	deffed04 	addi	sp,sp,-76

#endif

#endif

        stw   ra,  0(sp)
 1104024:	dfc00015 	stw	ra,0(sp)
        /*
         * Leave a gap in the stack frame at 4(sp) for the muldiv handler to
         * store zero into.
         */

        stw   r1,   8(sp)
 1104028:	d8400215 	stw	at,8(sp)
        stw   r2,  12(sp)
 110402c:	d8800315 	stw	r2,12(sp)
        stw   r3,  16(sp)
 1104030:	d8c00415 	stw	r3,16(sp)
        stw   r4,  20(sp)
 1104034:	d9000515 	stw	r4,20(sp)
        stw   r5,  24(sp)
 1104038:	d9400615 	stw	r5,24(sp)
        stw   r6,  28(sp)
 110403c:	d9800715 	stw	r6,28(sp)
        stw   r7,  32(sp)
 1104040:	d9c00815 	stw	r7,32(sp)

        rdctl r5, estatus
 1104044:	000b307a 	rdctl	r5,estatus

        stw   r8,  36(sp)
 1104048:	da000915 	stw	r8,36(sp)
        stw   r9,  40(sp)
 110404c:	da400a15 	stw	r9,40(sp)
        stw   r10, 44(sp)
 1104050:	da800b15 	stw	r10,44(sp)
        stw   r11, 48(sp)
 1104054:	dac00c15 	stw	r11,48(sp)
        stw   r12, 52(sp)
 1104058:	db000d15 	stw	r12,52(sp)
        stw   r13, 56(sp)
 110405c:	db400e15 	stw	r13,56(sp)
        stw   r14, 60(sp)
 1104060:	db800f15 	stw	r14,60(sp)
        stw   r15, 64(sp)
 1104064:	dbc01015 	stw	r15,64(sp)
        /*
         * ea-4 contains the address of the instruction being executed
         * when the exception occured. For interrupt exceptions, we will
         * will be re-issue the isntruction. Store it in 72(sp)
         */
        stw   r5,  68(sp)  /* estatus */
 1104068:	d9401115 	stw	r5,68(sp)
        addi  r15, ea, -4  /* instruction that caused exception */
 110406c:	ebffff04 	addi	r15,ea,-4
        stw   r15,  72(sp)
 1104070:	dbc01215 	stw	r15,72(sp)
#else
        /*
         * Test to see if the exception was a software exception or caused 
         * by an external interrupt, and vector accordingly.
         */
        rdctl r4, ipending
 1104074:	0009313a 	rdctl	r4,ipending
        andi  r2, r5, 1
 1104078:	2880004c 	andi	r2,r5,1
        beq   r2, zero, .Lnot_irq
 110407c:	10000326 	beq	r2,zero,110408c <alt_exception+0x6c>
        beq   r4, zero, .Lnot_irq
 1104080:	20000226 	beq	r4,zero,110408c <alt_exception+0x6c>
        /*
         * Now that all necessary registers have been preserved, call 
         * alt_irq_handler() to process the interrupts.
         */

        call alt_irq_handler
 1104084:	11040ec0 	call	11040ec <alt_irq_handler>

        .section .exceptions.irqreturn, "xa"

        br    .Lexception_exit
 1104088:	00000306 	br	1104098 <alt_exception+0x78>
         * upon completion, so we write ea (address of instruction *after*
         * the one where the exception occured) into 72(sp). The actual
         * instruction that caused the exception is written in r2, which these
         * handlers will utilize.
         */
        stw   ea,  72(sp)  /* Don't re-issue */
 110408c:	df401215 	stw	ea,72(sp)
        ldw   r2, -4(ea)   /* Instruction that caused exception */
 1104090:	e8bfff17 	ldw	r2,-4(ea)
#ifdef NIOS2_HAS_DEBUG_STUB
       /*
        *  Either tell the user now (if there is a debugger attached) or go into
        *  the debug monitor which will loop until a debugger is attached.
        */
        break
 1104094:	003da03a 	break	0
        /* 
         * Restore the saved registers, so that all general purpose registers 
         * have been restored to their state at the time the interrupt occured.
         */

        ldw   r5,  68(sp)
 1104098:	d9401117 	ldw	r5,68(sp)
        ldw   ea,  72(sp)  /* This becomes the PC once eret is executed */
 110409c:	df401217 	ldw	ea,72(sp)
        ldw   ra,   0(sp)
 11040a0:	dfc00017 	ldw	ra,0(sp)

        wrctl estatus, r5
 11040a4:	2801707a 	wrctl	estatus,r5

        ldw   r1,   8(sp)
 11040a8:	d8400217 	ldw	at,8(sp)
        ldw   r2,  12(sp)
 11040ac:	d8800317 	ldw	r2,12(sp)
        ldw   r3,  16(sp)
 11040b0:	d8c00417 	ldw	r3,16(sp)
        ldw   r4,  20(sp)
 11040b4:	d9000517 	ldw	r4,20(sp)
        ldw   r5,  24(sp)
 11040b8:	d9400617 	ldw	r5,24(sp)
        ldw   r6,  28(sp)
 11040bc:	d9800717 	ldw	r6,28(sp)
        ldw   r7,  32(sp)
 11040c0:	d9c00817 	ldw	r7,32(sp)
#ifdef ALT_STACK_CHECK
        ldw   et, %gprel(alt_exception_old_stack_limit)(gp)
#endif
#endif

        ldw   r8,  36(sp)
 11040c4:	da000917 	ldw	r8,36(sp)
        ldw   r9,  40(sp)
 11040c8:	da400a17 	ldw	r9,40(sp)
        ldw   r10, 44(sp)
 11040cc:	da800b17 	ldw	r10,44(sp)
        ldw   r11, 48(sp)
 11040d0:	dac00c17 	ldw	r11,48(sp)
        ldw   r12, 52(sp)
 11040d4:	db000d17 	ldw	r12,52(sp)
        ldw   r13, 56(sp)
 11040d8:	db400e17 	ldw	r13,56(sp)
        ldw   r14, 60(sp)
 11040dc:	db800f17 	ldw	r14,60(sp)
        ldw   r15, 64(sp)
 11040e0:	dbc01017 	ldw	r15,64(sp)
#endif

        ldw   sp,  76(sp)

#else
        addi  sp, sp, 76
 11040e4:	dec01304 	addi	sp,sp,76

        /*
         * Return to the interrupted instruction.
         */

        eret
 11040e8:	ef80083a 	eret

011040ec <alt_irq_handler>:
 * instruction is present if the macro ALT_CI_INTERRUPT_VECTOR defined.
 */

void alt_irq_handler (void) __attribute__ ((section (".exceptions")));
void alt_irq_handler (void)
{
 11040ec:	defff904 	addi	sp,sp,-28
 11040f0:	dfc00615 	stw	ra,24(sp)
 11040f4:	df000515 	stw	fp,20(sp)
 11040f8:	df000504 	addi	fp,sp,20
#ifndef NIOS2_EIC_PRESENT
static ALT_INLINE alt_u32 ALT_ALWAYS_INLINE alt_irq_pending (void)
{
  alt_u32 active;

  NIOS2_READ_IPENDING (active);
 11040fc:	0005313a 	rdctl	r2,ipending
 1104100:	e0bffc15 	stw	r2,-16(fp)

  return active;
 1104104:	e0bffc17 	ldw	r2,-16(fp)
   * Consider the case where the high priority interupt is asserted during
   * the interrupt entry sequence for a lower priority interrupt to see why
   * this is the case.
   */

  active = alt_irq_pending ();
 1104108:	e0bfff15 	stw	r2,-4(fp)

  do
  {
    i = 0;
 110410c:	e03ffd15 	stw	zero,-12(fp)
    mask = 1;
 1104110:	00800044 	movi	r2,1
 1104114:	e0bffe15 	stw	r2,-8(fp)
     * called to clear the interrupt condition.
     */

    do
    {
      if (active & mask)
 1104118:	e0ffff17 	ldw	r3,-4(fp)
 110411c:	e0bffe17 	ldw	r2,-8(fp)
 1104120:	1884703a 	and	r2,r3,r2
 1104124:	1005003a 	cmpeq	r2,r2,zero
 1104128:	1000171e 	bne	r2,zero,1104188 <alt_irq_handler+0x9c>
      { 
#ifdef ALT_ENHANCED_INTERRUPT_API_PRESENT
        alt_irq[i].handler(alt_irq[i].context); 
#else
        alt_irq[i].handler(alt_irq[i].context, i); 
 110412c:	e0bffd17 	ldw	r2,-12(fp)
 1104130:	00c02074 	movhi	r3,129
 1104134:	18dc8604 	addi	r3,r3,29208
 1104138:	100490fa 	slli	r2,r2,3
 110413c:	10c5883a 	add	r2,r2,r3
 1104140:	11800017 	ldw	r6,0(r2)
 1104144:	e0bffd17 	ldw	r2,-12(fp)
 1104148:	00c02074 	movhi	r3,129
 110414c:	18dc8604 	addi	r3,r3,29208
 1104150:	100490fa 	slli	r2,r2,3
 1104154:	10c5883a 	add	r2,r2,r3
 1104158:	10800104 	addi	r2,r2,4
 110415c:	11000017 	ldw	r4,0(r2)
 1104160:	e17ffd17 	ldw	r5,-12(fp)
 1104164:	303ee83a 	callr	r6
#ifndef NIOS2_EIC_PRESENT
static ALT_INLINE alt_u32 ALT_ALWAYS_INLINE alt_irq_pending (void)
{
  alt_u32 active;

  NIOS2_READ_IPENDING (active);
 1104168:	0005313a 	rdctl	r2,ipending
 110416c:	e0bffb15 	stw	r2,-20(fp)

  return active;
 1104170:	e0bffb17 	ldw	r2,-20(fp)
      mask <<= 1;
      i++;

    } while (1);

    active = alt_irq_pending ();
 1104174:	e0bfff15 	stw	r2,-4(fp)
    
  } while (active);
 1104178:	e0bfff17 	ldw	r2,-4(fp)
 110417c:	1004c03a 	cmpne	r2,r2,zero
 1104180:	103fe21e 	bne	r2,zero,110410c <alt_irq_handler+0x20>
 1104184:	00000706 	br	11041a4 <alt_irq_handler+0xb8>
#else
        alt_irq[i].handler(alt_irq[i].context, i); 
#endif
        break;
      }
      mask <<= 1;
 1104188:	e0bffe17 	ldw	r2,-8(fp)
 110418c:	1085883a 	add	r2,r2,r2
 1104190:	e0bffe15 	stw	r2,-8(fp)
      i++;
 1104194:	e0bffd17 	ldw	r2,-12(fp)
 1104198:	10800044 	addi	r2,r2,1
 110419c:	e0bffd15 	stw	r2,-12(fp)

    } while (1);
 11041a0:	003fdd06 	br	1104118 <alt_irq_handler+0x2c>
  /*
   * Notify the operating system that interrupt processing is complete.
   */ 

  ALT_OS_INT_EXIT();
}
 11041a4:	e037883a 	mov	sp,fp
 11041a8:	dfc00117 	ldw	ra,4(sp)
 11041ac:	df000017 	ldw	fp,0(sp)
 11041b0:	dec00204 	addi	sp,sp,8
 11041b4:	f800283a 	ret

Disassembly of section .text:

00800198 <_start>:
#if (NIOS2_NUM_OF_SHADOW_REG_SETS == 0)    
    /*
     * Now that the caches are initialized, set up the stack pointer.
     * The value provided by the linker is assumed to be correctly aligned.
     */
    movhi sp, %hi(__alt_stack_pointer)
  800198:	06c04034 	movhi	sp,256
    ori sp, sp, %lo(__alt_stack_pointer)
  80019c:	dec00014 	ori	sp,sp,0

    /* Set up the global pointer. */
    movhi gp, %hi(_gp)
  8001a0:	06802074 	movhi	gp,129
    ori gp, gp, %lo(_gp)
  8001a4:	d6b4cf14 	ori	gp,gp,54076
 */
#ifndef ALT_SIM_OPTIMIZE
    /* Log that the BSS is about to be cleared. */
    ALT_LOG_PUTS(alt_log_msg_bss)

    movhi r2, %hi(__bss_start)
  8001a8:	00802074 	movhi	r2,129
    ori r2, r2, %lo(__bss_start)
  8001ac:	109c5a14 	ori	r2,r2,29032

    movhi r3, %hi(__bss_end)
  8001b0:	00c02074 	movhi	r3,129
    ori r3, r3, %lo(__bss_end)
  8001b4:	18dd2a14 	ori	r3,r3,29864

    beq r2, r3, 1f
  8001b8:	10c00326 	beq	r2,r3,8001c8 <_start+0x30>

0:
    stw zero, (r2)
  8001bc:	10000015 	stw	zero,0(r2)
    addi r2, r2, 4
  8001c0:	10800104 	addi	r2,r2,4
    bltu r2, r3, 0b
  8001c4:	10fffd36 	bltu	r2,r3,8001bc <_start+0x24>
     * section aren't defined until alt_load() has been called).
     */
    mov   et, zero
#endif

    call alt_load
  8001c8:	080fc380 	call	80fc38 <alt_load>

    /* Log that alt_main is about to be called. */
    ALT_LOG_PUTS(alt_log_msg_alt_main)

    /* Call the C entry point. It should never return. */
    call alt_main
  8001cc:	080fe780 	call	80fe78 <alt_main>

008001d0 <alt_after_alt_main>:

    /* Wait in infinite loop in case alt_main does return. */
alt_after_alt_main:
    br alt_after_alt_main
  8001d0:	003fff06 	br	8001d0 <alt_after_alt_main>

008001d4 <Chap9_GetStatus>:
// *************************************************************************
// USB standard device requests
// *************************************************************************

void Chap9_GetStatus(void)
{
  8001d4:	defffa04 	addi	sp,sp,-24
  8001d8:	dfc00515 	stw	ra,20(sp)
  8001dc:	df000415 	stw	fp,16(sp)
  8001e0:	df000404 	addi	fp,sp,16
    UCHAR   endp, txdat[2];
    UCHAR   c;
    UCHAR   bRecipient = ControlData.DeviceRequest.bmRequestType & USB_RECIPIENT;
  8001e4:	00802074 	movhi	r2,129
  8001e8:	109c7d04 	addi	r2,r2,29172
  8001ec:	10800083 	ldbu	r2,2(r2)
  8001f0:	108007cc 	andi	r2,r2,31
  8001f4:	e0bffc05 	stb	r2,-16(fp)


    if(bUSBCheck_Device_State.State_bits.DEVICE_ADDRESS_STATE)
  8001f8:	00802074 	movhi	r2,129
  8001fc:	109c6404 	addi	r2,r2,29072
  800200:	10800003 	ldbu	r2,0(r2)
  800204:	1080008c 	andi	r2,r2,2
  800208:	10803fcc 	andi	r2,r2,255
  80020c:	1005003a 	cmpeq	r2,r2,zero
  800210:	10003e1e 	bne	r2,zero,80030c <Chap9_GetStatus+0x138>
    {
    switch(bRecipient)
  800214:	e0bffc03 	ldbu	r2,-16(fp)
  800218:	e0bfff15 	stw	r2,-4(fp)
  80021c:	e0ffff17 	ldw	r3,-4(fp)
  800220:	18800060 	cmpeqi	r2,r3,1
  800224:	1000171e 	bne	r2,zero,800284 <Chap9_GetStatus+0xb0>
  800228:	e0ffff17 	ldw	r3,-4(fp)
  80022c:	188000a0 	cmpeqi	r2,r3,2
  800230:	1000161e 	bne	r2,zero,80028c <Chap9_GetStatus+0xb8>
  800234:	e0ffff17 	ldw	r3,-4(fp)
  800238:	1805003a 	cmpeq	r2,r3,zero
  80023c:	1000011e 	bne	r2,zero,800244 <Chap9_GetStatus+0x70>
  800240:	00003006 	br	800304 <Chap9_GetStatus+0x130>
            {
            case USB_RECIPIENT_DEVICE:
                    if(bD13flags.bits.remote_wakeup == 1)
  800244:	00802074 	movhi	r2,129
  800248:	109c5b04 	addi	r2,r2,29036
  80024c:	10800017 	ldw	r2,0(r2)
  800250:	1080040c 	andi	r2,r2,16
  800254:	1005003a 	cmpeq	r2,r2,zero
  800258:	1000031e 	bne	r2,zero,800268 <Chap9_GetStatus+0x94>
                        txdat[0] = DEVSTS_SELFPOWERED|DEVSTS_REMOTEWAKEUP;   /* remote wakeup and Self-powered */
  80025c:	008000c4 	movi	r2,3
  800260:	e0bffcc5 	stb	r2,-13(fp)
  800264:	00000206 	br	800270 <Chap9_GetStatus+0x9c>
                    else
                        txdat[0] = DEVSTS_SELFPOWERED;   /* Self-powered*/
  800268:	00800044 	movi	r2,1
  80026c:	e0bffcc5 	stb	r2,-13(fp)
                    txdat[1]=0;
  800270:	e03ffd05 	stb	zero,-12(fp)

                    Chap9_SingleTransmitEP0(txdat, 2);
  800274:	e13ffcc4 	addi	r4,fp,-13
  800278:	01400084 	movi	r5,2
  80027c:	080136c0 	call	80136c <Chap9_SingleTransmitEP0>
                    break;
  800280:	00007306 	br	800450 <Chap9_GetStatus+0x27c>

            case USB_RECIPIENT_INTERFACE:

                    Chap9_StallEP0InControlRead();
  800284:	08013080 	call	801308 <Chap9_StallEP0InControlRead>
                    break;
  800288:	00007106 	br	800450 <Chap9_GetStatus+0x27c>

            case USB_RECIPIENT_ENDPOINT:

                    if( ControlData.DeviceRequest.wIndex == 0x00 )
  80028c:	00802074 	movhi	r2,129
  800290:	109c7d04 	addi	r2,r2,29172
  800294:	1080018b 	ldhu	r2,6(r2)
  800298:	10bfffcc 	andi	r2,r2,65535
  80029c:	1004c03a 	cmpne	r2,r2,zero
  8002a0:	1000161e 	bne	r2,zero,8002fc <Chap9_GetStatus+0x128>
                    {
                        endp = -1;
  8002a4:	00bfffc4 	movi	r2,-1
  8002a8:	e0bffc85 	stb	r2,-14(fp)
                        c = Hal4D13_GetEndpointStatusWOInteruptClear(endp + 1);
  8002ac:	e0bffc83 	ldbu	r2,-14(fp)
  8002b0:	10800044 	addi	r2,r2,1
  8002b4:	11003fcc 	andi	r4,r2,255
  8002b8:	080254c0 	call	80254c <Hal4D13_GetEndpointStatusWOInteruptClear>
  8002bc:	e0bffc45 	stb	r2,-15(fp)
                        if(c & D13REG_EPSTS_STALL)
  8002c0:	e0bffc43 	ldbu	r2,-15(fp)
  8002c4:	10803fcc 	andi	r2,r2,255
  8002c8:	1080201c 	xori	r2,r2,128
  8002cc:	10bfe004 	addi	r2,r2,-128
  8002d0:	1004403a 	cmpge	r2,r2,zero
  8002d4:	1000031e 	bne	r2,zero,8002e4 <Chap9_GetStatus+0x110>
                            txdat[0] = ENDPSTS_HALT;   /* Halt */
  8002d8:	00800044 	movi	r2,1
  8002dc:	e0bffcc5 	stb	r2,-13(fp)
  8002e0:	00000106 	br	8002e8 <Chap9_GetStatus+0x114>
                        else
                            txdat[0] = 0;
  8002e4:	e03ffcc5 	stb	zero,-13(fp)

                        txdat[1] = 0;
  8002e8:	e03ffd05 	stb	zero,-12(fp)

                        Chap9_SingleTransmitEP0(txdat, 2);
  8002ec:	e13ffcc4 	addi	r4,fp,-13
  8002f0:	01400084 	movi	r5,2
  8002f4:	080136c0 	call	80136c <Chap9_SingleTransmitEP0>
  8002f8:	00005506 	br	800450 <Chap9_GetStatus+0x27c>
                    }
                    else
                        Chap9_StallEP0InControlRead();
  8002fc:	08013080 	call	801308 <Chap9_StallEP0InControlRead>

                    break;
  800300:	00005306 	br	800450 <Chap9_GetStatus+0x27c>

            default:
                    Chap9_StallEP0InControlRead();
  800304:	08013080 	call	801308 <Chap9_StallEP0InControlRead>
  800308:	00005106 	br	800450 <Chap9_GetStatus+0x27c>
    }


    else
    {
        if(ControlData.DeviceRequest.wValue == 0 && ControlData.DeviceRequest.wLength == 2 )
  80030c:	00802074 	movhi	r2,129
  800310:	109c7d04 	addi	r2,r2,29172
  800314:	1080010b 	ldhu	r2,4(r2)
  800318:	10bfffcc 	andi	r2,r2,65535
  80031c:	1004c03a 	cmpne	r2,r2,zero
  800320:	10004b1e 	bne	r2,zero,800450 <Chap9_GetStatus+0x27c>
  800324:	00802074 	movhi	r2,129
  800328:	109c7d04 	addi	r2,r2,29172
  80032c:	1080020b 	ldhu	r2,8(r2)
  800330:	10bfffcc 	andi	r2,r2,65535
  800334:	10800098 	cmpnei	r2,r2,2
  800338:	1000451e 	bne	r2,zero,800450 <Chap9_GetStatus+0x27c>
        {
            switch(bRecipient)
  80033c:	e0bffc03 	ldbu	r2,-16(fp)
  800340:	e0bffe15 	stw	r2,-8(fp)
  800344:	e0fffe17 	ldw	r3,-8(fp)
  800348:	18800060 	cmpeqi	r2,r3,1
  80034c:	1000171e 	bne	r2,zero,8003ac <Chap9_GetStatus+0x1d8>
  800350:	e0fffe17 	ldw	r3,-8(fp)
  800354:	188000a0 	cmpeqi	r2,r3,2
  800358:	10001a1e 	bne	r2,zero,8003c4 <Chap9_GetStatus+0x1f0>
  80035c:	e0fffe17 	ldw	r3,-8(fp)
  800360:	1805003a 	cmpeq	r2,r3,zero
  800364:	1000011e 	bne	r2,zero,80036c <Chap9_GetStatus+0x198>
  800368:	00003806 	br	80044c <Chap9_GetStatus+0x278>
            {
            case USB_RECIPIENT_DEVICE:
                    if(bD13flags.bits.remote_wakeup == 1)
  80036c:	00802074 	movhi	r2,129
  800370:	109c5b04 	addi	r2,r2,29036
  800374:	10800017 	ldw	r2,0(r2)
  800378:	1080040c 	andi	r2,r2,16
  80037c:	1005003a 	cmpeq	r2,r2,zero
  800380:	1000031e 	bne	r2,zero,800390 <Chap9_GetStatus+0x1bc>
                        txdat[0] = DEVSTS_SELFPOWERED|DEVSTS_REMOTEWAKEUP;   /* remote wakeup and Self-powered */
  800384:	008000c4 	movi	r2,3
  800388:	e0bffcc5 	stb	r2,-13(fp)
  80038c:	00000206 	br	800398 <Chap9_GetStatus+0x1c4>
                    else
                        txdat[0] = DEVSTS_SELFPOWERED;   /* Self-powered*/
  800390:	00800044 	movi	r2,1
  800394:	e0bffcc5 	stb	r2,-13(fp)
                    txdat[1]=0;
  800398:	e03ffd05 	stb	zero,-12(fp)

                    Chap9_SingleTransmitEP0(txdat, 2);
  80039c:	e13ffcc4 	addi	r4,fp,-13
  8003a0:	01400084 	movi	r5,2
  8003a4:	080136c0 	call	80136c <Chap9_SingleTransmitEP0>
                    break;
  8003a8:	00002906 	br	800450 <Chap9_GetStatus+0x27c>

            case USB_RECIPIENT_INTERFACE:
                    txdat[0]=0;
  8003ac:	e03ffcc5 	stb	zero,-13(fp)
                    txdat[1]=0;
  8003b0:	e03ffd05 	stb	zero,-12(fp)

                    Chap9_SingleTransmitEP0(txdat, 2);
  8003b4:	e13ffcc4 	addi	r4,fp,-13
  8003b8:	01400084 	movi	r5,2
  8003bc:	080136c0 	call	80136c <Chap9_SingleTransmitEP0>
                    break;
  8003c0:	00002306 	br	800450 <Chap9_GetStatus+0x27c>

            case USB_RECIPIENT_ENDPOINT:

                    if( ControlData.DeviceRequest.wIndex == 0x00 )
  8003c4:	00802074 	movhi	r2,129
  8003c8:	109c7d04 	addi	r2,r2,29172
  8003cc:	1080018b 	ldhu	r2,6(r2)
  8003d0:	10bfffcc 	andi	r2,r2,65535
  8003d4:	1004c03a 	cmpne	r2,r2,zero
  8003d8:	1000031e 	bne	r2,zero,8003e8 <Chap9_GetStatus+0x214>
                        endp = -1;
  8003dc:	00bfffc4 	movi	r2,-1
  8003e0:	e0bffc85 	stb	r2,-14(fp)
  8003e4:	00000506 	br	8003fc <Chap9_GetStatus+0x228>
                    else
                        endp = (UCHAR)(ControlData.DeviceRequest.wIndex & MAX_ENDPOINTS);
  8003e8:	00802074 	movhi	r2,129
  8003ec:	109c7d04 	addi	r2,r2,29172
  8003f0:	1080018b 	ldhu	r2,6(r2)
  8003f4:	108003cc 	andi	r2,r2,15
  8003f8:	e0bffc85 	stb	r2,-14(fp)

                    c = Hal4D13_GetEndpointStatusWOInteruptClear(endp + 1);
  8003fc:	e0bffc83 	ldbu	r2,-14(fp)
  800400:	10800044 	addi	r2,r2,1
  800404:	11003fcc 	andi	r4,r2,255
  800408:	080254c0 	call	80254c <Hal4D13_GetEndpointStatusWOInteruptClear>
  80040c:	e0bffc45 	stb	r2,-15(fp)
                    if(c & D13REG_EPSTS_STALL)
  800410:	e0bffc43 	ldbu	r2,-15(fp)
  800414:	10803fcc 	andi	r2,r2,255
  800418:	1080201c 	xori	r2,r2,128
  80041c:	10bfe004 	addi	r2,r2,-128
  800420:	1004403a 	cmpge	r2,r2,zero
  800424:	1000031e 	bne	r2,zero,800434 <Chap9_GetStatus+0x260>
                        txdat[0] = ENDPSTS_HALT;   /* Halt */
  800428:	00800044 	movi	r2,1
  80042c:	e0bffcc5 	stb	r2,-13(fp)
  800430:	00000106 	br	800438 <Chap9_GetStatus+0x264>
                    else
                        txdat[0] = 0;
  800434:	e03ffcc5 	stb	zero,-13(fp)

                    txdat[1] = 0;
  800438:	e03ffd05 	stb	zero,-12(fp)

                    Chap9_SingleTransmitEP0(txdat, 2);
  80043c:	e13ffcc4 	addi	r4,fp,-13
  800440:	01400084 	movi	r5,2
  800444:	080136c0 	call	80136c <Chap9_SingleTransmitEP0>
                    break;
  800448:	00000106 	br	800450 <Chap9_GetStatus+0x27c>

            default:
                    Chap9_StallEP0InControlRead();
  80044c:	08013080 	call	801308 <Chap9_StallEP0InControlRead>
                    break;
            }
        }
    }

}
  800450:	e037883a 	mov	sp,fp
  800454:	dfc00117 	ldw	ra,4(sp)
  800458:	df000017 	ldw	fp,0(sp)
  80045c:	dec00204 	addi	sp,sp,8
  800460:	f800283a 	ret

00800464 <Chap9_ClearFeature>:

void Chap9_ClearFeature(void)
{
  800464:	defffb04 	addi	sp,sp,-20
  800468:	dfc00415 	stw	ra,16(sp)
  80046c:	df000315 	stw	fp,12(sp)
  800470:	df000304 	addi	fp,sp,12
    UCHAR   endp;
    UCHAR   bRecipient = ControlData.DeviceRequest.bmRequestType & USB_RECIPIENT;
  800474:	00802074 	movhi	r2,129
  800478:	109c7d04 	addi	r2,r2,29172
  80047c:	10800083 	ldbu	r2,2(r2)
  800480:	108007cc 	andi	r2,r2,31
  800484:	e0bffd85 	stb	r2,-10(fp)
    USHORT  wFeature = ControlData.DeviceRequest.wValue;
  800488:	00802074 	movhi	r2,129
  80048c:	109c7d04 	addi	r2,r2,29172
  800490:	1080010b 	ldhu	r2,4(r2)
  800494:	e0bffd0d 	sth	r2,-12(fp)

    if(bUSBCheck_Device_State.State_bits.DEVICE_ADDRESS_STATE)
  800498:	00802074 	movhi	r2,129
  80049c:	109c6404 	addi	r2,r2,29072
  8004a0:	10800003 	ldbu	r2,0(r2)
  8004a4:	1080008c 	andi	r2,r2,2
  8004a8:	10803fcc 	andi	r2,r2,255
  8004ac:	1005003a 	cmpeq	r2,r2,zero
  8004b0:	1000351e 	bne	r2,zero,800588 <Chap9_ClearFeature+0x124>
    {
        if( ControlData.DeviceRequest.wLength == 0 )
  8004b4:	00802074 	movhi	r2,129
  8004b8:	109c7d04 	addi	r2,r2,29172
  8004bc:	1080020b 	ldhu	r2,8(r2)
  8004c0:	10bfffcc 	andi	r2,r2,65535
  8004c4:	1004c03a 	cmpne	r2,r2,zero
  8004c8:	10006f1e 	bne	r2,zero,800688 <Chap9_ClearFeature+0x224>
        {
            switch(bRecipient)
  8004cc:	e0bffd83 	ldbu	r2,-10(fp)
  8004d0:	e0bfff15 	stw	r2,-4(fp)
  8004d4:	e0ffff17 	ldw	r3,-4(fp)
  8004d8:	1805003a 	cmpeq	r2,r3,zero
  8004dc:	1000041e 	bne	r2,zero,8004f0 <Chap9_ClearFeature+0x8c>
  8004e0:	e0ffff17 	ldw	r3,-4(fp)
  8004e4:	188000a0 	cmpeqi	r2,r3,2
  8004e8:	1000101e 	bne	r2,zero,80052c <Chap9_ClearFeature+0xc8>
  8004ec:	00002406 	br	800580 <Chap9_ClearFeature+0x11c>
            {
            case USB_RECIPIENT_DEVICE:
                        if(wFeature == USB_FEATURE_REMOTE_WAKEUP)
  8004f0:	e0bffd0b 	ldhu	r2,-12(fp)
  8004f4:	10800058 	cmpnei	r2,r2,1
  8004f8:	10000a1e 	bne	r2,zero,800524 <Chap9_ClearFeature+0xc0>
                        {
                        bD13flags.bits.remote_wakeup = 0;
  8004fc:	01002074 	movhi	r4,129
  800500:	211c5b04 	addi	r4,r4,29036
  800504:	20c00017 	ldw	r3,0(r4)
  800508:	00bffbc4 	movi	r2,-17
  80050c:	1884703a 	and	r2,r3,r2
  800510:	20800015 	stw	r2,0(r4)
                        Chap9_SingleTransmitEP0(0, 0);
  800514:	0009883a 	mov	r4,zero
  800518:	000b883a 	mov	r5,zero
  80051c:	080136c0 	call	80136c <Chap9_SingleTransmitEP0>
  800520:	00005906 	br	800688 <Chap9_ClearFeature+0x224>
                        }
                        else
                            Chap9_StallEP0InControlWrite();
  800524:	08012a40 	call	8012a4 <Chap9_StallEP0InControlWrite>

                        break;
  800528:	00005706 	br	800688 <Chap9_ClearFeature+0x224>



            case USB_RECIPIENT_ENDPOINT:

                        if(wFeature == USB_FEATURE_ENDPOINT_STALL)
  80052c:	e0bffd0b 	ldhu	r2,-12(fp)
  800530:	1004c03a 	cmpne	r2,r2,zero
  800534:	1000101e 	bne	r2,zero,800578 <Chap9_ClearFeature+0x114>
                        {
                            if( ControlData.DeviceRequest.wIndex == 0x00 )
  800538:	00802074 	movhi	r2,129
  80053c:	109c7d04 	addi	r2,r2,29172
  800540:	1080018b 	ldhu	r2,6(r2)
  800544:	10bfffcc 	andi	r2,r2,65535
  800548:	1004c03a 	cmpne	r2,r2,zero
  80054c:	1000081e 	bne	r2,zero,800570 <Chap9_ClearFeature+0x10c>
                            {
                                endp = 0;
  800550:	e03ffdc5 	stb	zero,-9(fp)
                                Hal4D13_SetEndpointStatus(endp, 0);
  800554:	e13ffdc3 	ldbu	r4,-9(fp)
  800558:	000b883a 	mov	r5,zero
  80055c:	08025a00 	call	8025a0 <Hal4D13_SetEndpointStatus>

                                Chap9_SingleTransmitEP0(0, 0);
  800560:	0009883a 	mov	r4,zero
  800564:	000b883a 	mov	r5,zero
  800568:	080136c0 	call	80136c <Chap9_SingleTransmitEP0>
  80056c:	00004606 	br	800688 <Chap9_ClearFeature+0x224>
                            }
                            else
                            {
                                Chap9_StallEP0InControlWrite();
  800570:	08012a40 	call	8012a4 <Chap9_StallEP0InControlWrite>
                                break;
  800574:	00004406 	br	800688 <Chap9_ClearFeature+0x224>
                            }

                        }

                        else
                            Chap9_StallEP0InControlWrite();
  800578:	08012a40 	call	8012a4 <Chap9_StallEP0InControlWrite>

                        break;
  80057c:	00004206 	br	800688 <Chap9_ClearFeature+0x224>


            default:
                        Chap9_StallEP0InControlWrite();
  800580:	08012a40 	call	8012a4 <Chap9_StallEP0InControlWrite>
  800584:	00004006 	br	800688 <Chap9_ClearFeature+0x224>
    }

    else
    {

        if( ControlData.DeviceRequest.wLength == 0 )
  800588:	00802074 	movhi	r2,129
  80058c:	109c7d04 	addi	r2,r2,29172
  800590:	1080020b 	ldhu	r2,8(r2)
  800594:	10bfffcc 	andi	r2,r2,65535
  800598:	1004c03a 	cmpne	r2,r2,zero
  80059c:	10003a1e 	bne	r2,zero,800688 <Chap9_ClearFeature+0x224>
        {
            switch(bRecipient)
  8005a0:	e0bffd83 	ldbu	r2,-10(fp)
  8005a4:	e0bffe15 	stw	r2,-8(fp)
  8005a8:	e0fffe17 	ldw	r3,-8(fp)
  8005ac:	1805003a 	cmpeq	r2,r3,zero
  8005b0:	1000041e 	bne	r2,zero,8005c4 <Chap9_ClearFeature+0x160>
  8005b4:	e0fffe17 	ldw	r3,-8(fp)
  8005b8:	188000a0 	cmpeqi	r2,r3,2
  8005bc:	1000101e 	bne	r2,zero,800600 <Chap9_ClearFeature+0x19c>
  8005c0:	00003006 	br	800684 <Chap9_ClearFeature+0x220>
            {
            case USB_RECIPIENT_DEVICE:
                if(wFeature == USB_FEATURE_REMOTE_WAKEUP)
  8005c4:	e0bffd0b 	ldhu	r2,-12(fp)
  8005c8:	10800058 	cmpnei	r2,r2,1
  8005cc:	10000a1e 	bne	r2,zero,8005f8 <Chap9_ClearFeature+0x194>
                {
                    bD13flags.bits.remote_wakeup = 0;
  8005d0:	01002074 	movhi	r4,129
  8005d4:	211c5b04 	addi	r4,r4,29036
  8005d8:	20c00017 	ldw	r3,0(r4)
  8005dc:	00bffbc4 	movi	r2,-17
  8005e0:	1884703a 	and	r2,r3,r2
  8005e4:	20800015 	stw	r2,0(r4)
                    Chap9_SingleTransmitEP0(0, 0);
  8005e8:	0009883a 	mov	r4,zero
  8005ec:	000b883a 	mov	r5,zero
  8005f0:	080136c0 	call	80136c <Chap9_SingleTransmitEP0>
  8005f4:	00002406 	br	800688 <Chap9_ClearFeature+0x224>
                }
                else
                {
                    Chap9_StallEP0InControlWrite();
  8005f8:	08012a40 	call	8012a4 <Chap9_StallEP0InControlWrite>
                }

                break;
  8005fc:	00002206 	br	800688 <Chap9_ClearFeature+0x224>

                case USB_RECIPIENT_ENDPOINT:

                if(wFeature == USB_FEATURE_ENDPOINT_STALL)
  800600:	e0bffd0b 	ldhu	r2,-12(fp)
  800604:	1004c03a 	cmpne	r2,r2,zero
  800608:	10001c1e 	bne	r2,zero,80067c <Chap9_ClearFeature+0x218>
                {
                    if( ControlData.DeviceRequest.wIndex == 0x00 )
  80060c:	00802074 	movhi	r2,129
  800610:	109c7d04 	addi	r2,r2,29172
  800614:	1080018b 	ldhu	r2,6(r2)
  800618:	10bfffcc 	andi	r2,r2,65535
  80061c:	1004c03a 	cmpne	r2,r2,zero
  800620:	1000031e 	bne	r2,zero,800630 <Chap9_ClearFeature+0x1cc>
                            endp = -1;
  800624:	00bfffc4 	movi	r2,-1
  800628:	e0bffdc5 	stb	r2,-9(fp)
  80062c:	00000506 	br	800644 <Chap9_ClearFeature+0x1e0>
                    else
                        endp = (UCHAR)(ControlData.DeviceRequest.wIndex & MAX_ENDPOINTS);
  800630:	00802074 	movhi	r2,129
  800634:	109c7d04 	addi	r2,r2,29172
  800638:	1080018b 	ldhu	r2,6(r2)
  80063c:	108003cc 	andi	r2,r2,15
  800640:	e0bffdc5 	stb	r2,-9(fp)

                    Hal4D13_SetEndpointStatus(endp+1, 0);
  800644:	e0bffdc3 	ldbu	r2,-9(fp)
  800648:	10800044 	addi	r2,r2,1
  80064c:	11003fcc 	andi	r4,r2,255
  800650:	000b883a 	mov	r5,zero
  800654:	08025a00 	call	8025a0 <Hal4D13_SetEndpointStatus>
                    Hal4D13_SetEndpointStatus(endp+1, 0);
  800658:	e0bffdc3 	ldbu	r2,-9(fp)
  80065c:	10800044 	addi	r2,r2,1
  800660:	11003fcc 	andi	r4,r2,255
  800664:	000b883a 	mov	r5,zero
  800668:	08025a00 	call	8025a0 <Hal4D13_SetEndpointStatus>

                    Chap9_SingleTransmitEP0(0, 0);
  80066c:	0009883a 	mov	r4,zero
  800670:	000b883a 	mov	r5,zero
  800674:	080136c0 	call	80136c <Chap9_SingleTransmitEP0>
  800678:	00000306 	br	800688 <Chap9_ClearFeature+0x224>
                }
                else
                {
                    Chap9_StallEP0InControlWrite();
  80067c:	08012a40 	call	8012a4 <Chap9_StallEP0InControlWrite>
                }
                break;
  800680:	00000106 	br	800688 <Chap9_ClearFeature+0x224>

            default:
                    Chap9_StallEP0InControlWrite();
  800684:	08012a40 	call	8012a4 <Chap9_StallEP0InControlWrite>
                    break;
            }
      }
    }

}
  800688:	e037883a 	mov	sp,fp
  80068c:	dfc00117 	ldw	ra,4(sp)
  800690:	df000017 	ldw	fp,0(sp)
  800694:	dec00204 	addi	sp,sp,8
  800698:	f800283a 	ret

0080069c <Chap9_SetFeature>:

void Chap9_SetFeature(void)
{
  80069c:	defffb04 	addi	sp,sp,-20
  8006a0:	dfc00415 	stw	ra,16(sp)
  8006a4:	df000315 	stw	fp,12(sp)
  8006a8:	df000304 	addi	fp,sp,12
  UCHAR   endp = 0;
  8006ac:	e03ffdc5 	stb	zero,-9(fp)
    UCHAR   bRecipient = ControlData.DeviceRequest.bmRequestType & USB_RECIPIENT;
  8006b0:	00802074 	movhi	r2,129
  8006b4:	109c7d04 	addi	r2,r2,29172
  8006b8:	10800083 	ldbu	r2,2(r2)
  8006bc:	108007cc 	andi	r2,r2,31
  8006c0:	e0bffd85 	stb	r2,-10(fp)
    USHORT  wFeature = ControlData.DeviceRequest.wValue;
  8006c4:	00802074 	movhi	r2,129
  8006c8:	109c7d04 	addi	r2,r2,29172
  8006cc:	1080010b 	ldhu	r2,4(r2)
  8006d0:	e0bffd0d 	sth	r2,-12(fp)
  

    if(bUSBCheck_Device_State.State_bits.DEVICE_ADDRESS_STATE)
  8006d4:	00802074 	movhi	r2,129
  8006d8:	109c6404 	addi	r2,r2,29072
  8006dc:	10800003 	ldbu	r2,0(r2)
  8006e0:	1080008c 	andi	r2,r2,2
  8006e4:	10803fcc 	andi	r2,r2,255
  8006e8:	1005003a 	cmpeq	r2,r2,zero
  8006ec:	10002f1e 	bne	r2,zero,8007ac <Chap9_SetFeature+0x110>
    {
        switch(bRecipient)
  8006f0:	e0bffd83 	ldbu	r2,-10(fp)
  8006f4:	e0bfff15 	stw	r2,-4(fp)
  8006f8:	e0ffff17 	ldw	r3,-4(fp)
  8006fc:	1805003a 	cmpeq	r2,r3,zero
  800700:	1000041e 	bne	r2,zero,800714 <Chap9_SetFeature+0x78>
  800704:	e0ffff17 	ldw	r3,-4(fp)
  800708:	188000a0 	cmpeqi	r2,r3,2
  80070c:	10000f1e 	bne	r2,zero,80074c <Chap9_SetFeature+0xb0>
  800710:	00002406 	br	8007a4 <Chap9_SetFeature+0x108>
        {
        case USB_RECIPIENT_DEVICE:
            if(wFeature == USB_FEATURE_REMOTE_WAKEUP)
  800714:	e0bffd0b 	ldhu	r2,-12(fp)
  800718:	10800058 	cmpnei	r2,r2,1
  80071c:	1000091e 	bne	r2,zero,800744 <Chap9_SetFeature+0xa8>
            {
                bD13flags.bits.remote_wakeup = 1;
  800720:	00802074 	movhi	r2,129
  800724:	109c5b04 	addi	r2,r2,29036
  800728:	10c00017 	ldw	r3,0(r2)
  80072c:	18c00414 	ori	r3,r3,16
  800730:	10c00015 	stw	r3,0(r2)
                Chap9_SingleTransmitEP0(0, 0);
  800734:	0009883a 	mov	r4,zero
  800738:	000b883a 	mov	r5,zero
  80073c:	080136c0 	call	80136c <Chap9_SingleTransmitEP0>
  800740:	00005b06 	br	8008b0 <Chap9_SetFeature+0x214>
            }
            else
            {
                Chap9_StallEP0InControlWrite();
  800744:	08012a40 	call	8012a4 <Chap9_StallEP0InControlWrite>
            }
            break;
  800748:	00005906 	br	8008b0 <Chap9_SetFeature+0x214>

        case USB_RECIPIENT_ENDPOINT:
            if( wFeature == USB_FEATURE_ENDPOINT_STALL)
  80074c:	e0bffd0b 	ldhu	r2,-12(fp)
  800750:	1004c03a 	cmpne	r2,r2,zero
  800754:	1000111e 	bne	r2,zero,80079c <Chap9_SetFeature+0x100>
            {
                if( ControlData.DeviceRequest.wIndex == 0x00 )
  800758:	00802074 	movhi	r2,129
  80075c:	109c7d04 	addi	r2,r2,29172
  800760:	1080018b 	ldhu	r2,6(r2)
  800764:	10bfffcc 	andi	r2,r2,65535
  800768:	1004c03a 	cmpne	r2,r2,zero
  80076c:	1000021e 	bne	r2,zero,800778 <Chap9_SetFeature+0xdc>
                    endp = -1;
  800770:	00bfffc4 	movi	r2,-1
  800774:	e0bffdc5 	stb	r2,-9(fp)

                Hal4D13_SetEndpointStatus(endp+1, D13REG_EPSTS_STALL);
  800778:	e0bffdc3 	ldbu	r2,-9(fp)
  80077c:	10800044 	addi	r2,r2,1
  800780:	11003fcc 	andi	r4,r2,255
  800784:	01402004 	movi	r5,128
  800788:	08025a00 	call	8025a0 <Hal4D13_SetEndpointStatus>
                Chap9_SingleTransmitEP0(0, 0);
  80078c:	0009883a 	mov	r4,zero
  800790:	000b883a 	mov	r5,zero
  800794:	080136c0 	call	80136c <Chap9_SingleTransmitEP0>
  800798:	00004506 	br	8008b0 <Chap9_SetFeature+0x214>

            }
            else
                Chap9_StallEP0InControlWrite();
  80079c:	08012a40 	call	8012a4 <Chap9_StallEP0InControlWrite>

            break;
  8007a0:	00004306 	br	8008b0 <Chap9_SetFeature+0x214>
        default:
            Chap9_StallEP0InControlWrite();
  8007a4:	08012a40 	call	8012a4 <Chap9_StallEP0InControlWrite>
  8007a8:	00004106 	br	8008b0 <Chap9_SetFeature+0x214>
    }


    else
    {
        if( ControlData.DeviceRequest.wLength == 0 )
  8007ac:	00802074 	movhi	r2,129
  8007b0:	109c7d04 	addi	r2,r2,29172
  8007b4:	1080020b 	ldhu	r2,8(r2)
  8007b8:	10bfffcc 	andi	r2,r2,65535
  8007bc:	1004c03a 	cmpne	r2,r2,zero
  8007c0:	10003b1e 	bne	r2,zero,8008b0 <Chap9_SetFeature+0x214>
        {
            switch(bRecipient)
  8007c4:	e0bffd83 	ldbu	r2,-10(fp)
  8007c8:	e0bffe15 	stw	r2,-8(fp)
  8007cc:	e0fffe17 	ldw	r3,-8(fp)
  8007d0:	1805003a 	cmpeq	r2,r3,zero
  8007d4:	1000041e 	bne	r2,zero,8007e8 <Chap9_SetFeature+0x14c>
  8007d8:	e0fffe17 	ldw	r3,-8(fp)
  8007dc:	188000a0 	cmpeqi	r2,r3,2
  8007e0:	10000f1e 	bne	r2,zero,800820 <Chap9_SetFeature+0x184>
  8007e4:	00003106 	br	8008ac <Chap9_SetFeature+0x210>
            {
            case USB_RECIPIENT_DEVICE:
                if(wFeature == USB_FEATURE_REMOTE_WAKEUP)
  8007e8:	e0bffd0b 	ldhu	r2,-12(fp)
  8007ec:	10800058 	cmpnei	r2,r2,1
  8007f0:	1000091e 	bne	r2,zero,800818 <Chap9_SetFeature+0x17c>
                {
                    bD13flags.bits.remote_wakeup = 1;
  8007f4:	00802074 	movhi	r2,129
  8007f8:	109c5b04 	addi	r2,r2,29036
  8007fc:	10c00017 	ldw	r3,0(r2)
  800800:	18c00414 	ori	r3,r3,16
  800804:	10c00015 	stw	r3,0(r2)
                    Chap9_SingleTransmitEP0(0, 0);
  800808:	0009883a 	mov	r4,zero
  80080c:	000b883a 	mov	r5,zero
  800810:	080136c0 	call	80136c <Chap9_SingleTransmitEP0>
  800814:	00002606 	br	8008b0 <Chap9_SetFeature+0x214>
                }
                else
                {
                    Chap9_StallEP0InControlWrite();
  800818:	08012a40 	call	8012a4 <Chap9_StallEP0InControlWrite>
                }
                break;
  80081c:	00002406 	br	8008b0 <Chap9_SetFeature+0x214>
            case USB_RECIPIENT_ENDPOINT:
                if( wFeature == USB_FEATURE_ENDPOINT_STALL)
  800820:	e0bffd0b 	ldhu	r2,-12(fp)
  800824:	1004c03a 	cmpne	r2,r2,zero
  800828:	1000171e 	bne	r2,zero,800888 <Chap9_SetFeature+0x1ec>
                {
                    if( ControlData.DeviceRequest.wIndex == 0x00 )
  80082c:	00802074 	movhi	r2,129
  800830:	109c7d04 	addi	r2,r2,29172
  800834:	1080018b 	ldhu	r2,6(r2)
  800838:	10bfffcc 	andi	r2,r2,65535
  80083c:	1004c03a 	cmpne	r2,r2,zero
  800840:	1000031e 	bne	r2,zero,800850 <Chap9_SetFeature+0x1b4>
                        endp = -1;
  800844:	00bfffc4 	movi	r2,-1
  800848:	e0bffdc5 	stb	r2,-9(fp)
  80084c:	00000506 	br	800864 <Chap9_SetFeature+0x1c8>
                    else
                        endp = (UCHAR)(ControlData.DeviceRequest.wIndex & MAX_ENDPOINTS);
  800850:	00802074 	movhi	r2,129
  800854:	109c7d04 	addi	r2,r2,29172
  800858:	1080018b 	ldhu	r2,6(r2)
  80085c:	108003cc 	andi	r2,r2,15
  800860:	e0bffdc5 	stb	r2,-9(fp)

                    Hal4D13_SetEndpointStatus(endp+1, D13REG_EPSTS_STALL);
  800864:	e0bffdc3 	ldbu	r2,-9(fp)
  800868:	10800044 	addi	r2,r2,1
  80086c:	11003fcc 	andi	r4,r2,255
  800870:	01402004 	movi	r5,128
  800874:	08025a00 	call	8025a0 <Hal4D13_SetEndpointStatus>

                    Chap9_SingleTransmitEP0(0, 0);
  800878:	0009883a 	mov	r4,zero
  80087c:	000b883a 	mov	r5,zero
  800880:	080136c0 	call	80136c <Chap9_SingleTransmitEP0>
  800884:	00000a06 	br	8008b0 <Chap9_SetFeature+0x214>

                }
                else
                {
                    Hal4D13_SetEndpointStatus(endp+1, 0);
  800888:	e0bffdc3 	ldbu	r2,-9(fp)
  80088c:	10800044 	addi	r2,r2,1
  800890:	11003fcc 	andi	r4,r2,255
  800894:	000b883a 	mov	r5,zero
  800898:	08025a00 	call	8025a0 <Hal4D13_SetEndpointStatus>
                    Chap9_SingleTransmitEP0(0, 0);
  80089c:	0009883a 	mov	r4,zero
  8008a0:	000b883a 	mov	r5,zero
  8008a4:	080136c0 	call	80136c <Chap9_SingleTransmitEP0>
                }
                break;
  8008a8:	00000106 	br	8008b0 <Chap9_SetFeature+0x214>
            default:
                Chap9_StallEP0InControlWrite();
  8008ac:	08012a40 	call	8012a4 <Chap9_StallEP0InControlWrite>
        }
    }



}
  8008b0:	e037883a 	mov	sp,fp
  8008b4:	dfc00117 	ldw	ra,4(sp)
  8008b8:	df000017 	ldw	fp,0(sp)
  8008bc:	dec00204 	addi	sp,sp,8
  8008c0:	f800283a 	ret

008008c4 <Chap9_SetAddress>:

void Chap9_SetAddress(void)
{
  8008c4:	defffd04 	addi	sp,sp,-12
  8008c8:	dfc00215 	stw	ra,8(sp)
  8008cc:	df000115 	stw	fp,4(sp)
  8008d0:	df000104 	addi	fp,sp,4

    UCHAR   j;

    {
        disable_irq();
  8008d4:	08055a80 	call	8055a8 <disable_irq>
        if(!ControlData.Abort)
  8008d8:	00802074 	movhi	r2,129
  8008dc:	109c7d04 	addi	r2,r2,29172
  8008e0:	10800003 	ldbu	r2,0(r2)
  8008e4:	10803fcc 	andi	r2,r2,255
  8008e8:	1004c03a 	cmpne	r2,r2,zero
  8008ec:	1000791e 	bne	r2,zero,800ad4 <Chap9_SetAddress+0x210>
        {
            if(bUSBCheck_Device_State.State_bits.DEVICE_DEFAULT_STATE)
  8008f0:	00802074 	movhi	r2,129
  8008f4:	109c6404 	addi	r2,r2,29072
  8008f8:	10800003 	ldbu	r2,0(r2)
  8008fc:	1080004c 	andi	r2,r2,1
  800900:	10803fcc 	andi	r2,r2,255
  800904:	1005003a 	cmpeq	r2,r2,zero
  800908:	1000231e 	bne	r2,zero,800998 <Chap9_SetAddress+0xd4>
            {
                if((ControlData.DeviceRequest.wValue & DEVICE_ADDRESS_MASK) != 0 )
  80090c:	00802074 	movhi	r2,129
  800910:	109c7d04 	addi	r2,r2,29172
  800914:	1080010b 	ldhu	r2,4(r2)
  800918:	10bfffcc 	andi	r2,r2,65535
  80091c:	10801fcc 	andi	r2,r2,127
  800920:	1005003a 	cmpeq	r2,r2,zero
  800924:	1000161e 	bne	r2,zero,800980 <Chap9_SetAddress+0xbc>
                {
                    bUSBCheck_Device_State.State_bits.DEVICE_DEFAULT_STATE = 0;
  800928:	01002074 	movhi	r4,129
  80092c:	211c6404 	addi	r4,r4,29072
  800930:	20c00003 	ldbu	r3,0(r4)
  800934:	00bfff84 	movi	r2,-2
  800938:	1884703a 	and	r2,r3,r2
  80093c:	20800005 	stb	r2,0(r4)
                    Hal4D13_SetAddressEnable((UCHAR)(ControlData.DeviceRequest.wValue &
  800940:	00802074 	movhi	r2,129
  800944:	109c7d04 	addi	r2,r2,29172
  800948:	1080010b 	ldhu	r2,4(r2)
  80094c:	10803fcc 	andi	r2,r2,255
  800950:	11001fcc 	andi	r4,r2,127
  800954:	01400044 	movi	r5,1
  800958:	0801d140 	call	801d14 <Hal4D13_SetAddressEnable>
                                            DEVICE_ADDRESS_MASK), 1);
                    bUSBCheck_Device_State.State_bits.DEVICE_ADDRESS_STATE = 1;
  80095c:	00c02074 	movhi	r3,129
  800960:	18dc6404 	addi	r3,r3,29072
  800964:	18800003 	ldbu	r2,0(r3)
  800968:	10800094 	ori	r2,r2,2
  80096c:	18800005 	stb	r2,0(r3)
                    Chap9_SingleTransmitEP0(0, 0);
  800970:	0009883a 	mov	r4,zero
  800974:	000b883a 	mov	r5,zero
  800978:	080136c0 	call	80136c <Chap9_SingleTransmitEP0>
  80097c:	00005506 	br	800ad4 <Chap9_SetAddress+0x210>

                }

                else
                    bUSBCheck_Device_State.State_bits.DEVICE_DEFAULT_STATE = 1;
  800980:	00c02074 	movhi	r3,129
  800984:	18dc6404 	addi	r3,r3,29072
  800988:	18800003 	ldbu	r2,0(r3)
  80098c:	10800054 	ori	r2,r2,1
  800990:	18800005 	stb	r2,0(r3)
  800994:	00004f06 	br	800ad4 <Chap9_SetAddress+0x210>
            }

            else if(bUSBCheck_Device_State.State_bits.DEVICE_ADDRESS_STATE)
  800998:	00802074 	movhi	r2,129
  80099c:	109c6404 	addi	r2,r2,29072
  8009a0:	10800003 	ldbu	r2,0(r2)
  8009a4:	1080008c 	andi	r2,r2,2
  8009a8:	10803fcc 	andi	r2,r2,255
  8009ac:	1005003a 	cmpeq	r2,r2,zero
  8009b0:	1000331e 	bne	r2,zero,800a80 <Chap9_SetAddress+0x1bc>
            {
                if((ControlData.DeviceRequest.wValue & DEVICE_ADDRESS_MASK) == 0 )
  8009b4:	00802074 	movhi	r2,129
  8009b8:	109c7d04 	addi	r2,r2,29172
  8009bc:	1080010b 	ldhu	r2,4(r2)
  8009c0:	10bfffcc 	andi	r2,r2,65535
  8009c4:	10801fcc 	andi	r2,r2,127
  8009c8:	1004c03a 	cmpne	r2,r2,zero
  8009cc:	1000161e 	bne	r2,zero,800a28 <Chap9_SetAddress+0x164>
                {
                    Hal4D13_SetAddressEnable((UCHAR)(ControlData.DeviceRequest.wValue &
  8009d0:	00802074 	movhi	r2,129
  8009d4:	109c7d04 	addi	r2,r2,29172
  8009d8:	1080010b 	ldhu	r2,4(r2)
  8009dc:	10803fcc 	andi	r2,r2,255
  8009e0:	11001fcc 	andi	r4,r2,127
  8009e4:	01400044 	movi	r5,1
  8009e8:	0801d140 	call	801d14 <Hal4D13_SetAddressEnable>
                                            DEVICE_ADDRESS_MASK), 1);
                    bUSBCheck_Device_State.State_bits.DEVICE_DEFAULT_STATE = 1;
  8009ec:	00c02074 	movhi	r3,129
  8009f0:	18dc6404 	addi	r3,r3,29072
  8009f4:	18800003 	ldbu	r2,0(r3)
  8009f8:	10800054 	ori	r2,r2,1
  8009fc:	18800005 	stb	r2,0(r3)
                    bUSBCheck_Device_State.State_bits.DEVICE_ADDRESS_STATE = 0;
  800a00:	01002074 	movhi	r4,129
  800a04:	211c6404 	addi	r4,r4,29072
  800a08:	20c00003 	ldbu	r3,0(r4)
  800a0c:	00bfff44 	movi	r2,-3
  800a10:	1884703a 	and	r2,r3,r2
  800a14:	20800005 	stb	r2,0(r4)
                    Chap9_SingleTransmitEP0(0, 0);
  800a18:	0009883a 	mov	r4,zero
  800a1c:	000b883a 	mov	r5,zero
  800a20:	080136c0 	call	80136c <Chap9_SingleTransmitEP0>
  800a24:	00002b06 	br	800ad4 <Chap9_SetAddress+0x210>

                }

                else
                {
                    bUSBCheck_Device_State.State_bits.DEVICE_DEFAULT_STATE = 0;
  800a28:	01002074 	movhi	r4,129
  800a2c:	211c6404 	addi	r4,r4,29072
  800a30:	20c00003 	ldbu	r3,0(r4)
  800a34:	00bfff84 	movi	r2,-2
  800a38:	1884703a 	and	r2,r3,r2
  800a3c:	20800005 	stb	r2,0(r4)
                    Hal4D13_SetAddressEnable((UCHAR)(ControlData.DeviceRequest.wValue &
  800a40:	00802074 	movhi	r2,129
  800a44:	109c7d04 	addi	r2,r2,29172
  800a48:	1080010b 	ldhu	r2,4(r2)
  800a4c:	10803fcc 	andi	r2,r2,255
  800a50:	11001fcc 	andi	r4,r2,127
  800a54:	01400044 	movi	r5,1
  800a58:	0801d140 	call	801d14 <Hal4D13_SetAddressEnable>
                                            DEVICE_ADDRESS_MASK), 1);
                    bUSBCheck_Device_State.State_bits.DEVICE_ADDRESS_STATE = 1;
  800a5c:	00c02074 	movhi	r3,129
  800a60:	18dc6404 	addi	r3,r3,29072
  800a64:	18800003 	ldbu	r2,0(r3)
  800a68:	10800094 	ori	r2,r2,2
  800a6c:	18800005 	stb	r2,0(r3)
                    Chap9_SingleTransmitEP0(0, 0);
  800a70:	0009883a 	mov	r4,zero
  800a74:	000b883a 	mov	r5,zero
  800a78:	080136c0 	call	80136c <Chap9_SingleTransmitEP0>
  800a7c:	00001506 	br	800ad4 <Chap9_SetAddress+0x210>
            }

            else
            {

                bUSBCheck_Device_State.State_bits.DEVICE_CONFIGURATION_STATE = 0;
  800a80:	01002074 	movhi	r4,129
  800a84:	211c6404 	addi	r4,r4,29072
  800a88:	20c00003 	ldbu	r3,0(r4)
  800a8c:	00bffec4 	movi	r2,-5
  800a90:	1884703a 	and	r2,r3,r2
  800a94:	20800005 	stb	r2,0(r4)
                bUSBCheck_Device_State.State_bits.DEVICE_ADDRESS_STATE = 0;
  800a98:	01002074 	movhi	r4,129
  800a9c:	211c6404 	addi	r4,r4,29072
  800aa0:	20c00003 	ldbu	r3,0(r4)
  800aa4:	00bfff44 	movi	r2,-3
  800aa8:	1884703a 	and	r2,r3,r2
  800aac:	20800005 	stb	r2,0(r4)
                bUSBCheck_Device_State.State_bits.DEVICE_DEFAULT_STATE = 1;
  800ab0:	00c02074 	movhi	r3,129
  800ab4:	18dc6404 	addi	r3,r3,29072
  800ab8:	18800003 	ldbu	r2,0(r3)
  800abc:	10800054 	ori	r2,r2,1
  800ac0:	18800005 	stb	r2,0(r3)
                j = DEV_BEHAVIOUR_NOT_SPECIFIED;
  800ac4:	e03fff05 	stb	zero,-4(fp)
                Chap9_SingleTransmitEP0(&j, 0);
  800ac8:	e13fff04 	addi	r4,fp,-4
  800acc:	000b883a 	mov	r5,zero
  800ad0:	080136c0 	call	80136c <Chap9_SingleTransmitEP0>
            }

        }
        enable_irq();
  800ad4:	08055f80 	call	8055f8 <enable_irq>

    }
    printf("Addr %x\n",Hal4D13_GetAddress());
  800ad8:	0801cc80 	call	801cc8 <Hal4D13_GetAddress>
  800adc:	11403fcc 	andi	r5,r2,255
  800ae0:	01002074 	movhi	r4,129
  800ae4:	2109e404 	addi	r4,r4,10128
  800ae8:	08063e00 	call	8063e0 <printf>
}
  800aec:	e037883a 	mov	sp,fp
  800af0:	dfc00117 	ldw	ra,4(sp)
  800af4:	df000017 	ldw	fp,0(sp)
  800af8:	dec00204 	addi	sp,sp,8
  800afc:	f800283a 	ret

00800b00 <Chap9_GetDescriptor>:


void Chap9_GetDescriptor(void)
{
  800b00:	defffb04 	addi	sp,sp,-20
  800b04:	dfc00415 	stw	ra,16(sp)
  800b08:	df000315 	stw	fp,12(sp)
  800b0c:	df000304 	addi	fp,sp,12
    UCHAR   bDescriptor =      MSB(ControlData.DeviceRequest.wValue);
  800b10:	00802074 	movhi	r2,129
  800b14:	109c7d04 	addi	r2,r2,29172
  800b18:	1080010b 	ldhu	r2,4(r2)
  800b1c:	10bfffcc 	andi	r2,r2,65535
  800b20:	1004d23a 	srli	r2,r2,8
  800b24:	1007883a 	mov	r3,r2
  800b28:	00bfffc4 	movi	r2,-1
  800b2c:	1884703a 	and	r2,r3,r2
  800b30:	e0bffd85 	stb	r2,-10(fp)
    UCHAR   bDescriptorIndex = LSB(ControlData.DeviceRequest.wValue);
  800b34:	00802074 	movhi	r2,129
  800b38:	109c7d04 	addi	r2,r2,29172
  800b3c:	1080010b 	ldhu	r2,4(r2)
  800b40:	1007883a 	mov	r3,r2
  800b44:	00bfffc4 	movi	r2,-1
  800b48:	1884703a 	and	r2,r3,r2
  800b4c:	e0bffd45 	stb	r2,-11(fp)
    UCHAR	bmRequestType = ControlData.DeviceRequest.bmRequestType;
  800b50:	00802074 	movhi	r2,129
  800b54:	109c7d04 	addi	r2,r2,29172
  800b58:	10800083 	ldbu	r2,2(r2)
  800b5c:	e0bffd05 	stb	r2,-12(fp)

    switch(bDescriptor)
  800b60:	e0bffd83 	ldbu	r2,-10(fp)
  800b64:	e0bfff15 	stw	r2,-4(fp)
  800b68:	e0ffff17 	ldw	r3,-4(fp)
  800b6c:	188008e8 	cmpgeui	r2,r3,35
  800b70:	1000861e 	bne	r2,zero,800d8c <Chap9_GetDescriptor+0x28c>
  800b74:	e13fff17 	ldw	r4,-4(fp)
  800b78:	e13fff17 	ldw	r4,-4(fp)
  800b7c:	2105883a 	add	r2,r4,r4
  800b80:	1087883a 	add	r3,r2,r2
  800b84:	00802034 	movhi	r2,128
  800b88:	1082e604 	addi	r2,r2,2968
  800b8c:	1885883a 	add	r2,r3,r2
  800b90:	10800017 	ldw	r2,0(r2)
  800b94:	1000683a 	jmp	r2
  800b98:	00800d8c 	andi	r2,zero,54
  800b9c:	00800c24 	muli	r2,zero,48
  800ba0:	00800c38 	rdprs	r2,zero,48
  800ba4:	00800c4c 	andi	r2,zero,49
  800ba8:	00800d6c 	andhi	r2,zero,53
  800bac:	00800d6c 	andhi	r2,zero,53
  800bb0:	00800d6c 	andhi	r2,zero,53
  800bb4:	00800d8c 	andi	r2,zero,54
  800bb8:	00800d8c 	andi	r2,zero,54
  800bbc:	00800d8c 	andi	r2,zero,54
  800bc0:	00800d8c 	andi	r2,zero,54
  800bc4:	00800d8c 	andi	r2,zero,54
  800bc8:	00800d8c 	andi	r2,zero,54
  800bcc:	00800d8c 	andi	r2,zero,54
  800bd0:	00800d8c 	andi	r2,zero,54
  800bd4:	00800d8c 	andi	r2,zero,54
  800bd8:	00800d8c 	andi	r2,zero,54
  800bdc:	00800d8c 	andi	r2,zero,54
  800be0:	00800d8c 	andi	r2,zero,54
  800be4:	00800d8c 	andi	r2,zero,54
  800be8:	00800d8c 	andi	r2,zero,54
  800bec:	00800d8c 	andi	r2,zero,54
  800bf0:	00800d8c 	andi	r2,zero,54
  800bf4:	00800d8c 	andi	r2,zero,54
  800bf8:	00800d8c 	andi	r2,zero,54
  800bfc:	00800d8c 	andi	r2,zero,54
  800c00:	00800d8c 	andi	r2,zero,54
  800c04:	00800d8c 	andi	r2,zero,54
  800c08:	00800d8c 	andi	r2,zero,54
  800c0c:	00800d8c 	andi	r2,zero,54
  800c10:	00800d8c 	andi	r2,zero,54
  800c14:	00800d8c 	andi	r2,zero,54
  800c18:	00800d8c 	andi	r2,zero,54
  800c1c:	00800d8c 	andi	r2,zero,54
  800c20:	00800d6c 	andhi	r2,zero,53
    {
    	case USB_DEVICE_DESCRIPTOR_TYPE:{//1

			Chap9_BurstTransmitEP0( (PUCHAR)&DeviceDescr , sizeof(USB_DEVICE_DESCRIPTOR));
  800c24:	01002074 	movhi	r4,129
  800c28:	210d6e04 	addi	r4,r4,13752
  800c2c:	01400484 	movi	r5,18
  800c30:	08014080 	call	801408 <Chap9_BurstTransmitEP0>
			break;}
  800c34:	00005606 	br	800d90 <Chap9_GetDescriptor+0x290>
		case USB_CONFIGURATION_DESCRIPTOR_TYPE:{//2
			Chap9_BurstTransmitEP0((PUCHAR)&ConfigDescr_a, sizeof(USB_CONFIGURATION_DESCRIPTOR_a));
  800c38:	01002074 	movhi	r4,129
  800c3c:	210d7284 	addi	r4,r4,13770
  800c40:	01400884 	movi	r5,34
  800c44:	08014080 	call	801408 <Chap9_BurstTransmitEP0>
			break;}
  800c48:	00005106 	br	800d90 <Chap9_GetDescriptor+0x290>
		case USB_STRING_DESCRIPTOR_TYPE://3
			switch(bDescriptorIndex)
  800c4c:	e0bffd43 	ldbu	r2,-11(fp)
  800c50:	e0bffe15 	stw	r2,-8(fp)
  800c54:	e0fffe17 	ldw	r3,-8(fp)
  800c58:	188001a8 	cmpgeui	r2,r3,6
  800c5c:	10003e1e 	bne	r2,zero,800d58 <Chap9_GetDescriptor+0x258>
  800c60:	e13ffe17 	ldw	r4,-8(fp)
  800c64:	e13ffe17 	ldw	r4,-8(fp)
  800c68:	2105883a 	add	r2,r4,r4
  800c6c:	1087883a 	add	r3,r2,r2
  800c70:	00802034 	movhi	r2,128
  800c74:	10832104 	addi	r2,r2,3204
  800c78:	1885883a 	add	r2,r3,r2
  800c7c:	10800017 	ldw	r2,0(r2)
  800c80:	1000683a 	jmp	r2
  800c84:	00800c9c 	xori	r2,zero,50
  800c88:	00800cb8 	rdprs	r2,zero,50
  800c8c:	00800cd8 	cmpnei	r2,zero,51
  800c90:	00800cf8 	rdprs	r2,zero,51
  800c94:	00800d18 	cmpnei	r2,zero,52
  800c98:	00800d38 	rdprs	r2,zero,52
			{
				case STR_INDEX_LANGUAGE:
					printf("\n str1     \n");
  800c9c:	01002074 	movhi	r4,129
  800ca0:	2109e704 	addi	r4,r4,10140
  800ca4:	080651c0 	call	80651c <puts>
					Chap9_BurstTransmitEP0((PUCHAR)&strLanguage, sizeof(USB_STRING_LANGUAGE_DESCRIPTOR));
  800ca8:	d1200004 	addi	r4,gp,-32768
  800cac:	01400104 	movi	r5,4
  800cb0:	08014080 	call	801408 <Chap9_BurstTransmitEP0>
					break;
  800cb4:	00003606 	br	800d90 <Chap9_GetDescriptor+0x290>
				case STR_INDEX_MANUFACTURER:
					printf("\n str2     \n");
  800cb8:	01002074 	movhi	r4,129
  800cbc:	2109ea04 	addi	r4,r4,10152
  800cc0:	080651c0 	call	80651c <puts>
					Chap9_BurstTransmitEP0((PUCHAR)&strManufacturer, sizeof(USB_STRING_MANUFACTURER_DESCRIPTOR));
  800cc4:	01002074 	movhi	r4,129
  800cc8:	210dc744 	addi	r4,r4,14109
  800ccc:	01400e04 	movi	r5,56
  800cd0:	08014080 	call	801408 <Chap9_BurstTransmitEP0>
					break;
  800cd4:	00002e06 	br	800d90 <Chap9_GetDescriptor+0x290>
				case STR_INDEX_PRODUCT:
					printf("\n str3     \n");
  800cd8:	01002074 	movhi	r4,129
  800cdc:	2109ed04 	addi	r4,r4,10164
  800ce0:	080651c0 	call	80651c <puts>
					Chap9_BurstTransmitEP0((PUCHAR)&strProduct, sizeof(USB_STRING_PRODUCT_DESCRIPTOR));
  800ce4:	01002074 	movhi	r4,129
  800ce8:	210db6c4 	addi	r4,r4,14043
  800cec:	01401084 	movi	r5,66
  800cf0:	08014080 	call	801408 <Chap9_BurstTransmitEP0>
					break;
  800cf4:	00002606 	br	800d90 <Chap9_GetDescriptor+0x290>
				case STR_INDEX_SERIALNUMBER:
					printf("\n str4     \n");
  800cf8:	01002074 	movhi	r4,129
  800cfc:	2109f004 	addi	r4,r4,10176
  800d00:	080651c0 	call	80651c <puts>
					Chap9_BurstTransmitEP0((PUCHAR)&strSerialNum, sizeof(USB_STRING_SERIALNUMBER_DESCRIPTOR));
  800d04:	01002074 	movhi	r4,129
  800d08:	210db044 	addi	r4,r4,14017
  800d0c:	01400684 	movi	r5,26
  800d10:	08014080 	call	801408 <Chap9_BurstTransmitEP0>
					break;
  800d14:	00001e06 	br	800d90 <Chap9_GetDescriptor+0x290>
				case STR_INDEX_CONFIGURATION:
					printf("\n str5     \n");
  800d18:	01002074 	movhi	r4,129
  800d1c:	2109f304 	addi	r4,r4,10188
  800d20:	080651c0 	call	80651c <puts>
					Chap9_BurstTransmitEP0((PUCHAR)&strConfiguration, sizeof(USB_STRING_CONFIGURATION_DESCRIPTOR) );
  800d24:	01002074 	movhi	r4,129
  800d28:	210dabc4 	addi	r4,r4,13999
  800d2c:	01400484 	movi	r5,18
  800d30:	08014080 	call	801408 <Chap9_BurstTransmitEP0>
					break;
  800d34:	00001606 	br	800d90 <Chap9_GetDescriptor+0x290>
				case STR_INDEX_INTERFACE:
					printf("\n str6     \n");
  800d38:	01002074 	movhi	r4,129
  800d3c:	2109f604 	addi	r4,r4,10200
  800d40:	080651c0 	call	80651c <puts>
					Chap9_BurstTransmitEP0((PUCHAR)&strInterface, sizeof(USB_STRING_INTERFACE_DESCRIPTOR) );
  800d44:	01002074 	movhi	r4,129
  800d48:	210da5c4 	addi	r4,r4,13975
  800d4c:	01400604 	movi	r5,24
  800d50:	08014080 	call	801408 <Chap9_BurstTransmitEP0>
					break;
  800d54:	00000e06 	br	800d90 <Chap9_GetDescriptor+0x290>
				default:
					printf("\n Unknown String \n");
  800d58:	01002074 	movhi	r4,129
  800d5c:	2109f904 	addi	r4,r4,10212
  800d60:	080651c0 	call	80651c <puts>
					Chap9_StallEP0InControlRead();
  800d64:	08013080 	call	801308 <Chap9_StallEP0InControlRead>
					break;
			}
			break;
  800d68:	00000906 	br	800d90 <Chap9_GetDescriptor+0x290>
		case USB_ENDPOINT_DESCRIPTOR_TYPE:
		case USB_POWER_DESCRIPTOR_TYPE:
		case USB_HID_DESCRIPTOR_TYPE:
			//bmRequestType will be 0x81 for HID related descriptor requests.
			//For some reason this is not characterized as a class request
			if(bmRequestType == 0x81){
  800d6c:	e0bffd03 	ldbu	r2,-12(fp)
  800d70:	10802058 	cmpnei	r2,r2,129
  800d74:	1000061e 	bne	r2,zero,800d90 <Chap9_GetDescriptor+0x290>
				Chap9_BurstTransmitEP0((PUCHAR)&REPORT_DESCRIPTOR2, sizeof(REPORT_DESCRIPTOR2) );
  800d78:	01002074 	movhi	r4,129
  800d7c:	210d8f44 	addi	r4,r4,13885
  800d80:	01400b44 	movi	r5,45
  800d84:	08014080 	call	801408 <Chap9_BurstTransmitEP0>
			}
			break;
  800d88:	00000106 	br	800d90 <Chap9_GetDescriptor+0x290>
		default:
			Chap9_StallEP0InControlRead();
  800d8c:	08013080 	call	801308 <Chap9_StallEP0InControlRead>
			break;
		}
}
  800d90:	e037883a 	mov	sp,fp
  800d94:	dfc00117 	ldw	ra,4(sp)
  800d98:	df000017 	ldw	fp,0(sp)
  800d9c:	dec00204 	addi	sp,sp,8
  800da0:	f800283a 	ret

00800da4 <Chap9_GetConfiguration>:

void Chap9_GetConfiguration(void)
{
  800da4:	defffd04 	addi	sp,sp,-12
  800da8:	dfc00215 	stw	ra,8(sp)
  800dac:	df000115 	stw	fp,4(sp)
  800db0:	df000104 	addi	fp,sp,4
    UCHAR   c = bD13flags.bits.configuration;
  800db4:	00802074 	movhi	r2,129
  800db8:	109c5b04 	addi	r2,r2,29036
  800dbc:	10800017 	ldw	r2,0(r2)
  800dc0:	1004d0fa 	srli	r2,r2,3
  800dc4:	1080004c 	andi	r2,r2,1
  800dc8:	e0bfff05 	stb	r2,-4(fp)
    UCHAR   j;

    if(bUSBCheck_Device_State.State_bits.DEVICE_ADDRESS_STATE)
  800dcc:	00802074 	movhi	r2,129
  800dd0:	109c6404 	addi	r2,r2,29072
  800dd4:	10800003 	ldbu	r2,0(r2)
  800dd8:	1080008c 	andi	r2,r2,2
  800ddc:	10803fcc 	andi	r2,r2,255
  800de0:	1005003a 	cmpeq	r2,r2,zero
  800de4:	1000051e 	bne	r2,zero,800dfc <Chap9_GetConfiguration+0x58>
    {
        j = 0;
  800de8:	e03fff45 	stb	zero,-3(fp)
        Chap9_SingleTransmitEP0(&j, 1);
  800dec:	e13fff44 	addi	r4,fp,-3
  800df0:	01400044 	movi	r5,1
  800df4:	080136c0 	call	80136c <Chap9_SingleTransmitEP0>
  800df8:	00001506 	br	800e50 <Chap9_GetConfiguration+0xac>
    }

    else
    {
        if (ControlData.DeviceRequest.wValue == 0 && ControlData.DeviceRequest.wIndex == 0 && ControlData.DeviceRequest.wLength == 1)
  800dfc:	00802074 	movhi	r2,129
  800e00:	109c7d04 	addi	r2,r2,29172
  800e04:	1080010b 	ldhu	r2,4(r2)
  800e08:	10bfffcc 	andi	r2,r2,65535
  800e0c:	1004c03a 	cmpne	r2,r2,zero
  800e10:	10000f1e 	bne	r2,zero,800e50 <Chap9_GetConfiguration+0xac>
  800e14:	00802074 	movhi	r2,129
  800e18:	109c7d04 	addi	r2,r2,29172
  800e1c:	1080018b 	ldhu	r2,6(r2)
  800e20:	10bfffcc 	andi	r2,r2,65535
  800e24:	1004c03a 	cmpne	r2,r2,zero
  800e28:	1000091e 	bne	r2,zero,800e50 <Chap9_GetConfiguration+0xac>
  800e2c:	00802074 	movhi	r2,129
  800e30:	109c7d04 	addi	r2,r2,29172
  800e34:	1080020b 	ldhu	r2,8(r2)
  800e38:	10bfffcc 	andi	r2,r2,65535
  800e3c:	10800058 	cmpnei	r2,r2,1
  800e40:	1000031e 	bne	r2,zero,800e50 <Chap9_GetConfiguration+0xac>
        {
        	Chap9_SingleTransmitEP0(&c, 1);
  800e44:	e13fff04 	addi	r4,fp,-4
  800e48:	01400044 	movi	r5,1
  800e4c:	080136c0 	call	80136c <Chap9_SingleTransmitEP0>
        }
    }

}
  800e50:	e037883a 	mov	sp,fp
  800e54:	dfc00117 	ldw	ra,4(sp)
  800e58:	df000017 	ldw	fp,0(sp)
  800e5c:	dec00204 	addi	sp,sp,8
  800e60:	f800283a 	ret

00800e64 <Chap9_SetConfiguration>:

void Chap9_SetConfiguration(void)
{
  800e64:	defffe04 	addi	sp,sp,-8
  800e68:	dfc00115 	stw	ra,4(sp)
  800e6c:	df000015 	stw	fp,0(sp)
  800e70:	d839883a 	mov	fp,sp
  
    if(bUSBCheck_Device_State.State_bits.DEVICE_ADDRESS_STATE)
  800e74:	00802074 	movhi	r2,129
  800e78:	109c6404 	addi	r2,r2,29072
  800e7c:	10800003 	ldbu	r2,0(r2)
  800e80:	1080008c 	andi	r2,r2,2
  800e84:	10803fcc 	andi	r2,r2,255
  800e88:	1005003a 	cmpeq	r2,r2,zero
  800e8c:	10003d1e 	bne	r2,zero,800f84 <Chap9_SetConfiguration+0x120>
    {
        if(ControlData.DeviceRequest.wIndex == 0 && ControlData.DeviceRequest.wLength == 0)
  800e90:	00802074 	movhi	r2,129
  800e94:	109c7d04 	addi	r2,r2,29172
  800e98:	1080018b 	ldhu	r2,6(r2)
  800e9c:	10bfffcc 	andi	r2,r2,65535
  800ea0:	1004c03a 	cmpne	r2,r2,zero
  800ea4:	10006d1e 	bne	r2,zero,80105c <Chap9_SetConfiguration+0x1f8>
  800ea8:	00802074 	movhi	r2,129
  800eac:	109c7d04 	addi	r2,r2,29172
  800eb0:	1080020b 	ldhu	r2,8(r2)
  800eb4:	10bfffcc 	andi	r2,r2,65535
  800eb8:	1004c03a 	cmpne	r2,r2,zero
  800ebc:	1000671e 	bne	r2,zero,80105c <Chap9_SetConfiguration+0x1f8>
        {
            if (ControlData.DeviceRequest.wValue == 0)
  800ec0:	00802074 	movhi	r2,129
  800ec4:	109c7d04 	addi	r2,r2,29172
  800ec8:	1080010b 	ldhu	r2,4(r2)
  800ecc:	10bfffcc 	andi	r2,r2,65535
  800ed0:	1004c03a 	cmpne	r2,r2,zero
  800ed4:	10000f1e 	bne	r2,zero,800f14 <Chap9_SetConfiguration+0xb0>
            {
                /* put device in unconfigured state */
                bD13flags.bits.configuration = 0;
  800ed8:	01002074 	movhi	r4,129
  800edc:	211c5b04 	addi	r4,r4,29036
  800ee0:	20c00017 	ldw	r3,0(r4)
  800ee4:	00bffdc4 	movi	r2,-9
  800ee8:	1884703a 	and	r2,r3,r2
  800eec:	20800015 	stw	r2,0(r4)
                bUSBCheck_Device_State.State_bits.DEVICE_ADDRESS_STATE = 1;
  800ef0:	00c02074 	movhi	r3,129
  800ef4:	18dc6404 	addi	r3,r3,29072
  800ef8:	18800003 	ldbu	r2,0(r3)
  800efc:	10800094 	ori	r2,r2,2
  800f00:	18800005 	stb	r2,0(r3)
                Chap9_SingleTransmitEP0(0, 0);
  800f04:	0009883a 	mov	r4,zero
  800f08:	000b883a 	mov	r5,zero
  800f0c:	080136c0 	call	80136c <Chap9_SingleTransmitEP0>
  800f10:	00005206 	br	80105c <Chap9_SetConfiguration+0x1f8>
            }
            else if (ControlData.DeviceRequest.wValue == 1)
  800f14:	00802074 	movhi	r2,129
  800f18:	109c7d04 	addi	r2,r2,29172
  800f1c:	1080010b 	ldhu	r2,4(r2)
  800f20:	10bfffcc 	andi	r2,r2,65535
  800f24:	10800058 	cmpnei	r2,r2,1
  800f28:	1000141e 	bne	r2,zero,800f7c <Chap9_SetConfiguration+0x118>
            {
                /* Configure device */
                bD13flags.bits.configuration = 1;
  800f2c:	00c02074 	movhi	r3,129
  800f30:	18dc5b04 	addi	r3,r3,29036
  800f34:	18800017 	ldw	r2,0(r3)
  800f38:	10800214 	ori	r2,r2,8
  800f3c:	18800015 	stw	r2,0(r3)
                bUSBCheck_Device_State.State_bits.DEVICE_ADDRESS_STATE = 0;
  800f40:	01002074 	movhi	r4,129
  800f44:	211c6404 	addi	r4,r4,29072
  800f48:	20c00003 	ldbu	r3,0(r4)
  800f4c:	00bfff44 	movi	r2,-3
  800f50:	1884703a 	and	r2,r3,r2
  800f54:	20800005 	stb	r2,0(r4)
                bUSBCheck_Device_State.State_bits.DEVICE_CONFIGURATION_STATE = 1;
  800f58:	00c02074 	movhi	r3,129
  800f5c:	18dc6404 	addi	r3,r3,29072
  800f60:	18800003 	ldbu	r2,0(r3)
  800f64:	10800114 	ori	r2,r2,4
  800f68:	18800005 	stb	r2,0(r3)
                Chap9_SingleTransmitEP0(0, 0);
  800f6c:	0009883a 	mov	r4,zero
  800f70:	000b883a 	mov	r5,zero
  800f74:	080136c0 	call	80136c <Chap9_SingleTransmitEP0>
  800f78:	00003806 	br	80105c <Chap9_SetConfiguration+0x1f8>
            }

            else
                Chap9_StallEP0InControlWrite();
  800f7c:	08012a40 	call	8012a4 <Chap9_StallEP0InControlWrite>
  800f80:	00003606 	br	80105c <Chap9_SetConfiguration+0x1f8>
        }
    }

    else
    {
        if (ControlData.DeviceRequest.wValue == 0)
  800f84:	00802074 	movhi	r2,129
  800f88:	109c7d04 	addi	r2,r2,29172
  800f8c:	1080010b 	ldhu	r2,4(r2)
  800f90:	10bfffcc 	andi	r2,r2,65535
  800f94:	1004c03a 	cmpne	r2,r2,zero
  800f98:	1000151e 	bne	r2,zero,800ff0 <Chap9_SetConfiguration+0x18c>
        {
            /* put device in unconfigured state */
            bD13flags.bits.configuration = 0;
  800f9c:	01002074 	movhi	r4,129
  800fa0:	211c5b04 	addi	r4,r4,29036
  800fa4:	20c00017 	ldw	r3,0(r4)
  800fa8:	00bffdc4 	movi	r2,-9
  800fac:	1884703a 	and	r2,r3,r2
  800fb0:	20800015 	stw	r2,0(r4)
            bUSBCheck_Device_State.State_bits.DEVICE_ADDRESS_STATE = 1;
  800fb4:	00c02074 	movhi	r3,129
  800fb8:	18dc6404 	addi	r3,r3,29072
  800fbc:	18800003 	ldbu	r2,0(r3)
  800fc0:	10800094 	ori	r2,r2,2
  800fc4:	18800005 	stb	r2,0(r3)
            bUSBCheck_Device_State.State_bits.DEVICE_CONFIGURATION_STATE = 0;
  800fc8:	01002074 	movhi	r4,129
  800fcc:	211c6404 	addi	r4,r4,29072
  800fd0:	20c00003 	ldbu	r3,0(r4)
  800fd4:	00bffec4 	movi	r2,-5
  800fd8:	1884703a 	and	r2,r3,r2
  800fdc:	20800005 	stb	r2,0(r4)
            Chap9_SingleTransmitEP0(0, 0);
  800fe0:	0009883a 	mov	r4,zero
  800fe4:	000b883a 	mov	r5,zero
  800fe8:	080136c0 	call	80136c <Chap9_SingleTransmitEP0>
  800fec:	00001b06 	br	80105c <Chap9_SetConfiguration+0x1f8>

        }

        else if (ControlData.DeviceRequest.wValue == 1)
  800ff0:	00802074 	movhi	r2,129
  800ff4:	109c7d04 	addi	r2,r2,29172
  800ff8:	1080010b 	ldhu	r2,4(r2)
  800ffc:	10bfffcc 	andi	r2,r2,65535
  801000:	10800058 	cmpnei	r2,r2,1
  801004:	1000141e 	bne	r2,zero,801058 <Chap9_SetConfiguration+0x1f4>
        {
            /* Configure device */
            bD13flags.bits.configuration = 1;
  801008:	00c02074 	movhi	r3,129
  80100c:	18dc5b04 	addi	r3,r3,29036
  801010:	18800017 	ldw	r2,0(r3)
  801014:	10800214 	ori	r2,r2,8
  801018:	18800015 	stw	r2,0(r3)
            bUSBCheck_Device_State.State_bits.DEVICE_ADDRESS_STATE = 0;
  80101c:	01002074 	movhi	r4,129
  801020:	211c6404 	addi	r4,r4,29072
  801024:	20c00003 	ldbu	r3,0(r4)
  801028:	00bfff44 	movi	r2,-3
  80102c:	1884703a 	and	r2,r3,r2
  801030:	20800005 	stb	r2,0(r4)
            bUSBCheck_Device_State.State_bits.DEVICE_CONFIGURATION_STATE = 1;
  801034:	00c02074 	movhi	r3,129
  801038:	18dc6404 	addi	r3,r3,29072
  80103c:	18800003 	ldbu	r2,0(r3)
  801040:	10800114 	ori	r2,r2,4
  801044:	18800005 	stb	r2,0(r3)
            Chap9_SingleTransmitEP0(0, 0);
  801048:	0009883a 	mov	r4,zero
  80104c:	000b883a 	mov	r5,zero
  801050:	080136c0 	call	80136c <Chap9_SingleTransmitEP0>
  801054:	00000106 	br	80105c <Chap9_SetConfiguration+0x1f8>
        }
        else
            Chap9_StallEP0InControlWrite();
  801058:	08012a40 	call	8012a4 <Chap9_StallEP0InControlWrite>
    }

}
  80105c:	e037883a 	mov	sp,fp
  801060:	dfc00117 	ldw	ra,4(sp)
  801064:	df000017 	ldw	fp,0(sp)
  801068:	dec00204 	addi	sp,sp,8
  80106c:	f800283a 	ret

00801070 <Chap9_GetInterface>:

void Chap9_GetInterface(void)
{
  801070:	defffe04 	addi	sp,sp,-8
  801074:	dfc00115 	stw	ra,4(sp)
  801078:	df000015 	stw	fp,0(sp)
  80107c:	d839883a 	mov	fp,sp

    if(bUSBCheck_Device_State.State_bits.DEVICE_ADDRESS_STATE)
  801080:	00802074 	movhi	r2,129
  801084:	109c6404 	addi	r2,r2,29072
  801088:	10800003 	ldbu	r2,0(r2)
  80108c:	1080008c 	andi	r2,r2,2
  801090:	10803fcc 	andi	r2,r2,255
  801094:	1005003a 	cmpeq	r2,r2,zero
  801098:	1000021e 	bne	r2,zero,8010a4 <Chap9_GetInterface+0x34>
        Chap9_StallEP0InControlRead();
  80109c:	08013080 	call	801308 <Chap9_StallEP0InControlRead>
  8010a0:	00001706 	br	801100 <Chap9_GetInterface+0x90>

    else
    {

        if ((ControlData.DeviceRequest.wValue == 0 && ControlData.DeviceRequest.wIndex == 0 && ControlData.DeviceRequest.wLength == 1))
  8010a4:	00802074 	movhi	r2,129
  8010a8:	109c7d04 	addi	r2,r2,29172
  8010ac:	1080010b 	ldhu	r2,4(r2)
  8010b0:	10bfffcc 	andi	r2,r2,65535
  8010b4:	1004c03a 	cmpne	r2,r2,zero
  8010b8:	1000101e 	bne	r2,zero,8010fc <Chap9_GetInterface+0x8c>
  8010bc:	00802074 	movhi	r2,129
  8010c0:	109c7d04 	addi	r2,r2,29172
  8010c4:	1080018b 	ldhu	r2,6(r2)
  8010c8:	10bfffcc 	andi	r2,r2,65535
  8010cc:	1004c03a 	cmpne	r2,r2,zero
  8010d0:	10000a1e 	bne	r2,zero,8010fc <Chap9_GetInterface+0x8c>
  8010d4:	00802074 	movhi	r2,129
  8010d8:	109c7d04 	addi	r2,r2,29172
  8010dc:	1080020b 	ldhu	r2,8(r2)
  8010e0:	10bfffcc 	andi	r2,r2,65535
  8010e4:	10800058 	cmpnei	r2,r2,1
  8010e8:	1000041e 	bne	r2,zero,8010fc <Chap9_GetInterface+0x8c>
            Chap9_SingleTransmitEP0(&ALTERNATIVE_SETTING, 1);      //txdat
  8010ec:	d1278b04 	addi	r4,gp,-25044
  8010f0:	01400044 	movi	r5,1
  8010f4:	080136c0 	call	80136c <Chap9_SingleTransmitEP0>
        Chap9_StallEP0InControlRead();

    else
    {

        if ((ControlData.DeviceRequest.wValue == 0 && ControlData.DeviceRequest.wIndex == 0 && ControlData.DeviceRequest.wLength == 1))
  8010f8:	00000106 	br	801100 <Chap9_GetInterface+0x90>
            Chap9_SingleTransmitEP0(&ALTERNATIVE_SETTING, 1);      //txdat
        else
            Chap9_StallEP0InControlRead();
  8010fc:	08013080 	call	801308 <Chap9_StallEP0InControlRead>
    }

}
  801100:	e037883a 	mov	sp,fp
  801104:	dfc00117 	ldw	ra,4(sp)
  801108:	df000017 	ldw	fp,0(sp)
  80110c:	dec00204 	addi	sp,sp,8
  801110:	f800283a 	ret

00801114 <Chap9_SetInterface>:

void Chap9_SetInterface(void)
{
  801114:	defffd04 	addi	sp,sp,-12
  801118:	dfc00215 	stw	ra,8(sp)
  80111c:	df000115 	stw	fp,4(sp)
  801120:	df000104 	addi	fp,sp,4
    UCHAR   dir = ControlData.DeviceRequest.bmRequestType & USB_REQUEST_DIR_MASK;
  801124:	00802074 	movhi	r2,129
  801128:	109c7d04 	addi	r2,r2,29172
  80112c:	10c00083 	ldbu	r3,2(r2)
  801130:	00bfe004 	movi	r2,-128
  801134:	1884703a 	and	r2,r3,r2
  801138:	e0bfff05 	stb	r2,-4(fp)

    if(dir)
  80113c:	e0bfff03 	ldbu	r2,-4(fp)
  801140:	1005003a 	cmpeq	r2,r2,zero
  801144:	1000011e 	bne	r2,zero,80114c <Chap9_SetInterface+0x38>
        Chap9_StallEP0InControlRead();
  801148:	08013080 	call	801308 <Chap9_StallEP0InControlRead>


    if(bUSBCheck_Device_State.State_bits.DEVICE_ADDRESS_STATE)
  80114c:	00802074 	movhi	r2,129
  801150:	109c6404 	addi	r2,r2,29072
  801154:	10800003 	ldbu	r2,0(r2)
  801158:	1080008c 	andi	r2,r2,2
  80115c:	10803fcc 	andi	r2,r2,255
  801160:	1005003a 	cmpeq	r2,r2,zero
  801164:	1000021e 	bne	r2,zero,801170 <Chap9_SetInterface+0x5c>
        Chap9_StallEP0InControlRead();
  801168:	08013080 	call	801308 <Chap9_StallEP0InControlRead>
  80116c:	00002406 	br	801200 <Chap9_SetInterface+0xec>


    else
    {

        if (ControlData.DeviceRequest.wValue == 0 && ControlData.DeviceRequest.wIndex == 0)
  801170:	00802074 	movhi	r2,129
  801174:	109c7d04 	addi	r2,r2,29172
  801178:	1080010b 	ldhu	r2,4(r2)
  80117c:	10bfffcc 	andi	r2,r2,65535
  801180:	1004c03a 	cmpne	r2,r2,zero
  801184:	10000b1e 	bne	r2,zero,8011b4 <Chap9_SetInterface+0xa0>
  801188:	00802074 	movhi	r2,129
  80118c:	109c7d04 	addi	r2,r2,29172
  801190:	1080018b 	ldhu	r2,6(r2)
  801194:	10bfffcc 	andi	r2,r2,65535
  801198:	1004c03a 	cmpne	r2,r2,zero
  80119c:	1000051e 	bne	r2,zero,8011b4 <Chap9_SetInterface+0xa0>
        {
            ALTERNATIVE_SETTING = 0;
  8011a0:	d0278b05 	stb	zero,-25044(gp)
            Chap9_SingleTransmitEP0(0,0);
  8011a4:	0009883a 	mov	r4,zero
  8011a8:	000b883a 	mov	r5,zero
  8011ac:	080136c0 	call	80136c <Chap9_SingleTransmitEP0>


    else
    {

        if (ControlData.DeviceRequest.wValue == 0 && ControlData.DeviceRequest.wIndex == 0)
  8011b0:	00001306 	br	801200 <Chap9_SetInterface+0xec>
        {
            ALTERNATIVE_SETTING = 0;
            Chap9_SingleTransmitEP0(0,0);
        }

        else if (ControlData.DeviceRequest.wValue == 1 && ControlData.DeviceRequest.wIndex == 0)
  8011b4:	00802074 	movhi	r2,129
  8011b8:	109c7d04 	addi	r2,r2,29172
  8011bc:	1080010b 	ldhu	r2,4(r2)
  8011c0:	10bfffcc 	andi	r2,r2,65535
  8011c4:	10800058 	cmpnei	r2,r2,1
  8011c8:	10000c1e 	bne	r2,zero,8011fc <Chap9_SetInterface+0xe8>
  8011cc:	00802074 	movhi	r2,129
  8011d0:	109c7d04 	addi	r2,r2,29172
  8011d4:	1080018b 	ldhu	r2,6(r2)
  8011d8:	10bfffcc 	andi	r2,r2,65535
  8011dc:	1004c03a 	cmpne	r2,r2,zero
  8011e0:	1000061e 	bne	r2,zero,8011fc <Chap9_SetInterface+0xe8>
        {
            ALTERNATIVE_SETTING = 1;
  8011e4:	00800044 	movi	r2,1
  8011e8:	d0a78b05 	stb	r2,-25044(gp)
            Chap9_SingleTransmitEP0(0,0);
  8011ec:	0009883a 	mov	r4,zero
  8011f0:	000b883a 	mov	r5,zero
  8011f4:	080136c0 	call	80136c <Chap9_SingleTransmitEP0>
        {
            ALTERNATIVE_SETTING = 0;
            Chap9_SingleTransmitEP0(0,0);
        }

        else if (ControlData.DeviceRequest.wValue == 1 && ControlData.DeviceRequest.wIndex == 0)
  8011f8:	00000106 	br	801200 <Chap9_SetInterface+0xec>
            ALTERNATIVE_SETTING = 1;
            Chap9_SingleTransmitEP0(0,0);
        }
        else
        {
            Chap9_StallEP0InControlWrite();
  8011fc:	08012a40 	call	8012a4 <Chap9_StallEP0InControlWrite>
        }
    }

}
  801200:	e037883a 	mov	sp,fp
  801204:	dfc00117 	ldw	ra,4(sp)
  801208:	df000017 	ldw	fp,0(sp)
  80120c:	dec00204 	addi	sp,sp,8
  801210:	f800283a 	ret

00801214 <Chap9_StallEP0>:
// *************************************************************************
// Chap9 support functions
// *************************************************************************

void Chap9_StallEP0(void)
{
  801214:	defffd04 	addi	sp,sp,-12
  801218:	dfc00215 	stw	ra,8(sp)
  80121c:	df000115 	stw	fp,4(sp)
  801220:	df000104 	addi	fp,sp,4
    UCHAR dir;
    dir = ControlData.DeviceRequest.bmRequestType & USB_REQUEST_DIR_MASK;
  801224:	00802074 	movhi	r2,129
  801228:	109c7d04 	addi	r2,r2,29172
  80122c:	10c00083 	ldbu	r3,2(r2)
  801230:	00bfe004 	movi	r2,-128
  801234:	1884703a 	and	r2,r3,r2
  801238:	e0bfff05 	stb	r2,-4(fp)
    if(dir)
  80123c:	e0bfff03 	ldbu	r2,-4(fp)
  801240:	1005003a 	cmpeq	r2,r2,zero
  801244:	1000021e 	bne	r2,zero,801250 <Chap9_StallEP0+0x3c>
    {
        Hal4D13_StallEP0InControlRead();
  801248:	0802b7c0 	call	802b7c <Hal4D13_StallEP0InControlRead>
  80124c:	00000106 	br	801254 <Chap9_StallEP0+0x40>
    }
    else
    {
        Hal4D13_StallEP0InControlWrite();
  801250:	0802b400 	call	802b40 <Hal4D13_StallEP0InControlWrite>
    }

    RaiseIRQL();
  801254:	08055a80 	call	8055a8 <disable_irq>
    if(!ControlData.Abort)
  801258:	00802074 	movhi	r2,129
  80125c:	109c7d04 	addi	r2,r2,29172
  801260:	10800003 	ldbu	r2,0(r2)
  801264:	10803fcc 	andi	r2,r2,255
  801268:	1004c03a 	cmpne	r2,r2,zero
  80126c:	1000071e 	bne	r2,zero,80128c <Chap9_StallEP0+0x78>
    {
        bD13flags.bits.DCP_state = USBFSM4DCP_STALL;
  801270:	01002074 	movhi	r4,129
  801274:	211c5b04 	addi	r4,r4,29036
  801278:	20c00017 	ldw	r3,0(r4)
  80127c:	00bc3fc4 	movi	r2,-3841
  801280:	1884703a 	and	r2,r3,r2
  801284:	1081c014 	ori	r2,r2,1792
  801288:	20800015 	stw	r2,0(r4)

    }
    LowerIRQL();
  80128c:	08055f80 	call	8055f8 <enable_irq>
}
  801290:	e037883a 	mov	sp,fp
  801294:	dfc00117 	ldw	ra,4(sp)
  801298:	df000017 	ldw	fp,0(sp)
  80129c:	dec00204 	addi	sp,sp,8
  8012a0:	f800283a 	ret

008012a4 <Chap9_StallEP0InControlWrite>:
void Chap9_StallEP0InControlWrite(void)
{
  8012a4:	defffe04 	addi	sp,sp,-8
  8012a8:	dfc00115 	stw	ra,4(sp)
  8012ac:	df000015 	stw	fp,0(sp)
  8012b0:	d839883a 	mov	fp,sp
    Hal4D13_StallEP0InControlWrite();
  8012b4:	0802b400 	call	802b40 <Hal4D13_StallEP0InControlWrite>

    RaiseIRQL();
  8012b8:	08055a80 	call	8055a8 <disable_irq>
    if(!ControlData.Abort)
  8012bc:	00802074 	movhi	r2,129
  8012c0:	109c7d04 	addi	r2,r2,29172
  8012c4:	10800003 	ldbu	r2,0(r2)
  8012c8:	10803fcc 	andi	r2,r2,255
  8012cc:	1004c03a 	cmpne	r2,r2,zero
  8012d0:	1000071e 	bne	r2,zero,8012f0 <Chap9_StallEP0InControlWrite+0x4c>
    {
        bD13flags.bits.DCP_state = USBFSM4DCP_STALL;
  8012d4:	01002074 	movhi	r4,129
  8012d8:	211c5b04 	addi	r4,r4,29036
  8012dc:	20c00017 	ldw	r3,0(r4)
  8012e0:	00bc3fc4 	movi	r2,-3841
  8012e4:	1884703a 	and	r2,r3,r2
  8012e8:	1081c014 	ori	r2,r2,1792
  8012ec:	20800015 	stw	r2,0(r4)

    }
    LowerIRQL();
  8012f0:	08055f80 	call	8055f8 <enable_irq>
}
  8012f4:	e037883a 	mov	sp,fp
  8012f8:	dfc00117 	ldw	ra,4(sp)
  8012fc:	df000017 	ldw	fp,0(sp)
  801300:	dec00204 	addi	sp,sp,8
  801304:	f800283a 	ret

00801308 <Chap9_StallEP0InControlRead>:

void Chap9_StallEP0InControlRead(void)
{
  801308:	defffe04 	addi	sp,sp,-8
  80130c:	dfc00115 	stw	ra,4(sp)
  801310:	df000015 	stw	fp,0(sp)
  801314:	d839883a 	mov	fp,sp
    Hal4D13_StallEP0InControlRead();
  801318:	0802b7c0 	call	802b7c <Hal4D13_StallEP0InControlRead>
    RaiseIRQL();
  80131c:	08055a80 	call	8055a8 <disable_irq>
    if(!ControlData.Abort)
  801320:	00802074 	movhi	r2,129
  801324:	109c7d04 	addi	r2,r2,29172
  801328:	10800003 	ldbu	r2,0(r2)
  80132c:	10803fcc 	andi	r2,r2,255
  801330:	1004c03a 	cmpne	r2,r2,zero
  801334:	1000071e 	bne	r2,zero,801354 <Chap9_StallEP0InControlRead+0x4c>
    {
        bD13flags.bits.DCP_state = USBFSM4DCP_STALL;
  801338:	01002074 	movhi	r4,129
  80133c:	211c5b04 	addi	r4,r4,29036
  801340:	20c00017 	ldw	r3,0(r4)
  801344:	00bc3fc4 	movi	r2,-3841
  801348:	1884703a 	and	r2,r3,r2
  80134c:	1081c014 	ori	r2,r2,1792
  801350:	20800015 	stw	r2,0(r4)

    }
    LowerIRQL();
  801354:	08055f80 	call	8055f8 <enable_irq>
}
  801358:	e037883a 	mov	sp,fp
  80135c:	dfc00117 	ldw	ra,4(sp)
  801360:	df000017 	ldw	fp,0(sp)
  801364:	dec00204 	addi	sp,sp,8
  801368:	f800283a 	ret

0080136c <Chap9_SingleTransmitEP0>:

void Chap9_SingleTransmitEP0(PUCHAR buf, USHORT len)
{
  80136c:	defffc04 	addi	sp,sp,-16
  801370:	dfc00315 	stw	ra,12(sp)
  801374:	df000215 	stw	fp,8(sp)
  801378:	df000204 	addi	fp,sp,8
  80137c:	e13ffe15 	stw	r4,-8(fp)
  801380:	e17fff0d 	sth	r5,-4(fp)

    Hal4D13_SingleTransmitEP0(buf, len);
  801384:	e17fff0b 	ldhu	r5,-4(fp)
  801388:	e13ffe17 	ldw	r4,-8(fp)
  80138c:	08029900 	call	802990 <Hal4D13_SingleTransmitEP0>

    RaiseIRQL();
  801390:	08055a80 	call	8055a8 <disable_irq>
    if(!ControlData.Abort)
  801394:	00802074 	movhi	r2,129
  801398:	109c7d04 	addi	r2,r2,29172
  80139c:	10800003 	ldbu	r2,0(r2)
  8013a0:	10803fcc 	andi	r2,r2,255
  8013a4:	1004c03a 	cmpne	r2,r2,zero
  8013a8:	1000111e 	bne	r2,zero,8013f0 <Chap9_SingleTransmitEP0+0x84>
    {
        ControlData.wLength = ControlData.wCount = len;
  8013ac:	00c02074 	movhi	r3,129
  8013b0:	18dc7d04 	addi	r3,r3,29172
  8013b4:	e0bfff0b 	ldhu	r2,-4(fp)
  8013b8:	1880030d 	sth	r2,12(r3)
  8013bc:	00802074 	movhi	r2,129
  8013c0:	109c7d04 	addi	r2,r2,29172
  8013c4:	10c0030b 	ldhu	r3,12(r2)
  8013c8:	00802074 	movhi	r2,129
  8013cc:	109c7d04 	addi	r2,r2,29172
  8013d0:	10c0028d 	sth	r3,10(r2)
        bD13flags.bits.DCP_state = USBFSM4DCP_HANDSHAKE;
  8013d4:	01002074 	movhi	r4,129
  8013d8:	211c5b04 	addi	r4,r4,29036
  8013dc:	20c00017 	ldw	r3,0(r4)
  8013e0:	00bc3fc4 	movi	r2,-3841
  8013e4:	1884703a 	and	r2,r3,r2
  8013e8:	10810014 	ori	r2,r2,1024
  8013ec:	20800015 	stw	r2,0(r4)

    }
    LowerIRQL();
  8013f0:	08055f80 	call	8055f8 <enable_irq>
}
  8013f4:	e037883a 	mov	sp,fp
  8013f8:	dfc00117 	ldw	ra,4(sp)
  8013fc:	df000017 	ldw	fp,0(sp)
  801400:	dec00204 	addi	sp,sp,8
  801404:	f800283a 	ret

00801408 <Chap9_BurstTransmitEP0>:

void Chap9_BurstTransmitEP0(PUCHAR pData, USHORT len)
{
  801408:	defffc04 	addi	sp,sp,-16
  80140c:	dfc00315 	stw	ra,12(sp)
  801410:	df000215 	stw	fp,8(sp)
  801414:	df000204 	addi	fp,sp,8
  801418:	e13ffe15 	stw	r4,-8(fp)
  80141c:	e17fff0d 	sth	r5,-4(fp)
    ControlData.wCount = 0;
  801420:	00802074 	movhi	r2,129
  801424:	109c7d04 	addi	r2,r2,29172
  801428:	1000030d 	sth	zero,12(r2)
    if(ControlData.wLength > len)
  80142c:	00802074 	movhi	r2,129
  801430:	109c7d04 	addi	r2,r2,29172
  801434:	1080028b 	ldhu	r2,10(r2)
  801438:	10ffffcc 	andi	r3,r2,65535
  80143c:	e0bfff0b 	ldhu	r2,-4(fp)
  801440:	10c0042e 	bgeu	r2,r3,801454 <Chap9_BurstTransmitEP0+0x4c>
        ControlData.wLength = len;
  801444:	00c02074 	movhi	r3,129
  801448:	18dc7d04 	addi	r3,r3,29172
  80144c:	e0bfff0b 	ldhu	r2,-4(fp)
  801450:	1880028d 	sth	r2,10(r3)

    ControlData.Addr.pData = pData;
  801454:	00c02074 	movhi	r3,129
  801458:	18dc7d04 	addi	r3,r3,29172
  80145c:	e0bffe17 	ldw	r2,-8(fp)
  801460:	18800415 	stw	r2,16(r3)

        if( ControlData.wLength >= EP0_PACKET_SIZE)
  801464:	00802074 	movhi	r2,129
  801468:	109c7d04 	addi	r2,r2,29172
  80146c:	1080028b 	ldhu	r2,10(r2)
  801470:	10bfffcc 	andi	r2,r2,65535
  801474:	10801030 	cmpltui	r2,r2,64
  801478:	10001c1e 	bne	r2,zero,8014ec <Chap9_BurstTransmitEP0+0xe4>
        {
            Hal4D13_WriteEndpoint(EPINDEX4EP0_CONTROL_IN, pData, EP0_PACKET_SIZE);
  80147c:	01000044 	movi	r4,1
  801480:	e17ffe17 	ldw	r5,-8(fp)
  801484:	01801004 	movi	r6,64
  801488:	08021a40 	call	8021a4 <Hal4D13_WriteEndpoint>

            RaiseIRQL();
  80148c:	08055a80 	call	8055a8 <disable_irq>
            if(!ControlData.Abort)
  801490:	00802074 	movhi	r2,129
  801494:	109c7d04 	addi	r2,r2,29172
  801498:	10800003 	ldbu	r2,0(r2)
  80149c:	10803fcc 	andi	r2,r2,255
  8014a0:	1004c03a 	cmpne	r2,r2,zero
  8014a4:	10000f1e 	bne	r2,zero,8014e4 <Chap9_BurstTransmitEP0+0xdc>
            {
                ControlData.wCount += EP0_PACKET_SIZE;
  8014a8:	00802074 	movhi	r2,129
  8014ac:	109c7d04 	addi	r2,r2,29172
  8014b0:	1080030b 	ldhu	r2,12(r2)
  8014b4:	10801004 	addi	r2,r2,64
  8014b8:	1007883a 	mov	r3,r2
  8014bc:	00802074 	movhi	r2,129
  8014c0:	109c7d04 	addi	r2,r2,29172
  8014c4:	10c0030d 	sth	r3,12(r2)
                bD13flags.bits.DCP_state = USBFSM4DCP_DATAIN;
  8014c8:	01002074 	movhi	r4,129
  8014cc:	211c5b04 	addi	r4,r4,29036
  8014d0:	20c00017 	ldw	r3,0(r4)
  8014d4:	00bc3fc4 	movi	r2,-3841
  8014d8:	1884703a 	and	r2,r3,r2
  8014dc:	10804014 	ori	r2,r2,256
  8014e0:	20800015 	stw	r2,0(r4)

            }
            LowerIRQL();
  8014e4:	08055f80 	call	8055f8 <enable_irq>
  8014e8:	00002106 	br	801570 <Chap9_BurstTransmitEP0+0x168>
        }
        else
        {
            Hal4D13_WriteEndpoint(EPINDEX4EP0_CONTROL_IN, pData, ControlData.wLength);
  8014ec:	00802074 	movhi	r2,129
  8014f0:	109c7d04 	addi	r2,r2,29172
  8014f4:	1080028b 	ldhu	r2,10(r2)
  8014f8:	11bfffcc 	andi	r6,r2,65535
  8014fc:	01000044 	movi	r4,1
  801500:	e17ffe17 	ldw	r5,-8(fp)
  801504:	08021a40 	call	8021a4 <Hal4D13_WriteEndpoint>

            RaiseIRQL();
  801508:	08055a80 	call	8055a8 <disable_irq>
            if(!ControlData.Abort)
  80150c:	00802074 	movhi	r2,129
  801510:	109c7d04 	addi	r2,r2,29172
  801514:	10800003 	ldbu	r2,0(r2)
  801518:	10803fcc 	andi	r2,r2,255
  80151c:	1004c03a 	cmpne	r2,r2,zero
  801520:	1000121e 	bne	r2,zero,80156c <Chap9_BurstTransmitEP0+0x164>
            {
                ControlData.wCount += ControlData.wLength;
  801524:	00802074 	movhi	r2,129
  801528:	109c7d04 	addi	r2,r2,29172
  80152c:	10c0030b 	ldhu	r3,12(r2)
  801530:	00802074 	movhi	r2,129
  801534:	109c7d04 	addi	r2,r2,29172
  801538:	1080028b 	ldhu	r2,10(r2)
  80153c:	1885883a 	add	r2,r3,r2
  801540:	1007883a 	mov	r3,r2
  801544:	00802074 	movhi	r2,129
  801548:	109c7d04 	addi	r2,r2,29172
  80154c:	10c0030d 	sth	r3,12(r2)
                bD13flags.bits.DCP_state = USBFSM4DCP_HANDSHAKE;
  801550:	01002074 	movhi	r4,129
  801554:	211c5b04 	addi	r4,r4,29036
  801558:	20c00017 	ldw	r3,0(r4)
  80155c:	00bc3fc4 	movi	r2,-3841
  801560:	1884703a 	and	r2,r3,r2
  801564:	10810014 	ori	r2,r2,1024
  801568:	20800015 	stw	r2,0(r4)

            }
            LowerIRQL();
  80156c:	08055f80 	call	8055f8 <enable_irq>
        }
}
  801570:	e037883a 	mov	sp,fp
  801574:	dfc00117 	ldw	ra,4(sp)
  801578:	df000017 	ldw	fp,0(sp)
  80157c:	dec00204 	addi	sp,sp,8
  801580:	f800283a 	ret

00801584 <D13Bus_ControlEntry>:
// *************************************************************************
// Subroutines
// *************************************************************************

void D13Bus_ControlEntry(void)
{
  801584:	defffe04 	addi	sp,sp,-8
  801588:	dfc00115 	stw	ra,4(sp)
  80158c:	df000015 	stw	fp,0(sp)
  801590:	d839883a 	mov	fp,sp
    // No support now, just stall it.
    D13Bus_StallEP0();
  801594:	080190c0 	call	80190c <D13Bus_StallEP0>
}
  801598:	e037883a 	mov	sp,fp
  80159c:	dfc00117 	ldw	ra,4(sp)
  8015a0:	df000017 	ldw	fp,0(sp)
  8015a4:	dec00204 	addi	sp,sp,8
  8015a8:	f800283a 	ret

008015ac <reserved>:

void reserved(void)
{
  8015ac:	defffe04 	addi	sp,sp,-8
  8015b0:	dfc00115 	stw	ra,4(sp)
  8015b4:	df000015 	stw	fp,0(sp)
  8015b8:	d839883a 	mov	fp,sp
    // Undefined commands, stall them
    D13Bus_StallEP0();
  8015bc:	080190c0 	call	80190c <D13Bus_StallEP0>
}
  8015c0:	e037883a 	mov	sp,fp
  8015c4:	dfc00117 	ldw	ra,4(sp)
  8015c8:	df000017 	ldw	fp,0(sp)
  8015cc:	dec00204 	addi	sp,sp,8
  8015d0:	f800283a 	ret

008015d4 <read_write_register>:

void read_write_register(void)
{
  8015d4:	defffd04 	addi	sp,sp,-12
  8015d8:	dfc00215 	stw	ra,8(sp)
  8015dc:	df000115 	stw	fp,4(sp)
  8015e0:	df000104 	addi	fp,sp,4
    unsigned char i;

    if(ControlData.DeviceRequest.bmRequestType & (unsigned char)USB_ENDPOINT_DIRECTION_MASK)
  8015e4:	00802074 	movhi	r2,129
  8015e8:	109c7d04 	addi	r2,r2,29172
  8015ec:	10800083 	ldbu	r2,2(r2)
  8015f0:	10803fcc 	andi	r2,r2,255
  8015f4:	1080201c 	xori	r2,r2,128
  8015f8:	10bfe004 	addi	r2,r2,-128
  8015fc:	1004403a 	cmpge	r2,r2,zero
  801600:	10002e1e 	bne	r2,zero,8016bc <read_write_register+0xe8>
    {
        if(bD13flags.bits.verbose)
  801604:	00802074 	movhi	r2,129
  801608:	109c5b04 	addi	r2,r2,29036
  80160c:	10800017 	ldw	r2,0(r2)
  801610:	1080402c 	andhi	r2,r2,256
  801614:	1005003a 	cmpeq	r2,r2,zero
  801618:	10000f1e 	bne	r2,zero,801658 <read_write_register+0x84>
        {
            printf("Read Registers: Offset = 0x%x, Length = 0x%x, Index = 0x%x.\n",
  80161c:	00802074 	movhi	r2,129
  801620:	109c7d04 	addi	r2,r2,29172
  801624:	1080010b 	ldhu	r2,4(r2)
  801628:	117fffcc 	andi	r5,r2,65535
  80162c:	00802074 	movhi	r2,129
  801630:	109c7d04 	addi	r2,r2,29172
  801634:	1080020b 	ldhu	r2,8(r2)
  801638:	11bfffcc 	andi	r6,r2,65535
  80163c:	00802074 	movhi	r2,129
  801640:	109c7d04 	addi	r2,r2,29172
  801644:	1080018b 	ldhu	r2,6(r2)
  801648:	11ffffcc 	andi	r7,r2,65535
  80164c:	01002074 	movhi	r4,129
  801650:	2109fe04 	addi	r4,r4,10232
  801654:	08063e00 	call	8063e0 <printf>
                ControlData.DeviceRequest.wValue,
                ControlData.DeviceRequest.wLength,
                ControlData.DeviceRequest.wIndex);
        }

        if(ControlData.DeviceRequest.wIndex == GET_FIRMWARE_VERSION &&
  801658:	00802074 	movhi	r2,129
  80165c:	109c7d04 	addi	r2,r2,29172
  801660:	1080018b 	ldhu	r2,6(r2)
  801664:	10bfffcc 	andi	r2,r2,65535
  801668:	10811c98 	cmpnei	r2,r2,1138
  80166c:	10000e1e 	bne	r2,zero,8016a8 <read_write_register+0xd4>
  801670:	00802074 	movhi	r2,129
  801674:	109c7d04 	addi	r2,r2,29172
  801678:	1080010b 	ldhu	r2,4(r2)
  80167c:	10bfffcc 	andi	r2,r2,65535
  801680:	1004c03a 	cmpne	r2,r2,zero
  801684:	1000081e 	bne	r2,zero,8016a8 <read_write_register+0xd4>
  801688:	00802074 	movhi	r2,129
  80168c:	109c7d04 	addi	r2,r2,29172
  801690:	1080020b 	ldhu	r2,8(r2)
  801694:	10bfffcc 	andi	r2,r2,65535
  801698:	10800058 	cmpnei	r2,r2,1
  80169c:	1000021e 	bne	r2,zero,8016a8 <read_write_register+0xd4>
            ControlData.DeviceRequest.wValue == 0 &&
            ControlData.DeviceRequest.wLength == 1)
            {
                get_firmware_version();
  8016a0:	08018d40 	call	8018d4 <get_firmware_version>
                ControlData.DeviceRequest.wValue,
                ControlData.DeviceRequest.wLength,
                ControlData.DeviceRequest.wIndex);
        }

        if(ControlData.DeviceRequest.wIndex == GET_FIRMWARE_VERSION &&
  8016a4:	00004a06 	br	8017d0 <read_write_register+0x1fc>
            {
                get_firmware_version();
            }
        else
        {
            Chap9_StallEP0();
  8016a8:	08012140 	call	801214 <Chap9_StallEP0>
            printf("stall: get firmware version\n");
  8016ac:	01002074 	movhi	r4,129
  8016b0:	210a0e04 	addi	r4,r4,10296
  8016b4:	080651c0 	call	80651c <puts>
  8016b8:	00004506 	br	8017d0 <read_write_register+0x1fc>
        }

    }
    else
    {
        if(bD13flags.bits.verbose)
  8016bc:	00802074 	movhi	r2,129
  8016c0:	109c5b04 	addi	r2,r2,29036
  8016c4:	10800017 	ldw	r2,0(r2)
  8016c8:	1080402c 	andhi	r2,r2,256
  8016cc:	1005003a 	cmpeq	r2,r2,zero
  8016d0:	10002a1e 	bne	r2,zero,80177c <read_write_register+0x1a8>
        {

            printf("Write Registers: Offset = 0x%x, Length = 0x%x, Index = 0x%x.\n",
  8016d4:	00802074 	movhi	r2,129
  8016d8:	109c7d04 	addi	r2,r2,29172
  8016dc:	1080010b 	ldhu	r2,4(r2)
  8016e0:	117fffcc 	andi	r5,r2,65535
  8016e4:	00802074 	movhi	r2,129
  8016e8:	109c7d04 	addi	r2,r2,29172
  8016ec:	1080020b 	ldhu	r2,8(r2)
  8016f0:	11bfffcc 	andi	r6,r2,65535
  8016f4:	00802074 	movhi	r2,129
  8016f8:	109c7d04 	addi	r2,r2,29172
  8016fc:	1080018b 	ldhu	r2,6(r2)
  801700:	11ffffcc 	andi	r7,r2,65535
  801704:	01002074 	movhi	r4,129
  801708:	210a1504 	addi	r4,r4,10324
  80170c:	08063e00 	call	8063e0 <printf>
                ControlData.DeviceRequest.wValue,
                ControlData.DeviceRequest.wLength,
                ControlData.DeviceRequest.wIndex);

            printf("Data: ");
  801710:	01002074 	movhi	r4,129
  801714:	210a2504 	addi	r4,r4,10388
  801718:	08063e00 	call	8063e0 <printf>
            for(i = 0; i < ControlData.DeviceRequest.wLength; i ++)
  80171c:	e03fff05 	stb	zero,-4(fp)
  801720:	00000d06 	br	801758 <read_write_register+0x184>
                printf("0x%x, ", *((ControlData.dataBuffer)+i));
  801724:	e0bfff03 	ldbu	r2,-4(fp)
  801728:	1007883a 	mov	r3,r2
  80172c:	00802074 	movhi	r2,129
  801730:	109c8204 	addi	r2,r2,29192
  801734:	1885883a 	add	r2,r3,r2
  801738:	10800003 	ldbu	r2,0(r2)
  80173c:	11403fcc 	andi	r5,r2,255
  801740:	01002074 	movhi	r4,129
  801744:	210a2704 	addi	r4,r4,10396
  801748:	08063e00 	call	8063e0 <printf>
                ControlData.DeviceRequest.wValue,
                ControlData.DeviceRequest.wLength,
                ControlData.DeviceRequest.wIndex);

            printf("Data: ");
            for(i = 0; i < ControlData.DeviceRequest.wLength; i ++)
  80174c:	e0bfff03 	ldbu	r2,-4(fp)
  801750:	10800044 	addi	r2,r2,1
  801754:	e0bfff05 	stb	r2,-4(fp)
  801758:	e0ffff03 	ldbu	r3,-4(fp)
  80175c:	00802074 	movhi	r2,129
  801760:	109c7d04 	addi	r2,r2,29172
  801764:	1080020b 	ldhu	r2,8(r2)
  801768:	18ffffcc 	andi	r3,r3,65535
  80176c:	10bfffcc 	andi	r2,r2,65535
  801770:	18bfec36 	bltu	r3,r2,801724 <read_write_register+0x150>
                printf("0x%x, ", *((ControlData.dataBuffer)+i));
            printf("\n");
  801774:	01000284 	movi	r4,10
  801778:	08064580 	call	806458 <putchar>
        }

        if(ControlData.DeviceRequest.wIndex == SETUP_DMA_REQUEST &&
  80177c:	00802074 	movhi	r2,129
  801780:	109c7d04 	addi	r2,r2,29172
  801784:	1080018b 	ldhu	r2,6(r2)
  801788:	10bfffcc 	andi	r2,r2,65535
  80178c:	10811c58 	cmpnei	r2,r2,1137
  801790:	10000f1e 	bne	r2,zero,8017d0 <read_write_register+0x1fc>
  801794:	00802074 	movhi	r2,129
  801798:	109c7d04 	addi	r2,r2,29172
  80179c:	1080010b 	ldhu	r2,4(r2)
  8017a0:	10bfffcc 	andi	r2,r2,65535
  8017a4:	1004c03a 	cmpne	r2,r2,zero
  8017a8:	1000091e 	bne	r2,zero,8017d0 <read_write_register+0x1fc>
  8017ac:	00802074 	movhi	r2,129
  8017b0:	109c7d04 	addi	r2,r2,29172
  8017b4:	1080020b 	ldhu	r2,8(r2)
  8017b8:	10bfffcc 	andi	r2,r2,65535
  8017bc:	10800198 	cmpnei	r2,r2,6
  8017c0:	1000031e 	bne	r2,zero,8017d0 <read_write_register+0x1fc>
            ControlData.DeviceRequest.wValue == 0 &&
            ControlData.DeviceRequest.wLength == 6)
            {
                RaiseIRQL();
  8017c4:	08055a80 	call	8055a8 <disable_irq>
                setup_dma_request();
  8017c8:	08017e40 	call	8017e4 <setup_dma_request>
                LowerIRQL();
  8017cc:	08055f80 	call	8055f8 <enable_irq>
            }

    }
}
  8017d0:	e037883a 	mov	sp,fp
  8017d4:	dfc00117 	ldw	ra,4(sp)
  8017d8:	df000017 	ldw	fp,0(sp)
  8017dc:	dec00204 	addi	sp,sp,8
  8017e0:	f800283a 	ret

008017e4 <setup_dma_request>:

void setup_dma_request()
{
  8017e4:	defffe04 	addi	sp,sp,-8
  8017e8:	dfc00115 	stw	ra,4(sp)
  8017ec:	df000015 	stw	fp,0(sp)
  8017f0:	d839883a 	mov	fp,sp
    memcpy((unsigned char *)&ioRequest + ControlData.DeviceRequest.wValue,
  8017f4:	00802074 	movhi	r2,129
  8017f8:	109c7d04 	addi	r2,r2,29172
  8017fc:	1080010b 	ldhu	r2,4(r2)
  801800:	10bfffcc 	andi	r2,r2,65535
  801804:	1007883a 	mov	r3,r2
  801808:	00802074 	movhi	r2,129
  80180c:	109c5f04 	addi	r2,r2,29052
  801810:	1887883a 	add	r3,r3,r2
  801814:	00802074 	movhi	r2,129
  801818:	109c7d04 	addi	r2,r2,29172
  80181c:	1080020b 	ldhu	r2,8(r2)
  801820:	11bfffcc 	andi	r6,r2,65535
  801824:	00802074 	movhi	r2,129
  801828:	109c8204 	addi	r2,r2,29192
  80182c:	1809883a 	mov	r4,r3
  801830:	100b883a 	mov	r5,r2
  801834:	08063400 	call	806340 <memcpy>
        ControlData.dataBuffer,
        ControlData.DeviceRequest.wLength);

    ioRequest.uSize = SWAP(ioRequest.uSize);
  801838:	00802074 	movhi	r2,129
  80183c:	109c5f04 	addi	r2,r2,29052
  801840:	10c0010b 	ldhu	r3,4(r2)
  801844:	00802074 	movhi	r2,129
  801848:	109c5f04 	addi	r2,r2,29052
  80184c:	10c0010d 	sth	r3,4(r2)
    ioRequest.uAddressL = SWAP(ioRequest.uAddressL);
  801850:	00802074 	movhi	r2,129
  801854:	109c5f04 	addi	r2,r2,29052
  801858:	10c0000b 	ldhu	r3,0(r2)
  80185c:	00802074 	movhi	r2,129
  801860:	109c5f04 	addi	r2,r2,29052
  801864:	10c0000d 	sth	r3,0(r2)
    printf("Setup Data: addL, addH, uSize =%x, %x, %x \n", \
  801868:	00802074 	movhi	r2,129
  80186c:	109c5f04 	addi	r2,r2,29052
  801870:	1080000b 	ldhu	r2,0(r2)
  801874:	117fffcc 	andi	r5,r2,65535
  801878:	00802074 	movhi	r2,129
  80187c:	109c5f04 	addi	r2,r2,29052
  801880:	10800083 	ldbu	r2,2(r2)
  801884:	11803fcc 	andi	r6,r2,255
  801888:	00802074 	movhi	r2,129
  80188c:	109c5f04 	addi	r2,r2,29052
  801890:	1080010b 	ldhu	r2,4(r2)
  801894:	11ffffcc 	andi	r7,r2,65535
  801898:	01002074 	movhi	r4,129
  80189c:	210a2904 	addi	r4,r4,10404
  8018a0:	08063e00 	call	8063e0 <printf>
        Chap9_StallEP0();
        printf("stall: ioRequest.uSize > DMA_BUFFER_SIZE.\n");
    }
    else
    {
        RaiseIRQL();
  8018a4:	08055a80 	call	8055a8 <disable_irq>
        bD13flags.bits.setup_dma = 1;
  8018a8:	00c02074 	movhi	r3,129
  8018ac:	18dc5b04 	addi	r3,r3,29036
  8018b0:	18800017 	ldw	r2,0(r3)
  8018b4:	10800074 	orhi	r2,r2,1
  8018b8:	18800015 	stw	r2,0(r3)
        LowerIRQL();
  8018bc:	08055f80 	call	8055f8 <enable_irq>
    }
}
  8018c0:	e037883a 	mov	sp,fp
  8018c4:	dfc00117 	ldw	ra,4(sp)
  8018c8:	df000017 	ldw	fp,0(sp)
  8018cc:	dec00204 	addi	sp,sp,8
  8018d0:	f800283a 	ret

008018d4 <get_firmware_version>:

void get_firmware_version()
{
  8018d4:	defffd04 	addi	sp,sp,-12
  8018d8:	dfc00215 	stw	ra,8(sp)
  8018dc:	df000115 	stw	fp,4(sp)
  8018e0:	df000104 	addi	fp,sp,4
    unsigned char i;

    i = 0x01; 
  8018e4:	00800044 	movi	r2,1
  8018e8:	e0bfff05 	stb	r2,-4(fp)
    D13Bus_SingleTransmitEP0(&i, 1);
  8018ec:	e13fff04 	addi	r4,fp,-4
  8018f0:	01400044 	movi	r5,1
  8018f4:	08019340 	call	801934 <D13Bus_SingleTransmitEP0>
}
  8018f8:	e037883a 	mov	sp,fp
  8018fc:	dfc00117 	ldw	ra,4(sp)
  801900:	df000017 	ldw	fp,0(sp)
  801904:	dec00204 	addi	sp,sp,8
  801908:	f800283a 	ret

0080190c <D13Bus_StallEP0>:
// *************************************************************************
// D13Bus support functions
// *************************************************************************

void D13Bus_StallEP0(void)
{
  80190c:	defffe04 	addi	sp,sp,-8
  801910:	dfc00115 	stw	ra,4(sp)
  801914:	df000015 	stw	fp,0(sp)
  801918:	d839883a 	mov	fp,sp
    Chap9_StallEP0();
  80191c:	08012140 	call	801214 <Chap9_StallEP0>
}
  801920:	e037883a 	mov	sp,fp
  801924:	dfc00117 	ldw	ra,4(sp)
  801928:	df000017 	ldw	fp,0(sp)
  80192c:	dec00204 	addi	sp,sp,8
  801930:	f800283a 	ret

00801934 <D13Bus_SingleTransmitEP0>:

void D13Bus_SingleTransmitEP0(UCHAR * buf, UCHAR len)
{
  801934:	defffc04 	addi	sp,sp,-16
  801938:	dfc00315 	stw	ra,12(sp)
  80193c:	df000215 	stw	fp,8(sp)
  801940:	df000204 	addi	fp,sp,8
  801944:	e13ffe15 	stw	r4,-8(fp)
  801948:	e17fff05 	stb	r5,-4(fp)
    Hal4D13_SingleTransmitEP0(buf, len);
  80194c:	e17fff03 	ldbu	r5,-4(fp)
  801950:	e13ffe17 	ldw	r4,-8(fp)
  801954:	08029900 	call	802990 <Hal4D13_SingleTransmitEP0>

    RaiseIRQL();
  801958:	08055a80 	call	8055a8 <disable_irq>
    if(!ControlData.Abort)
  80195c:	00802074 	movhi	r2,129
  801960:	109c7d04 	addi	r2,r2,29172
  801964:	10800003 	ldbu	r2,0(r2)
  801968:	10803fcc 	andi	r2,r2,255
  80196c:	1004c03a 	cmpne	r2,r2,zero
  801970:	1000111e 	bne	r2,zero,8019b8 <D13Bus_SingleTransmitEP0+0x84>
    {
        ControlData.wLength = ControlData.wCount = len;
  801974:	e0ffff03 	ldbu	r3,-4(fp)
  801978:	00802074 	movhi	r2,129
  80197c:	109c7d04 	addi	r2,r2,29172
  801980:	10c0030d 	sth	r3,12(r2)
  801984:	00802074 	movhi	r2,129
  801988:	109c7d04 	addi	r2,r2,29172
  80198c:	10c0030b 	ldhu	r3,12(r2)
  801990:	00802074 	movhi	r2,129
  801994:	109c7d04 	addi	r2,r2,29172
  801998:	10c0028d 	sth	r3,10(r2)
        bD13flags.bits.DCP_state = USBFSM4DCP_HANDSHAKE;
  80199c:	01002074 	movhi	r4,129
  8019a0:	211c5b04 	addi	r4,r4,29036
  8019a4:	20c00017 	ldw	r3,0(r4)
  8019a8:	00bc3fc4 	movi	r2,-3841
  8019ac:	1884703a 	and	r2,r3,r2
  8019b0:	10810014 	ori	r2,r2,1024
  8019b4:	20800015 	stw	r2,0(r4)
    }
    LowerIRQL();
  8019b8:	08055f80 	call	8055f8 <enable_irq>

}
  8019bc:	e037883a 	mov	sp,fp
  8019c0:	dfc00117 	ldw	ra,4(sp)
  8019c4:	df000017 	ldw	fp,0(sp)
  8019c8:	dec00204 	addi	sp,sp,8
  8019cc:	f800283a 	ret

008019d0 <D13Bus_BurstTransmitEP0>:

void D13Bus_BurstTransmitEP0(UCHAR * pData, USHORT len)
{
  8019d0:	defffc04 	addi	sp,sp,-16
  8019d4:	dfc00315 	stw	ra,12(sp)
  8019d8:	df000215 	stw	fp,8(sp)
  8019dc:	df000204 	addi	fp,sp,8
  8019e0:	e13ffe15 	stw	r4,-8(fp)
  8019e4:	e17fff0d 	sth	r5,-4(fp)
    ControlData.wCount = 0;
  8019e8:	00802074 	movhi	r2,129
  8019ec:	109c7d04 	addi	r2,r2,29172
  8019f0:	1000030d 	sth	zero,12(r2)
    if(ControlData.wLength > len)
  8019f4:	00802074 	movhi	r2,129
  8019f8:	109c7d04 	addi	r2,r2,29172
  8019fc:	1080028b 	ldhu	r2,10(r2)
  801a00:	10ffffcc 	andi	r3,r2,65535
  801a04:	e0bfff0b 	ldhu	r2,-4(fp)
  801a08:	10c0042e 	bgeu	r2,r3,801a1c <D13Bus_BurstTransmitEP0+0x4c>
        ControlData.wLength = len;
  801a0c:	00c02074 	movhi	r3,129
  801a10:	18dc7d04 	addi	r3,r3,29172
  801a14:	e0bfff0b 	ldhu	r2,-4(fp)
  801a18:	1880028d 	sth	r2,10(r3)

    ControlData.Addr.pData = pData;
  801a1c:	00c02074 	movhi	r3,129
  801a20:	18dc7d04 	addi	r3,r3,29172
  801a24:	e0bffe17 	ldw	r2,-8(fp)
  801a28:	18800415 	stw	r2,16(r3)
    if( ControlData.wLength >= EP0_PACKET_SIZE)
  801a2c:	00802074 	movhi	r2,129
  801a30:	109c7d04 	addi	r2,r2,29172
  801a34:	1080028b 	ldhu	r2,10(r2)
  801a38:	10bfffcc 	andi	r2,r2,65535
  801a3c:	10801030 	cmpltui	r2,r2,64
  801a40:	10001e1e 	bne	r2,zero,801abc <D13Bus_BurstTransmitEP0+0xec>
    {
        Hal4D13_WriteEndpoint(EPINDEX4EP0_CONTROL_IN, ControlData.Addr.pData, EP0_PACKET_SIZE);
  801a44:	00802074 	movhi	r2,129
  801a48:	109c7d04 	addi	r2,r2,29172
  801a4c:	11400417 	ldw	r5,16(r2)
  801a50:	01000044 	movi	r4,1
  801a54:	01801004 	movi	r6,64
  801a58:	08021a40 	call	8021a4 <Hal4D13_WriteEndpoint>
        RaiseIRQL();
  801a5c:	08055a80 	call	8055a8 <disable_irq>
        if(!ControlData.Abort)
  801a60:	00802074 	movhi	r2,129
  801a64:	109c7d04 	addi	r2,r2,29172
  801a68:	10800003 	ldbu	r2,0(r2)
  801a6c:	10803fcc 	andi	r2,r2,255
  801a70:	1004c03a 	cmpne	r2,r2,zero
  801a74:	10000f1e 	bne	r2,zero,801ab4 <D13Bus_BurstTransmitEP0+0xe4>
        {
            ControlData.wCount += EP0_PACKET_SIZE;
  801a78:	00802074 	movhi	r2,129
  801a7c:	109c7d04 	addi	r2,r2,29172
  801a80:	1080030b 	ldhu	r2,12(r2)
  801a84:	10801004 	addi	r2,r2,64
  801a88:	1007883a 	mov	r3,r2
  801a8c:	00802074 	movhi	r2,129
  801a90:	109c7d04 	addi	r2,r2,29172
  801a94:	10c0030d 	sth	r3,12(r2)
            bD13flags.bits.DCP_state = USBFSM4DCP_DATAIN;
  801a98:	01002074 	movhi	r4,129
  801a9c:	211c5b04 	addi	r4,r4,29036
  801aa0:	20c00017 	ldw	r3,0(r4)
  801aa4:	00bc3fc4 	movi	r2,-3841
  801aa8:	1884703a 	and	r2,r3,r2
  801aac:	10804014 	ori	r2,r2,256
  801ab0:	20800015 	stw	r2,0(r4)
        }

        LowerIRQL();
  801ab4:	08055f80 	call	8055f8 <enable_irq>
  801ab8:	00002106 	br	801b40 <D13Bus_BurstTransmitEP0+0x170>

    }
    else
    {
        Hal4D13_WriteEndpoint(EPINDEX4EP0_CONTROL_IN, pData, ControlData.wLength);
  801abc:	00802074 	movhi	r2,129
  801ac0:	109c7d04 	addi	r2,r2,29172
  801ac4:	1080028b 	ldhu	r2,10(r2)
  801ac8:	11bfffcc 	andi	r6,r2,65535
  801acc:	01000044 	movi	r4,1
  801ad0:	e17ffe17 	ldw	r5,-8(fp)
  801ad4:	08021a40 	call	8021a4 <Hal4D13_WriteEndpoint>
        RaiseIRQL();
  801ad8:	08055a80 	call	8055a8 <disable_irq>
        if(!ControlData.Abort)
  801adc:	00802074 	movhi	r2,129
  801ae0:	109c7d04 	addi	r2,r2,29172
  801ae4:	10800003 	ldbu	r2,0(r2)
  801ae8:	10803fcc 	andi	r2,r2,255
  801aec:	1004c03a 	cmpne	r2,r2,zero
  801af0:	1000121e 	bne	r2,zero,801b3c <D13Bus_BurstTransmitEP0+0x16c>
        {
            ControlData.wCount += ControlData.wLength;
  801af4:	00802074 	movhi	r2,129
  801af8:	109c7d04 	addi	r2,r2,29172
  801afc:	10c0030b 	ldhu	r3,12(r2)
  801b00:	00802074 	movhi	r2,129
  801b04:	109c7d04 	addi	r2,r2,29172
  801b08:	1080028b 	ldhu	r2,10(r2)
  801b0c:	1885883a 	add	r2,r3,r2
  801b10:	1007883a 	mov	r3,r2
  801b14:	00802074 	movhi	r2,129
  801b18:	109c7d04 	addi	r2,r2,29172
  801b1c:	10c0030d 	sth	r3,12(r2)
            bD13flags.bits.DCP_state = USBFSM4DCP_DATAIN;
  801b20:	01002074 	movhi	r4,129
  801b24:	211c5b04 	addi	r4,r4,29036
  801b28:	20c00017 	ldw	r3,0(r4)
  801b2c:	00bc3fc4 	movi	r2,-3841
  801b30:	1884703a 	and	r2,r3,r2
  801b34:	10804014 	ori	r2,r2,256
  801b38:	20800015 	stw	r2,0(r4)
        }
        LowerIRQL();
  801b3c:	08055f80 	call	8055f8 <enable_irq>
    }
}
  801b40:	e037883a 	mov	sp,fp
  801b44:	dfc00117 	ldw	ra,4(sp)
  801b48:	df000017 	ldw	fp,0(sp)
  801b4c:	dec00204 	addi	sp,sp,8
  801b50:	f800283a 	ret

00801b54 <Hal4D13_AcquireD13>:
// Subroutines -- 1
// ************************************************************************
*/

void Hal4D13_AcquireD13(unsigned char g_host_IRQ_num, void *usb_isr)
{
  801b54:	defffc04 	addi	sp,sp,-16
  801b58:	dfc00315 	stw	ra,12(sp)
  801b5c:	df000215 	stw	fp,8(sp)
  801b60:	df000204 	addi	fp,sp,8
  801b64:	e17fff15 	stw	r5,-4(fp)
  801b68:	e13ffe05 	stb	r4,-8(fp)
	alt_irq_register (USB_0_IRQ, NULL, usb_isr);
  801b6c:	e1bfff17 	ldw	r6,-4(fp)
  801b70:	01000084 	movi	r4,2
  801b74:	000b883a 	mov	r5,zero
  801b78:	080f9540 	call	80f954 <alt_irq_register>
}
  801b7c:	e037883a 	mov	sp,fp
  801b80:	dfc00117 	ldw	ra,4(sp)
  801b84:	df000017 	ldw	fp,0(sp)
  801b88:	dec00204 	addi	sp,sp,8
  801b8c:	f800283a 	ret

00801b90 <Hal4D13_ResetDevice>:

void Hal4D13_ResetDevice(void)
{
  801b90:	deffff04 	addi	sp,sp,-4
  801b94:	df000015 	stw	fp,0(sp)
  801b98:	d839883a 	mov	fp,sp
  IOWR(USB_0_BASE,D13_COMMAND_PORT,D13CMD_DEV_RESET);
  801b9c:	00c04474 	movhi	r3,273
  801ba0:	18e40b04 	addi	r3,r3,-28628
  801ba4:	00803d84 	movi	r2,246
  801ba8:	18800035 	stwio	r2,0(r3)
}
  801bac:	e037883a 	mov	sp,fp
  801bb0:	df000017 	ldw	fp,0(sp)
  801bb4:	dec00104 	addi	sp,sp,4
  801bb8:	f800283a 	ret

00801bbc <Hal4D13_GetDevConfig>:

USHORT Hal4D13_GetDevConfig(void)
{
  801bbc:	defffe04 	addi	sp,sp,-8
  801bc0:	df000115 	stw	fp,4(sp)
  801bc4:	df000104 	addi	fp,sp,4
  USHORT i; 
  IOWR(USB_0_BASE,D13_COMMAND_PORT,D13CMD_DEV_RD_CNFG);
  801bc8:	00c04474 	movhi	r3,273
  801bcc:	18e40b04 	addi	r3,r3,-28628
  801bd0:	00802ec4 	movi	r2,187
  801bd4:	18800035 	stwio	r2,0(r3)
  i = IORD(USB_0_BASE,D13_DATA_PORT);
  801bd8:	00804474 	movhi	r2,273
  801bdc:	10a40a04 	addi	r2,r2,-28632
  801be0:	10800037 	ldwio	r2,0(r2)
  801be4:	e0bfff0d 	sth	r2,-4(fp)
  return i;
  801be8:	e0bfff0b 	ldhu	r2,-4(fp)
}
  801bec:	e037883a 	mov	sp,fp
  801bf0:	df000017 	ldw	fp,0(sp)
  801bf4:	dec00104 	addi	sp,sp,4
  801bf8:	f800283a 	ret

00801bfc <Hal4D13_SetDevConfig>:

void Hal4D13_SetDevConfig(USHORT wDevCnfg)
{
  801bfc:	defffe04 	addi	sp,sp,-8
  801c00:	df000115 	stw	fp,4(sp)
  801c04:	df000104 	addi	fp,sp,4
  801c08:	e13fff0d 	sth	r4,-4(fp)
  IOWR(USB_0_BASE,D13_COMMAND_PORT,D13CMD_DEV_WR_CNFG);
  801c0c:	00c04474 	movhi	r3,273
  801c10:	18e40b04 	addi	r3,r3,-28628
  801c14:	00802e84 	movi	r2,186
  801c18:	18800035 	stwio	r2,0(r3)
  IOWR(USB_0_BASE,D13_DATA_PORT, wDevCnfg);
  801c1c:	e0ffff0b 	ldhu	r3,-4(fp)
  801c20:	00804474 	movhi	r2,273
  801c24:	10a40a04 	addi	r2,r2,-28632
  801c28:	10c00035 	stwio	r3,0(r2)
}
  801c2c:	e037883a 	mov	sp,fp
  801c30:	df000017 	ldw	fp,0(sp)
  801c34:	dec00104 	addi	sp,sp,4
  801c38:	f800283a 	ret

00801c3c <Hal4D13_SetMode>:

void Hal4D13_SetMode(UCHAR bMode)
{
  801c3c:	defffe04 	addi	sp,sp,-8
  801c40:	df000115 	stw	fp,4(sp)
  801c44:	df000104 	addi	fp,sp,4
  801c48:	e13fff05 	stb	r4,-4(fp)
  IOWR(USB_0_BASE,D13_COMMAND_PORT, D13CMD_DEV_WR_MODE);
  801c4c:	00c04474 	movhi	r3,273
  801c50:	18e40b04 	addi	r3,r3,-28628
  801c54:	00802e04 	movi	r2,184
  801c58:	18800035 	stwio	r2,0(r3)
  IOWR(USB_0_BASE,D13_DATA_PORT, bMode);
  801c5c:	e0ffff03 	ldbu	r3,-4(fp)
  801c60:	00804474 	movhi	r2,273
  801c64:	10a40a04 	addi	r2,r2,-28632
  801c68:	10c00035 	stwio	r3,0(r2)
}
  801c6c:	e037883a 	mov	sp,fp
  801c70:	df000017 	ldw	fp,0(sp)
  801c74:	dec00104 	addi	sp,sp,4
  801c78:	f800283a 	ret

00801c7c <Hal4D13_GetMode>:

UCHAR Hal4D13_GetMode(void)
{
  801c7c:	defffe04 	addi	sp,sp,-8
  801c80:	df000115 	stw	fp,4(sp)
  801c84:	df000104 	addi	fp,sp,4
    UCHAR c;   
  IOWR(USB_0_BASE,D13_COMMAND_PORT, D13CMD_DEV_RD_MODE);
  801c88:	00c04474 	movhi	r3,273
  801c8c:	18e40b04 	addi	r3,r3,-28628
  801c90:	00802e44 	movi	r2,185
  801c94:	18800035 	stwio	r2,0(r3)
  c = (UCHAR)(IORD(USB_0_BASE,D13_DATA_PORT) & 0x0ff);
  801c98:	00804474 	movhi	r2,273
  801c9c:	10a40a04 	addi	r2,r2,-28632
  801ca0:	10800037 	ldwio	r2,0(r2)
  801ca4:	1007883a 	mov	r3,r2
  801ca8:	00bfffc4 	movi	r2,-1
  801cac:	1884703a 	and	r2,r3,r2
  801cb0:	e0bfff05 	stb	r2,-4(fp)
    return c;
  801cb4:	e0bfff03 	ldbu	r2,-4(fp)
}
  801cb8:	e037883a 	mov	sp,fp
  801cbc:	df000017 	ldw	fp,0(sp)
  801cc0:	dec00104 	addi	sp,sp,4
  801cc4:	f800283a 	ret

00801cc8 <Hal4D13_GetAddress>:

UCHAR Hal4D13_GetAddress(void)
{
  801cc8:	defffe04 	addi	sp,sp,-8
  801ccc:	df000115 	stw	fp,4(sp)
  801cd0:	df000104 	addi	fp,sp,4
    UCHAR c; 
    IOWR(USB_0_BASE,D13_COMMAND_PORT, D13CMD_DEV_RD_ADDR);
  801cd4:	00c04474 	movhi	r3,273
  801cd8:	18e40b04 	addi	r3,r3,-28628
  801cdc:	00802dc4 	movi	r2,183
  801ce0:	18800035 	stwio	r2,0(r3)
    c = (UCHAR)(IORD(USB_0_BASE,D13_DATA_PORT) & 0x0ff);
  801ce4:	00804474 	movhi	r2,273
  801ce8:	10a40a04 	addi	r2,r2,-28632
  801cec:	10800037 	ldwio	r2,0(r2)
  801cf0:	1007883a 	mov	r3,r2
  801cf4:	00bfffc4 	movi	r2,-1
  801cf8:	1884703a 	and	r2,r3,r2
  801cfc:	e0bfff05 	stb	r2,-4(fp)
    return c;
  801d00:	e0bfff03 	ldbu	r2,-4(fp)
}
  801d04:	e037883a 	mov	sp,fp
  801d08:	df000017 	ldw	fp,0(sp)
  801d0c:	dec00104 	addi	sp,sp,4
  801d10:	f800283a 	ret

00801d14 <Hal4D13_SetAddressEnable>:

void Hal4D13_SetAddressEnable(UCHAR bAddress, UCHAR bEnable)
{
  801d14:	defffd04 	addi	sp,sp,-12
  801d18:	df000215 	stw	fp,8(sp)
  801d1c:	df000204 	addi	fp,sp,8
  801d20:	e13ffe05 	stb	r4,-8(fp)
  801d24:	e17fff05 	stb	r5,-4(fp)
  IOWR(USB_0_BASE,D13_COMMAND_PORT, D13CMD_DEV_WR_ADDR);
  801d28:	00c04474 	movhi	r3,273
  801d2c:	18e40b04 	addi	r3,r3,-28628
  801d30:	00802d84 	movi	r2,182
  801d34:	18800035 	stwio	r2,0(r3)
  if(bEnable)
  801d38:	e0bfff03 	ldbu	r2,-4(fp)
  801d3c:	1005003a 	cmpeq	r2,r2,zero
  801d40:	1000051e 	bne	r2,zero,801d58 <Hal4D13_SetAddressEnable+0x44>
  bAddress |= D13REG_DEVADDR_EN;
  801d44:	e0bffe03 	ldbu	r2,-8(fp)
  801d48:	00ffe004 	movi	r3,-128
  801d4c:	10c4b03a 	or	r2,r2,r3
  801d50:	e0bffe05 	stb	r2,-8(fp)
  801d54:	00000306 	br	801d64 <Hal4D13_SetAddressEnable+0x50>
  else
  bAddress &= D13REG_DEVADDR_MASK;
  801d58:	e0bffe03 	ldbu	r2,-8(fp)
  801d5c:	10801fcc 	andi	r2,r2,127
  801d60:	e0bffe05 	stb	r2,-8(fp)
  IOWR(USB_0_BASE,D13_DATA_PORT, bAddress);
  801d64:	e0fffe03 	ldbu	r3,-8(fp)
  801d68:	00804474 	movhi	r2,273
  801d6c:	10a40a04 	addi	r2,r2,-28632
  801d70:	10c00035 	stwio	r3,0(r2)
}
  801d74:	e037883a 	mov	sp,fp
  801d78:	df000017 	ldw	fp,0(sp)
  801d7c:	dec00104 	addi	sp,sp,4
  801d80:	f800283a 	ret

00801d84 <Hal4D13_SoftConnect>:

void Hal4D13_SoftConnect(UCHAR bEnable)
{
  801d84:	defffd04 	addi	sp,sp,-12
  801d88:	df000215 	stw	fp,8(sp)
  801d8c:	df000204 	addi	fp,sp,8
  801d90:	e13fff05 	stb	r4,-4(fp)
    UCHAR c;
  IOWR(USB_0_BASE,D13_COMMAND_PORT, D13CMD_DEV_RD_MODE);
  801d94:	00c04474 	movhi	r3,273
  801d98:	18e40b04 	addi	r3,r3,-28628
  801d9c:	00802e44 	movi	r2,185
  801da0:	18800035 	stwio	r2,0(r3)
  c = (UCHAR)(IORD(USB_0_BASE,D13_DATA_PORT) & 0x0ff);
  801da4:	00804474 	movhi	r2,273
  801da8:	10a40a04 	addi	r2,r2,-28632
  801dac:	10800037 	ldwio	r2,0(r2)
  801db0:	1007883a 	mov	r3,r2
  801db4:	00bfffc4 	movi	r2,-1
  801db8:	1884703a 	and	r2,r3,r2
  801dbc:	e0bffe05 	stb	r2,-8(fp)
  if(bEnable)
  801dc0:	e0bfff03 	ldbu	r2,-4(fp)
  801dc4:	1005003a 	cmpeq	r2,r2,zero
  801dc8:	1000041e 	bne	r2,zero,801ddc <Hal4D13_SoftConnect+0x58>
  c |= D13REG_MODE_SOFTCONNECT;
  801dcc:	e0bffe03 	ldbu	r2,-8(fp)
  801dd0:	10800054 	ori	r2,r2,1
  801dd4:	e0bffe05 	stb	r2,-8(fp)
  801dd8:	00000406 	br	801dec <Hal4D13_SoftConnect+0x68>
  else
  c &= ~D13REG_MODE_SOFTCONNECT;  
  801ddc:	e0bffe03 	ldbu	r2,-8(fp)
  801de0:	00ffff84 	movi	r3,-2
  801de4:	10c4703a 	and	r2,r2,r3
  801de8:	e0bffe05 	stb	r2,-8(fp)
    IOWR(USB_0_BASE,D13_COMMAND_PORT, D13CMD_DEV_WR_MODE);
  801dec:	00c04474 	movhi	r3,273
  801df0:	18e40b04 	addi	r3,r3,-28628
  801df4:	00802e04 	movi	r2,184
  801df8:	18800035 	stwio	r2,0(r3)
  IOWR(USB_0_BASE,D13_DATA_PORT, c);
  801dfc:	e0fffe03 	ldbu	r3,-8(fp)
  801e00:	00804474 	movhi	r2,273
  801e04:	10a40a04 	addi	r2,r2,-28632
  801e08:	10c00035 	stwio	r3,0(r2)
}
  801e0c:	e037883a 	mov	sp,fp
  801e10:	df000017 	ldw	fp,0(sp)
  801e14:	dec00104 	addi	sp,sp,4
  801e18:	f800283a 	ret

00801e1c <Hal4D13_AcknowledgeSETUP>:

void Hal4D13_AcknowledgeSETUP(void)
{
  801e1c:	deffff04 	addi	sp,sp,-4
  801e20:	df000015 	stw	fp,0(sp)
  801e24:	d839883a 	mov	fp,sp
  IOWR(USB_0_BASE,D13_COMMAND_PORT, D13CMD_ACK_SETUP);
  801e28:	00c04474 	movhi	r3,273
  801e2c:	18e40b04 	addi	r3,r3,-28628
  801e30:	00803d04 	movi	r2,244
  801e34:	18800035 	stwio	r2,0(r3)
}
  801e38:	e037883a 	mov	sp,fp
  801e3c:	df000017 	ldw	fp,0(sp)
  801e40:	dec00104 	addi	sp,sp,4
  801e44:	f800283a 	ret

00801e48 <Hal4D13_ClearBuffer>:

void Hal4D13_ClearBuffer(UCHAR bEPIndex)
{
  801e48:	defffe04 	addi	sp,sp,-8
  801e4c:	df000115 	stw	fp,4(sp)
  801e50:	df000104 	addi	fp,sp,4
  801e54:	e13fff05 	stb	r4,-4(fp)
  /* Select Endpoint */
    IOWR(USB_0_BASE,D13_COMMAND_PORT, D13CMD_EP_CLEAR_BUF + bEPIndex);
  801e58:	e0bfff03 	ldbu	r2,-4(fp)
  801e5c:	10c01c04 	addi	r3,r2,112
  801e60:	00804474 	movhi	r2,273
  801e64:	10a40b04 	addi	r2,r2,-28628
  801e68:	10c00035 	stwio	r3,0(r2)
}
  801e6c:	e037883a 	mov	sp,fp
  801e70:	df000017 	ldw	fp,0(sp)
  801e74:	dec00104 	addi	sp,sp,4
  801e78:	f800283a 	ret

00801e7c <Hal4D13_ValidBuffer>:

void Hal4D13_ValidBuffer(UCHAR bEPIndex)
{
  801e7c:	defffe04 	addi	sp,sp,-8
  801e80:	df000115 	stw	fp,4(sp)
  801e84:	df000104 	addi	fp,sp,4
  801e88:	e13fff05 	stb	r4,-4(fp)
    IOWR(USB_0_BASE,D13_COMMAND_PORT, D13CMD_EP_VALID_BUF + bEPIndex);
  801e8c:	e0bfff03 	ldbu	r2,-4(fp)
  801e90:	10c01804 	addi	r3,r2,96
  801e94:	00804474 	movhi	r2,273
  801e98:	10a40b04 	addi	r2,r2,-28628
  801e9c:	10c00035 	stwio	r3,0(r2)
}
  801ea0:	e037883a 	mov	sp,fp
  801ea4:	df000017 	ldw	fp,0(sp)
  801ea8:	dec00104 	addi	sp,sp,4
  801eac:	f800283a 	ret

00801eb0 <Hal4D13_ReadEndpoint>:

USHORT Hal4D13_ReadEndpoint(UCHAR bEPIndex, UCHAR *buf, USHORT len)
{
  801eb0:	defffa04 	addi	sp,sp,-24
  801eb4:	df000515 	stw	fp,20(sp)
  801eb8:	df000504 	addi	fp,sp,20
  801ebc:	e17ffe15 	stw	r5,-8(fp)
  801ec0:	e13ffd05 	stb	r4,-12(fp)
  801ec4:	e1bfff0d 	sth	r6,-4(fp)
    USHORT i, j, c;
    IOWR(USB_0_BASE,D13_COMMAND_PORT, D13CMD_EP_RD_FIFO + bEPIndex);
  801ec8:	e0bffd03 	ldbu	r2,-12(fp)
  801ecc:	10c00404 	addi	r3,r2,16
  801ed0:	00804474 	movhi	r2,273
  801ed4:	10a40b04 	addi	r2,r2,-28628
  801ed8:	10c00035 	stwio	r3,0(r2)
    /* read Buffer */
    j = IORD(USB_0_BASE,D13_DATA_PORT);
  801edc:	00804474 	movhi	r2,273
  801ee0:	10a40a04 	addi	r2,r2,-28632
  801ee4:	10800037 	ldwio	r2,0(r2)
  801ee8:	e0bffb8d 	sth	r2,-18(fp)
    if(j > len)
  801eec:	e0fffb8b 	ldhu	r3,-18(fp)
  801ef0:	e0bfff0b 	ldhu	r2,-4(fp)
  801ef4:	10c0022e 	bgeu	r2,r3,801f00 <Hal4D13_ReadEndpoint+0x50>
        j = len;
  801ef8:	e0bfff0b 	ldhu	r2,-4(fp)
  801efc:	e0bffb8d 	sth	r2,-18(fp)
    i=0;
  801f00:	e03ffc0d 	sth	zero,-16(fp)
    while (i<j)//<<
  801f04:	00001c06 	br	801f78 <Hal4D13_ReadEndpoint+0xc8>
    //for(i=0; i<j; i=i+2, buf++ )
    {
        c = IORD(USB_0_BASE,D13_DATA_PORT);
  801f08:	00804474 	movhi	r2,273
  801f0c:	10a40a04 	addi	r2,r2,-28632
  801f10:	10800037 	ldwio	r2,0(r2)
  801f14:	e0bffb0d 	sth	r2,-20(fp)
        *buf = (UCHAR)c;
  801f18:	e0bffb0b 	ldhu	r2,-20(fp)
  801f1c:	1007883a 	mov	r3,r2
  801f20:	e0bffe17 	ldw	r2,-8(fp)
  801f24:	10c00005 	stb	r3,0(r2)
        i++;//<<
  801f28:	e0bffc0b 	ldhu	r2,-16(fp)
  801f2c:	10800044 	addi	r2,r2,1
  801f30:	e0bffc0d 	sth	r2,-16(fp)
        if (i >= j) break; //<<
  801f34:	e0fffc0b 	ldhu	r3,-16(fp)
  801f38:	e0bffb8b 	ldhu	r2,-18(fp)
  801f3c:	1880112e 	bgeu	r3,r2,801f84 <Hal4D13_ReadEndpoint+0xd4>
        buf++;
  801f40:	e0bffe17 	ldw	r2,-8(fp)
  801f44:	10800044 	addi	r2,r2,1
  801f48:	e0bffe15 	stw	r2,-8(fp)
        *buf = (UCHAR)(c>>8);
  801f4c:	e0bffb0b 	ldhu	r2,-20(fp)
  801f50:	1004d23a 	srli	r2,r2,8
  801f54:	1007883a 	mov	r3,r2
  801f58:	e0bffe17 	ldw	r2,-8(fp)
  801f5c:	10c00005 	stb	r3,0(r2)
        i++;//<<
  801f60:	e0bffc0b 	ldhu	r2,-16(fp)
  801f64:	10800044 	addi	r2,r2,1
  801f68:	e0bffc0d 	sth	r2,-16(fp)
         buf++;
  801f6c:	e0bffe17 	ldw	r2,-8(fp)
  801f70:	10800044 	addi	r2,r2,1
  801f74:	e0bffe15 	stw	r2,-8(fp)
    /* read Buffer */
    j = IORD(USB_0_BASE,D13_DATA_PORT);
    if(j > len)
        j = len;
    i=0;
    while (i<j)//<<
  801f78:	e0fffc0b 	ldhu	r3,-16(fp)
  801f7c:	e0bffb8b 	ldhu	r2,-18(fp)
  801f80:	18bfe136 	bltu	r3,r2,801f08 <Hal4D13_ReadEndpoint+0x58>
        *buf = (UCHAR)(c>>8);
        i++;//<<
         buf++;
    }
    /* Clear Buffer */
    IOWR(USB_0_BASE,D13_COMMAND_PORT, D13CMD_EP_CLEAR_BUF+bEPIndex);
  801f84:	e0bffd03 	ldbu	r2,-12(fp)
  801f88:	10c01c04 	addi	r3,r2,112
  801f8c:	00804474 	movhi	r2,273
  801f90:	10a40b04 	addi	r2,r2,-28628
  801f94:	10c00035 	stwio	r3,0(r2)
    return j;
  801f98:	e0bffb8b 	ldhu	r2,-18(fp)

}
  801f9c:	e037883a 	mov	sp,fp
  801fa0:	df000017 	ldw	fp,0(sp)
  801fa4:	dec00104 	addi	sp,sp,4
  801fa8:	f800283a 	ret

00801fac <Hal4D13_ReadBulkEndpoint>:

USHORT Hal4D13_ReadBulkEndpoint(UCHAR bEPIndex, UCHAR * buf, USHORT len)
{
  801fac:	defffa04 	addi	sp,sp,-24
  801fb0:	df000515 	stw	fp,20(sp)
  801fb4:	df000504 	addi	fp,sp,20
  801fb8:	e17ffe15 	stw	r5,-8(fp)
  801fbc:	e13ffd05 	stb	r4,-12(fp)
  801fc0:	e1bfff0d 	sth	r6,-4(fp)
    USHORT i, j, c;
    IOWR(USB_0_BASE,D13_COMMAND_PORT, D13CMD_EP_RD_FIFO + bEPIndex);
  801fc4:	e0bffd03 	ldbu	r2,-12(fp)
  801fc8:	10c00404 	addi	r3,r2,16
  801fcc:	00804474 	movhi	r2,273
  801fd0:	10a40b04 	addi	r2,r2,-28628
  801fd4:	10c00035 	stwio	r3,0(r2)
    j = IORD(USB_0_BASE,D13_DATA_PORT);
  801fd8:	00804474 	movhi	r2,273
  801fdc:	10a40a04 	addi	r2,r2,-28632
  801fe0:	10800037 	ldwio	r2,0(r2)
  801fe4:	e0bffb8d 	sth	r2,-18(fp)
    if(j > len)
  801fe8:	e0fffb8b 	ldhu	r3,-18(fp)
  801fec:	e0bfff0b 	ldhu	r2,-4(fp)
  801ff0:	10c0022e 	bgeu	r2,r3,801ffc <Hal4D13_ReadBulkEndpoint+0x50>
        j = len;
  801ff4:	e0bfff0b 	ldhu	r2,-4(fp)
  801ff8:	e0bffb8d 	sth	r2,-18(fp)
    i=0;
  801ffc:	e03ffc0d 	sth	zero,-16(fp)
    while (i<j) //<<
  802000:	00001c06 	br	802074 <Hal4D13_ReadBulkEndpoint+0xc8>
//  for(i=0; i<j; i=i+2, buf++ )
    {
        c = IORD(USB_0_BASE,D13_DATA_PORT);
  802004:	00804474 	movhi	r2,273
  802008:	10a40a04 	addi	r2,r2,-28632
  80200c:	10800037 	ldwio	r2,0(r2)
  802010:	e0bffb0d 	sth	r2,-20(fp)
        *buf = (UCHAR)c;
  802014:	e0bffb0b 	ldhu	r2,-20(fp)
  802018:	1007883a 	mov	r3,r2
  80201c:	e0bffe17 	ldw	r2,-8(fp)
  802020:	10c00005 	stb	r3,0(r2)
        i++;//<<
  802024:	e0bffc0b 	ldhu	r2,-16(fp)
  802028:	10800044 	addi	r2,r2,1
  80202c:	e0bffc0d 	sth	r2,-16(fp)
        if (i >= j) break; //<<
  802030:	e0fffc0b 	ldhu	r3,-16(fp)
  802034:	e0bffb8b 	ldhu	r2,-18(fp)
  802038:	1880112e 	bgeu	r3,r2,802080 <Hal4D13_ReadBulkEndpoint+0xd4>
        buf++;
  80203c:	e0bffe17 	ldw	r2,-8(fp)
  802040:	10800044 	addi	r2,r2,1
  802044:	e0bffe15 	stw	r2,-8(fp)
        *buf = (UCHAR)(c>>8);
  802048:	e0bffb0b 	ldhu	r2,-20(fp)
  80204c:	1004d23a 	srli	r2,r2,8
  802050:	1007883a 	mov	r3,r2
  802054:	e0bffe17 	ldw	r2,-8(fp)
  802058:	10c00005 	stb	r3,0(r2)
    
        i++;//<<
  80205c:	e0bffc0b 	ldhu	r2,-16(fp)
  802060:	10800044 	addi	r2,r2,1
  802064:	e0bffc0d 	sth	r2,-16(fp)
    buf++;
  802068:	e0bffe17 	ldw	r2,-8(fp)
  80206c:	10800044 	addi	r2,r2,1
  802070:	e0bffe15 	stw	r2,-8(fp)
    IOWR(USB_0_BASE,D13_COMMAND_PORT, D13CMD_EP_RD_FIFO + bEPIndex);
    j = IORD(USB_0_BASE,D13_DATA_PORT);
    if(j > len)
        j = len;
    i=0;
    while (i<j) //<<
  802074:	e0fffc0b 	ldhu	r3,-16(fp)
  802078:	e0bffb8b 	ldhu	r2,-18(fp)
  80207c:	18bfe136 	bltu	r3,r2,802004 <Hal4D13_ReadBulkEndpoint+0x58>
    
        i++;//<<
    buf++;
    }
    /* Clear Buffer */
    IOWR(USB_0_BASE,D13_COMMAND_PORT, D13CMD_EP_CLEAR_BUF+bEPIndex);
  802080:	e0bffd03 	ldbu	r2,-12(fp)
  802084:	10c01c04 	addi	r3,r2,112
  802088:	00804474 	movhi	r2,273
  80208c:	10a40b04 	addi	r2,r2,-28628
  802090:	10c00035 	stwio	r3,0(r2)

    return j;
  802094:	e0bffb8b 	ldhu	r2,-18(fp)
}
  802098:	e037883a 	mov	sp,fp
  80209c:	df000017 	ldw	fp,0(sp)
  8020a0:	dec00104 	addi	sp,sp,4
  8020a4:	f800283a 	ret

008020a8 <Hal4D13_ReadEndpointWOClearBuffer>:

USHORT Hal4D13_ReadEndpointWOClearBuffer(UCHAR bEPIndex, UCHAR * buf, USHORT len)
{
  8020a8:	defffa04 	addi	sp,sp,-24
  8020ac:	df000515 	stw	fp,20(sp)
  8020b0:	df000504 	addi	fp,sp,20
  8020b4:	e17ffe15 	stw	r5,-8(fp)
  8020b8:	e13ffd05 	stb	r4,-12(fp)
  8020bc:	e1bfff0d 	sth	r6,-4(fp)
    USHORT i, j,c;
    IOWR(USB_0_BASE,D13_COMMAND_PORT, D13CMD_EP_RD_FIFO + bEPIndex);
  8020c0:	e0bffd03 	ldbu	r2,-12(fp)
  8020c4:	10c00404 	addi	r3,r2,16
  8020c8:	00804474 	movhi	r2,273
  8020cc:	10a40b04 	addi	r2,r2,-28628
  8020d0:	10c00035 	stwio	r3,0(r2)
    /* read Buffer */
    j = IORD(USB_0_BASE,D13_DATA_PORT);
  8020d4:	00804474 	movhi	r2,273
  8020d8:	10a40a04 	addi	r2,r2,-28632
  8020dc:	10800037 	ldwio	r2,0(r2)
  8020e0:	e0bffb8d 	sth	r2,-18(fp)
    if(j > len)
  8020e4:	e0fffb8b 	ldhu	r3,-18(fp)
  8020e8:	e0bfff0b 	ldhu	r2,-4(fp)
  8020ec:	10c0022e 	bgeu	r2,r3,8020f8 <Hal4D13_ReadEndpointWOClearBuffer+0x50>
        j = len;
  8020f0:	e0bfff0b 	ldhu	r2,-4(fp)
  8020f4:	e0bffb8d 	sth	r2,-18(fp)
    i=0;
  8020f8:	e03ffc0d 	sth	zero,-16(fp)
    while (i<j) //<<    
  8020fc:	00001c06 	br	802170 <Hal4D13_ReadEndpointWOClearBuffer+0xc8>
   //for(i<j; i=i+2, buf++ )
    {
         c = IORD(USB_0_BASE,D13_DATA_PORT);
  802100:	00804474 	movhi	r2,273
  802104:	10a40a04 	addi	r2,r2,-28632
  802108:	10800037 	ldwio	r2,0(r2)
  80210c:	e0bffb0d 	sth	r2,-20(fp)
         *buf = (UCHAR)c;//printf("WOC= %02X ",*buf);//<<        
  802110:	e0bffb0b 	ldhu	r2,-20(fp)
  802114:	1007883a 	mov	r3,r2
  802118:	e0bffe17 	ldw	r2,-8(fp)
  80211c:	10c00005 	stb	r3,0(r2)
         i++;//<<
  802120:	e0bffc0b 	ldhu	r2,-16(fp)
  802124:	10800044 	addi	r2,r2,1
  802128:	e0bffc0d 	sth	r2,-16(fp)
         if (i >= j) break; //<<
  80212c:	e0fffc0b 	ldhu	r3,-16(fp)
  802130:	e0bffb8b 	ldhu	r2,-18(fp)
  802134:	1880112e 	bgeu	r3,r2,80217c <Hal4D13_ReadEndpointWOClearBuffer+0xd4>
         buf++;
  802138:	e0bffe17 	ldw	r2,-8(fp)
  80213c:	10800044 	addi	r2,r2,1
  802140:	e0bffe15 	stw	r2,-8(fp)
         *buf = (UCHAR)(c>>8); //printf("WOC= %02X ",*buf);//<<
  802144:	e0bffb0b 	ldhu	r2,-20(fp)
  802148:	1004d23a 	srli	r2,r2,8
  80214c:	1007883a 	mov	r3,r2
  802150:	e0bffe17 	ldw	r2,-8(fp)
  802154:	10c00005 	stb	r3,0(r2)
         i++;//<<
  802158:	e0bffc0b 	ldhu	r2,-16(fp)
  80215c:	10800044 	addi	r2,r2,1
  802160:	e0bffc0d 	sth	r2,-16(fp)
     buf++;
  802164:	e0bffe17 	ldw	r2,-8(fp)
  802168:	10800044 	addi	r2,r2,1
  80216c:	e0bffe15 	stw	r2,-8(fp)
    /* read Buffer */
    j = IORD(USB_0_BASE,D13_DATA_PORT);
    if(j > len)
        j = len;
    i=0;
    while (i<j) //<<    
  802170:	e0fffc0b 	ldhu	r3,-16(fp)
  802174:	e0bffb8b 	ldhu	r2,-18(fp)
  802178:	18bfe136 	bltu	r3,r2,802100 <Hal4D13_ReadEndpointWOClearBuffer+0x58>
         i++;//<<
     buf++;
    }
   // printf("\n",c);
    /* Clear Buffer */
    IOWR(USB_0_BASE,D13_COMMAND_PORT, D13CMD_EP_CLEAR_BUF+bEPIndex);
  80217c:	e0bffd03 	ldbu	r2,-12(fp)
  802180:	10c01c04 	addi	r3,r2,112
  802184:	00804474 	movhi	r2,273
  802188:	10a40b04 	addi	r2,r2,-28628
  80218c:	10c00035 	stwio	r3,0(r2)

    return j;
  802190:	e0bffb8b 	ldhu	r2,-18(fp)
}
  802194:	e037883a 	mov	sp,fp
  802198:	df000017 	ldw	fp,0(sp)
  80219c:	dec00104 	addi	sp,sp,4
  8021a0:	f800283a 	ret

008021a4 <Hal4D13_WriteEndpoint>:

USHORT Hal4D13_WriteEndpoint(UCHAR bEPIndex, UCHAR * buf, USHORT len)
{
  8021a4:	defffb04 	addi	sp,sp,-20
  8021a8:	df000415 	stw	fp,16(sp)
  8021ac:	df000404 	addi	fp,sp,16
  8021b0:	e17ffe15 	stw	r5,-8(fp)
  8021b4:	e13ffd05 	stb	r4,-12(fp)
  8021b8:	e1bfff0d 	sth	r6,-4(fp)
    USHORT i,c;
    /* Select Endpoint */
   
    IOWR(USB_0_BASE,D13_COMMAND_PORT, D13CMD_EP_WR_FIFO + bEPIndex);
  8021bc:	e0fffd03 	ldbu	r3,-12(fp)
  8021c0:	00804474 	movhi	r2,273
  8021c4:	10a40b04 	addi	r2,r2,-28628
  8021c8:	10c00035 	stwio	r3,0(r2)
    IOWR(USB_0_BASE,D13_DATA_PORT, len);
  8021cc:	e0ffff0b 	ldhu	r3,-4(fp)
  8021d0:	00804474 	movhi	r2,273
  8021d4:	10a40a04 	addi	r2,r2,-28632
  8021d8:	10c00035 	stwio	r3,0(r2)
    if (len==0) IOWR(USB_0_BASE,D13_DATA_PORT, 0);
  8021dc:	e0bfff0b 	ldhu	r2,-4(fp)
  8021e0:	1004c03a 	cmpne	r2,r2,zero
  8021e4:	1000031e 	bne	r2,zero,8021f4 <Hal4D13_WriteEndpoint+0x50>
  8021e8:	00804474 	movhi	r2,273
  8021ec:	10a40a04 	addi	r2,r2,-28632
  8021f0:	10000035 	stwio	zero,0(r2)
    /* Write Buffer */
  
    //for(i=0; i<len; i=i+2, buf++ )
  i=0;
  8021f4:	e03ffc8d 	sth	zero,-14(fp)
  while (i < len)
  8021f8:	00002706 	br	802298 <Hal4D13_WriteEndpoint+0xf4>
    {
        c = *buf;
  8021fc:	e0bffe17 	ldw	r2,-8(fp)
  802200:	10800003 	ldbu	r2,0(r2)
  802204:	10803fcc 	andi	r2,r2,255
  802208:	e0bffc0d 	sth	r2,-16(fp)
        buf++;i++;
  80220c:	e0bffe17 	ldw	r2,-8(fp)
  802210:	10800044 	addi	r2,r2,1
  802214:	e0bffe15 	stw	r2,-8(fp)
  802218:	e0bffc8b 	ldhu	r2,-14(fp)
  80221c:	10800044 	addi	r2,r2,1
  802220:	e0bffc8d 	sth	r2,-14(fp)
    if (i >=len) { IOWR(USB_0_BASE,D13_DATA_PORT, c); }//printf("w=%04x  ",c);break; }
  802224:	e0fffc8b 	ldhu	r3,-14(fp)
  802228:	e0bfff0b 	ldhu	r2,-4(fp)
  80222c:	18800436 	bltu	r3,r2,802240 <Hal4D13_WriteEndpoint+0x9c>
  802230:	e0fffc0b 	ldhu	r3,-16(fp)
  802234:	00804474 	movhi	r2,273
  802238:	10a40a04 	addi	r2,r2,-28632
  80223c:	10c00035 	stwio	r3,0(r2)
        c =(c & 0xff)+ (*buf<<8  & 0xff00);    
  802240:	e0bffc0b 	ldhu	r2,-16(fp)
  802244:	10803fcc 	andi	r2,r2,255
  802248:	1009883a 	mov	r4,r2
  80224c:	e0bffe17 	ldw	r2,-8(fp)
  802250:	10800003 	ldbu	r2,0(r2)
  802254:	10803fcc 	andi	r2,r2,255
  802258:	1004923a 	slli	r2,r2,8
  80225c:	1007883a 	mov	r3,r2
  802260:	00bfc004 	movi	r2,-256
  802264:	1884703a 	and	r2,r3,r2
  802268:	2085883a 	add	r2,r4,r2
  80226c:	e0bffc0d 	sth	r2,-16(fp)
    buf++;i++;      
  802270:	e0bffe17 	ldw	r2,-8(fp)
  802274:	10800044 	addi	r2,r2,1
  802278:	e0bffe15 	stw	r2,-8(fp)
  80227c:	e0bffc8b 	ldhu	r2,-14(fp)
  802280:	10800044 	addi	r2,r2,1
  802284:	e0bffc8d 	sth	r2,-14(fp)
        IOWR(USB_0_BASE,D13_DATA_PORT, c);
  802288:	e0fffc0b 	ldhu	r3,-16(fp)
  80228c:	00804474 	movhi	r2,273
  802290:	10a40a04 	addi	r2,r2,-28632
  802294:	10c00035 	stwio	r3,0(r2)
    if (len==0) IOWR(USB_0_BASE,D13_DATA_PORT, 0);
    /* Write Buffer */
  
    //for(i=0; i<len; i=i+2, buf++ )
  i=0;
  while (i < len)
  802298:	e0fffc8b 	ldhu	r3,-14(fp)
  80229c:	e0bfff0b 	ldhu	r2,-4(fp)
  8022a0:	18bfd636 	bltu	r3,r2,8021fc <Hal4D13_WriteEndpoint+0x58>
//    printf("w=%04x  ",c);
    }
//  printf("\nlen=%d i=%d\n",len,i);
  
    /* Validate Buffer */
    IOWR(USB_0_BASE,D13_COMMAND_PORT, D13CMD_EP_VALID_BUF+bEPIndex);
  8022a4:	e0bffd03 	ldbu	r2,-12(fp)
  8022a8:	10c01804 	addi	r3,r2,96
  8022ac:	00804474 	movhi	r2,273
  8022b0:	10a40b04 	addi	r2,r2,-28628
  8022b4:	10c00035 	stwio	r3,0(r2)
 // printf("\n");
    return i;
  8022b8:	e0bffc8b 	ldhu	r2,-14(fp)
}
  8022bc:	e037883a 	mov	sp,fp
  8022c0:	df000017 	ldw	fp,0(sp)
  8022c4:	dec00104 	addi	sp,sp,4
  8022c8:	f800283a 	ret

008022cc <Hal4D13_WriteBulkEndpoint>:

USHORT Hal4D13_WriteBulkEndpoint(UCHAR bEPIndex, UCHAR * buf, USHORT len)
{
  8022cc:	defffb04 	addi	sp,sp,-20
  8022d0:	df000415 	stw	fp,16(sp)
  8022d4:	df000404 	addi	fp,sp,16
  8022d8:	e17ffe15 	stw	r5,-8(fp)
  8022dc:	e13ffd05 	stb	r4,-12(fp)
  8022e0:	e1bfff0d 	sth	r6,-4(fp)
    USHORT i, c;
    /* Select Endpoint */
    IOWR(USB_0_BASE,D13_COMMAND_PORT, D13CMD_EP_WR_FIFO + bEPIndex);
  8022e4:	e0fffd03 	ldbu	r3,-12(fp)
  8022e8:	00804474 	movhi	r2,273
  8022ec:	10a40b04 	addi	r2,r2,-28628
  8022f0:	10c00035 	stwio	r3,0(r2)
    IOWR(USB_0_BASE,D13_DATA_PORT, len);
  8022f4:	e0ffff0b 	ldhu	r3,-4(fp)
  8022f8:	00804474 	movhi	r2,273
  8022fc:	10a40a04 	addi	r2,r2,-28632
  802300:	10c00035 	stwio	r3,0(r2)
    if (len==0) IOWR(USB_0_BASE,D13_DATA_PORT, 0);
  802304:	e0bfff0b 	ldhu	r2,-4(fp)
  802308:	1004c03a 	cmpne	r2,r2,zero
  80230c:	1000031e 	bne	r2,zero,80231c <Hal4D13_WriteBulkEndpoint+0x50>
  802310:	00804474 	movhi	r2,273
  802314:	10a40a04 	addi	r2,r2,-28632
  802318:	10000035 	stwio	zero,0(r2)

    /* Write Buffer */
    for(i=0; i<len; i=i+2, buf++ )
  80231c:	e03ffc8d 	sth	zero,-14(fp)
  802320:	00001906 	br	802388 <Hal4D13_WriteBulkEndpoint+0xbc>
    {
        c = *buf;
  802324:	e0bffe17 	ldw	r2,-8(fp)
  802328:	10800003 	ldbu	r2,0(r2)
  80232c:	10803fcc 	andi	r2,r2,255
  802330:	e0bffc0d 	sth	r2,-16(fp)
        buf++;
  802334:	e0bffe17 	ldw	r2,-8(fp)
  802338:	10800044 	addi	r2,r2,1
  80233c:	e0bffe15 	stw	r2,-8(fp)
        c += (USHORT)(*buf << 8);
  802340:	e0bffe17 	ldw	r2,-8(fp)
  802344:	10800003 	ldbu	r2,0(r2)
  802348:	10803fcc 	andi	r2,r2,255
  80234c:	1004923a 	slli	r2,r2,8
  802350:	1007883a 	mov	r3,r2
  802354:	e0bffc0b 	ldhu	r2,-16(fp)
  802358:	10c5883a 	add	r2,r2,r3
  80235c:	e0bffc0d 	sth	r2,-16(fp)
        IOWR(USB_0_BASE,D13_DATA_PORT, c);
  802360:	e0fffc0b 	ldhu	r3,-16(fp)
  802364:	00804474 	movhi	r2,273
  802368:	10a40a04 	addi	r2,r2,-28632
  80236c:	10c00035 	stwio	r3,0(r2)
    IOWR(USB_0_BASE,D13_COMMAND_PORT, D13CMD_EP_WR_FIFO + bEPIndex);
    IOWR(USB_0_BASE,D13_DATA_PORT, len);
    if (len==0) IOWR(USB_0_BASE,D13_DATA_PORT, 0);

    /* Write Buffer */
    for(i=0; i<len; i=i+2, buf++ )
  802370:	e0bffc8b 	ldhu	r2,-14(fp)
  802374:	10800084 	addi	r2,r2,2
  802378:	e0bffc8d 	sth	r2,-14(fp)
  80237c:	e0bffe17 	ldw	r2,-8(fp)
  802380:	10800044 	addi	r2,r2,1
  802384:	e0bffe15 	stw	r2,-8(fp)
  802388:	e0fffc8b 	ldhu	r3,-14(fp)
  80238c:	e0bfff0b 	ldhu	r2,-4(fp)
  802390:	18bfe436 	bltu	r3,r2,802324 <Hal4D13_WriteBulkEndpoint+0x58>
        buf++;
        c += (USHORT)(*buf << 8);
        IOWR(USB_0_BASE,D13_DATA_PORT, c);
    }
    /* Validate Buffer */
    IOWR(USB_0_BASE,D13_COMMAND_PORT, D13CMD_EP_VALID_BUF+bEPIndex);
  802394:	e0bffd03 	ldbu	r2,-12(fp)
  802398:	10c01804 	addi	r3,r2,96
  80239c:	00804474 	movhi	r2,273
  8023a0:	10a40b04 	addi	r2,r2,-28628
  8023a4:	10c00035 	stwio	r3,0(r2)
    return len;
  8023a8:	e0bfff0b 	ldhu	r2,-4(fp)
}
  8023ac:	e037883a 	mov	sp,fp
  8023b0:	df000017 	ldw	fp,0(sp)
  8023b4:	dec00104 	addi	sp,sp,4
  8023b8:	f800283a 	ret

008023bc <Hal4D13_GetIntEnable>:

ULONG Hal4D13_GetIntEnable(void)
{
  8023bc:	defffe04 	addi	sp,sp,-8
  8023c0:	df000115 	stw	fp,4(sp)
  8023c4:	df000104 	addi	fp,sp,4
    ULONG i;
    IOWR(USB_0_BASE,D13_COMMAND_PORT,D13CMD_DEV_RD_INTEN);
  8023c8:	00c04474 	movhi	r3,273
  8023cc:	18e40b04 	addi	r3,r3,-28628
  8023d0:	008030c4 	movi	r2,195
  8023d4:	18800035 	stwio	r2,0(r3)
    i = IORD(USB_0_BASE,D13_DATA_PORT);
  8023d8:	00804474 	movhi	r2,273
  8023dc:	10a40a04 	addi	r2,r2,-28632
  8023e0:	10800037 	ldwio	r2,0(r2)
  8023e4:	e0bfff15 	stw	r2,-4(fp)
    i += (((ULONG)IORD(USB_0_BASE,D13_DATA_PORT)) << 16);
  8023e8:	00804474 	movhi	r2,273
  8023ec:	10a40a04 	addi	r2,r2,-28632
  8023f0:	10800037 	ldwio	r2,0(r2)
  8023f4:	1006943a 	slli	r3,r2,16
  8023f8:	e0bfff17 	ldw	r2,-4(fp)
  8023fc:	10c5883a 	add	r2,r2,r3
  802400:	e0bfff15 	stw	r2,-4(fp)
    return i;
  802404:	e0bfff17 	ldw	r2,-4(fp)
}
  802408:	e037883a 	mov	sp,fp
  80240c:	df000017 	ldw	fp,0(sp)
  802410:	dec00104 	addi	sp,sp,4
  802414:	f800283a 	ret

00802418 <Hal4D13_SetIntEnable>:

void Hal4D13_SetIntEnable(ULONG dIntEn)
{
  802418:	defffe04 	addi	sp,sp,-8
  80241c:	df000115 	stw	fp,4(sp)
  802420:	df000104 	addi	fp,sp,4
  802424:	e13fff15 	stw	r4,-4(fp)
    IOWR(USB_0_BASE,D13_COMMAND_PORT,D13CMD_DEV_WR_INTEN);
  802428:	00c04474 	movhi	r3,273
  80242c:	18e40b04 	addi	r3,r3,-28628
  802430:	00803084 	movi	r2,194
  802434:	18800035 	stwio	r2,0(r3)
    dIntEn = (dIntEn & 0x0FFFFFF);
  802438:	e0ffff17 	ldw	r3,-4(fp)
  80243c:	00804034 	movhi	r2,256
  802440:	10bfffc4 	addi	r2,r2,-1
  802444:	1884703a 	and	r2,r3,r2
  802448:	e0bfff15 	stw	r2,-4(fp)
    IOWR(USB_0_BASE,D13_DATA_PORT,(USHORT)dIntEn);
  80244c:	e0bfff17 	ldw	r2,-4(fp)
  802450:	10ffffcc 	andi	r3,r2,65535
  802454:	00804474 	movhi	r2,273
  802458:	10a40a04 	addi	r2,r2,-28632
  80245c:	10c00035 	stwio	r3,0(r2)
    IOWR(USB_0_BASE,D13_DATA_PORT,(USHORT)(dIntEn >> 16));
  802460:	e0bfff17 	ldw	r2,-4(fp)
  802464:	1004d43a 	srli	r2,r2,16
  802468:	10ffffcc 	andi	r3,r2,65535
  80246c:	00804474 	movhi	r2,273
  802470:	10a40a04 	addi	r2,r2,-28632
  802474:	10c00035 	stwio	r3,0(r2)
}
  802478:	e037883a 	mov	sp,fp
  80247c:	df000017 	ldw	fp,0(sp)
  802480:	dec00104 	addi	sp,sp,4
  802484:	f800283a 	ret

00802488 <Hal4D13_ReadInterruptRegister>:

ULONG Hal4D13_ReadInterruptRegister(void)
{
  802488:	defffd04 	addi	sp,sp,-12
  80248c:	df000215 	stw	fp,8(sp)
  802490:	df000204 	addi	fp,sp,8
    ULONG j,i = 0;
  802494:	e03ffe15 	stw	zero,-8(fp)
    IOWR(USB_0_BASE,D13_COMMAND_PORT, D13CMD_DEV_INT_SRC);
  802498:	00c04474 	movhi	r3,273
  80249c:	18e40b04 	addi	r3,r3,-28628
  8024a0:	00803004 	movi	r2,192
  8024a4:	18800035 	stwio	r2,0(r3)
    i = IORD(USB_0_BASE,D13_DATA_PORT);
  8024a8:	00804474 	movhi	r2,273
  8024ac:	10a40a04 	addi	r2,r2,-28632
  8024b0:	10800037 	ldwio	r2,0(r2)
  8024b4:	e0bffe15 	stw	r2,-8(fp)
    j = IORD(USB_0_BASE,D13_DATA_PORT);
  8024b8:	00804474 	movhi	r2,273
  8024bc:	10a40a04 	addi	r2,r2,-28632
  8024c0:	10800037 	ldwio	r2,0(r2)
  8024c4:	e0bfff15 	stw	r2,-4(fp)
    j = ((j<<16) & 0xffff0000 ) + (i & 0xffff);
  8024c8:	e0bfff17 	ldw	r2,-4(fp)
  8024cc:	1004943a 	slli	r2,r2,16
  8024d0:	10ffffec 	andhi	r3,r2,65535
  8024d4:	e0bffe17 	ldw	r2,-8(fp)
  8024d8:	10bfffcc 	andi	r2,r2,65535
  8024dc:	1885883a 	add	r2,r3,r2
  8024e0:	e0bfff15 	stw	r2,-4(fp)
    return i;
  8024e4:	e0bffe17 	ldw	r2,-8(fp)
}
  8024e8:	e037883a 	mov	sp,fp
  8024ec:	df000017 	ldw	fp,0(sp)
  8024f0:	dec00104 	addi	sp,sp,4
  8024f4:	f800283a 	ret

008024f8 <Hal4D13_GetEndpointStatusWInteruptClear>:

UCHAR Hal4D13_GetEndpointStatusWInteruptClear(UCHAR bEPIndex)
{
  8024f8:	defffd04 	addi	sp,sp,-12
  8024fc:	df000215 	stw	fp,8(sp)
  802500:	df000204 	addi	fp,sp,8
  802504:	e13fff05 	stb	r4,-4(fp)
    UCHAR c;
    IOWR(USB_0_BASE,D13_COMMAND_PORT, D13CMD_EP_RDSTS_CLRINT + bEPIndex);
  802508:	e0bfff03 	ldbu	r2,-4(fp)
  80250c:	10c01404 	addi	r3,r2,80
  802510:	00804474 	movhi	r2,273
  802514:	10a40b04 	addi	r2,r2,-28628
  802518:	10c00035 	stwio	r3,0(r2)
    c = (UCHAR)(IORD(USB_0_BASE,D13_DATA_PORT) & 0x0ff);
  80251c:	00804474 	movhi	r2,273
  802520:	10a40a04 	addi	r2,r2,-28632
  802524:	10800037 	ldwio	r2,0(r2)
  802528:	1007883a 	mov	r3,r2
  80252c:	00bfffc4 	movi	r2,-1
  802530:	1884703a 	and	r2,r3,r2
  802534:	e0bffe05 	stb	r2,-8(fp)
    return c;
  802538:	e0bffe03 	ldbu	r2,-8(fp)
}
  80253c:	e037883a 	mov	sp,fp
  802540:	df000017 	ldw	fp,0(sp)
  802544:	dec00104 	addi	sp,sp,4
  802548:	f800283a 	ret

0080254c <Hal4D13_GetEndpointStatusWOInteruptClear>:

UCHAR Hal4D13_GetEndpointStatusWOInteruptClear(UCHAR bEPIndex)
{
  80254c:	defffd04 	addi	sp,sp,-12
  802550:	df000215 	stw	fp,8(sp)
  802554:	df000204 	addi	fp,sp,8
  802558:	e13fff05 	stb	r4,-4(fp)
    UCHAR c;
    IOWR(USB_0_BASE,D13_COMMAND_PORT, D13CMD_EP_RDSTS + bEPIndex);
  80255c:	e0bfff03 	ldbu	r2,-4(fp)
  802560:	10c03404 	addi	r3,r2,208
  802564:	00804474 	movhi	r2,273
  802568:	10a40b04 	addi	r2,r2,-28628
  80256c:	10c00035 	stwio	r3,0(r2)
    c = (UCHAR)(IORD(USB_0_BASE,D13_DATA_PORT) &0x0ff);
  802570:	00804474 	movhi	r2,273
  802574:	10a40a04 	addi	r2,r2,-28632
  802578:	10800037 	ldwio	r2,0(r2)
  80257c:	1007883a 	mov	r3,r2
  802580:	00bfffc4 	movi	r2,-1
  802584:	1884703a 	and	r2,r3,r2
  802588:	e0bffe05 	stb	r2,-8(fp)
    return c;
  80258c:	e0bffe03 	ldbu	r2,-8(fp)
}
  802590:	e037883a 	mov	sp,fp
  802594:	df000017 	ldw	fp,0(sp)
  802598:	dec00104 	addi	sp,sp,4
  80259c:	f800283a 	ret

008025a0 <Hal4D13_SetEndpointStatus>:

void Hal4D13_SetEndpointStatus(UCHAR bEPIndex, UCHAR bStalled)
{
  8025a0:	defffd04 	addi	sp,sp,-12
  8025a4:	df000215 	stw	fp,8(sp)
  8025a8:	df000204 	addi	fp,sp,8
  8025ac:	e13ffe05 	stb	r4,-8(fp)
  8025b0:	e17fff05 	stb	r5,-4(fp)
    if(bStalled & 0x80)
  8025b4:	e0bfff03 	ldbu	r2,-4(fp)
  8025b8:	10803fcc 	andi	r2,r2,255
  8025bc:	1080201c 	xori	r2,r2,128
  8025c0:	10bfe004 	addi	r2,r2,-128
  8025c4:	1004403a 	cmpge	r2,r2,zero
  8025c8:	1000061e 	bne	r2,zero,8025e4 <Hal4D13_SetEndpointStatus+0x44>
    {
        IOWR(USB_0_BASE,D13_COMMAND_PORT, D13CMD_EP_WR_STS + bEPIndex);
  8025cc:	e0bffe03 	ldbu	r2,-8(fp)
  8025d0:	10c01004 	addi	r3,r2,64
  8025d4:	00804474 	movhi	r2,273
  8025d8:	10a40b04 	addi	r2,r2,-28628
  8025dc:	10c00035 	stwio	r3,0(r2)
  8025e0:	00000506 	br	8025f8 <Hal4D13_SetEndpointStatus+0x58>
    }
    else
    {
    // clear endpoint stall.
        IOWR(USB_0_BASE,D13_COMMAND_PORT, D13CMD_EP_CLR_STALL + bEPIndex);
  8025e4:	e0bffe03 	ldbu	r2,-8(fp)
  8025e8:	10c02004 	addi	r3,r2,128
  8025ec:	00804474 	movhi	r2,273
  8025f0:	10a40b04 	addi	r2,r2,-28628
  8025f4:	10c00035 	stwio	r3,0(r2)
    }
}
  8025f8:	e037883a 	mov	sp,fp
  8025fc:	df000017 	ldw	fp,0(sp)
  802600:	dec00104 	addi	sp,sp,4
  802604:	f800283a 	ret

00802608 <Hal4D13_SetDMAConfig>:

void Hal4D13_SetDMAConfig(USHORT wDMACnfg)
{
  802608:	defffe04 	addi	sp,sp,-8
  80260c:	df000115 	stw	fp,4(sp)
  802610:	df000104 	addi	fp,sp,4
  802614:	e13fff0d 	sth	r4,-4(fp)
    IOWR(USB_0_BASE,D13_COMMAND_PORT,D13CMD_DMA_WR_CNFG);
  802618:	00c04474 	movhi	r3,273
  80261c:	18e40b04 	addi	r3,r3,-28628
  802620:	00803c04 	movi	r2,240
  802624:	18800035 	stwio	r2,0(r3)
    IOWR(USB_0_BASE,D13_DATA_PORT, wDMACnfg);
  802628:	e0ffff0b 	ldhu	r3,-4(fp)
  80262c:	00804474 	movhi	r2,273
  802630:	10a40a04 	addi	r2,r2,-28632
  802634:	10c00035 	stwio	r3,0(r2)
}
  802638:	e037883a 	mov	sp,fp
  80263c:	df000017 	ldw	fp,0(sp)
  802640:	dec00104 	addi	sp,sp,4
  802644:	f800283a 	ret

00802648 <Hal4D13_GetDMAConfig>:

USHORT Hal4D13_GetDMAConfig(void)
{
  802648:	defffe04 	addi	sp,sp,-8
  80264c:	df000115 	stw	fp,4(sp)
  802650:	df000104 	addi	fp,sp,4
    USHORT i;
    IOWR(USB_0_BASE,D13_COMMAND_PORT,D13CMD_DMA_RD_CNFG);
  802654:	00c04474 	movhi	r3,273
  802658:	18e40b04 	addi	r3,r3,-28628
  80265c:	00803c44 	movi	r2,241
  802660:	18800035 	stwio	r2,0(r3)
    i = IORD(USB_0_BASE,D13_DATA_PORT);
  802664:	00804474 	movhi	r2,273
  802668:	10a40a04 	addi	r2,r2,-28632
  80266c:	10800037 	ldwio	r2,0(r2)
  802670:	e0bfff0d 	sth	r2,-4(fp)
    return i;
  802674:	e0bfff0b 	ldhu	r2,-4(fp)
}
  802678:	e037883a 	mov	sp,fp
  80267c:	df000017 	ldw	fp,0(sp)
  802680:	dec00104 	addi	sp,sp,4
  802684:	f800283a 	ret

00802688 <Hal4D13_SetDMACounter>:

void Hal4D13_SetDMACounter(USHORT wDMACounter)
{
  802688:	defffe04 	addi	sp,sp,-8
  80268c:	df000115 	stw	fp,4(sp)
  802690:	df000104 	addi	fp,sp,4
  802694:	e13fff0d 	sth	r4,-4(fp)
    IOWR(USB_0_BASE,D13_COMMAND_PORT,D13CMD_DMA_WR_COUNT);
  802698:	00c04474 	movhi	r3,273
  80269c:	18e40b04 	addi	r3,r3,-28628
  8026a0:	00803c84 	movi	r2,242
  8026a4:	18800035 	stwio	r2,0(r3)
    IOWR(USB_0_BASE,D13_DATA_PORT, wDMACounter);
  8026a8:	e0ffff0b 	ldhu	r3,-4(fp)
  8026ac:	00804474 	movhi	r2,273
  8026b0:	10a40a04 	addi	r2,r2,-28632
  8026b4:	10c00035 	stwio	r3,0(r2)
}
  8026b8:	e037883a 	mov	sp,fp
  8026bc:	df000017 	ldw	fp,0(sp)
  8026c0:	dec00104 	addi	sp,sp,4
  8026c4:	f800283a 	ret

008026c8 <Hal4D13_GetDMACounter>:

USHORT Hal4D13_GetDMACounter(void)
{
  8026c8:	defffe04 	addi	sp,sp,-8
  8026cc:	df000115 	stw	fp,4(sp)
  8026d0:	df000104 	addi	fp,sp,4
    USHORT i;
    IOWR(USB_0_BASE,D13_COMMAND_PORT,D13CMD_DMA_RD_COUNT);
  8026d4:	00c04474 	movhi	r3,273
  8026d8:	18e40b04 	addi	r3,r3,-28628
  8026dc:	00803cc4 	movi	r2,243
  8026e0:	18800035 	stwio	r2,0(r3)
    i = IORD(USB_0_BASE,D13_DATA_PORT);
  8026e4:	00804474 	movhi	r2,273
  8026e8:	10a40a04 	addi	r2,r2,-28632
  8026ec:	10800037 	ldwio	r2,0(r2)
  8026f0:	e0bfff0d 	sth	r2,-4(fp)
    return i;
  8026f4:	e0bfff0b 	ldhu	r2,-4(fp)
}
  8026f8:	e037883a 	mov	sp,fp
  8026fc:	df000017 	ldw	fp,0(sp)
  802700:	dec00104 	addi	sp,sp,4
  802704:	f800283a 	ret

00802708 <Hal4D13_GetDataFromChipRam>:

USHORT Hal4D13_GetDataFromChipRam(void)
{
  802708:	defffe04 	addi	sp,sp,-8
  80270c:	df000115 	stw	fp,4(sp)
  802710:	df000104 	addi	fp,sp,4
    USHORT i;
    IOWR(USB_0_BASE,D13_COMMAND_PORT,D13CMD_DEV_RD_RAM);
  802714:	00c04474 	movhi	r3,273
  802718:	18e40b04 	addi	r3,r3,-28628
  80271c:	00802cc4 	movi	r2,179
  802720:	18800035 	stwio	r2,0(r3)
    i = IORD(USB_0_BASE,D13_DATA_PORT);
  802724:	00804474 	movhi	r2,273
  802728:	10a40a04 	addi	r2,r2,-28632
  80272c:	10800037 	ldwio	r2,0(r2)
  802730:	e0bfff0d 	sth	r2,-4(fp)
    return i;
  802734:	e0bfff0b 	ldhu	r2,-4(fp)
}
  802738:	e037883a 	mov	sp,fp
  80273c:	df000017 	ldw	fp,0(sp)
  802740:	dec00104 	addi	sp,sp,4
  802744:	f800283a 	ret

00802748 <Hal4D13_SetDataToChipRam>:

void Hal4D13_SetDataToChipRam(USHORT wData)
{
  802748:	defffe04 	addi	sp,sp,-8
  80274c:	df000115 	stw	fp,4(sp)
  802750:	df000104 	addi	fp,sp,4
  802754:	e13fff0d 	sth	r4,-4(fp)
    IOWR(USB_0_BASE,D13_COMMAND_PORT,D13CMD_DEV_WR_RAM);
  802758:	00c04474 	movhi	r3,273
  80275c:	18e40b04 	addi	r3,r3,-28628
  802760:	00802c84 	movi	r2,178
  802764:	18800035 	stwio	r2,0(r3)
    IOWR(USB_0_BASE,D13_DATA_PORT, wData);
  802768:	e0ffff0b 	ldhu	r3,-4(fp)
  80276c:	00804474 	movhi	r2,273
  802770:	10a40a04 	addi	r2,r2,-28632
  802774:	10c00035 	stwio	r3,0(r2)
}
  802778:	e037883a 	mov	sp,fp
  80277c:	df000017 	ldw	fp,0(sp)
  802780:	dec00104 	addi	sp,sp,4
  802784:	f800283a 	ret

00802788 <Hal4D13_ReadCurrentFrameNumber>:

USHORT Hal4D13_ReadCurrentFrameNumber(void)
{
  802788:	defffe04 	addi	sp,sp,-8
  80278c:	df000115 	stw	fp,4(sp)
  802790:	df000104 	addi	fp,sp,4
    USHORT i;
    IOWR(USB_0_BASE,D13_COMMAND_PORT, D13CMD_RD_FRMNUM);
  802794:	00c04474 	movhi	r3,273
  802798:	18e40b04 	addi	r3,r3,-28628
  80279c:	00802d04 	movi	r2,180
  8027a0:	18800035 	stwio	r2,0(r3)
    i= IORD(USB_0_BASE,D13_DATA_PORT);
  8027a4:	00804474 	movhi	r2,273
  8027a8:	10a40a04 	addi	r2,r2,-28632
  8027ac:	10800037 	ldwio	r2,0(r2)
  8027b0:	e0bfff0d 	sth	r2,-4(fp)
    return i;
  8027b4:	e0bfff0b 	ldhu	r2,-4(fp)
}
  8027b8:	e037883a 	mov	sp,fp
  8027bc:	df000017 	ldw	fp,0(sp)
  8027c0:	dec00104 	addi	sp,sp,4
  8027c4:	f800283a 	ret

008027c8 <Hal4D13_LockDevice>:

void Hal4D13_LockDevice(UCHAR bTrue)
{
  8027c8:	defffd04 	addi	sp,sp,-12
  8027cc:	df000215 	stw	fp,8(sp)
  8027d0:	df000204 	addi	fp,sp,8
  8027d4:	e13fff05 	stb	r4,-4(fp)
    USHORT c;
    if(bTrue)
  8027d8:	e0bfff03 	ldbu	r2,-4(fp)
  8027dc:	1005003a 	cmpeq	r2,r2,zero
  8027e0:	1000021e 	bne	r2,zero,8027ec <Hal4D13_LockDevice+0x24>
        c = 0;
  8027e4:	e03ffe0d 	sth	zero,-8(fp)
  8027e8:	00000206 	br	8027f4 <Hal4D13_LockDevice+0x2c>
    else
        c = 0xAA37;
  8027ec:	00aa8dc4 	movi	r2,-21961
  8027f0:	e0bffe0d 	sth	r2,-8(fp)
    IOWR(USB_0_BASE,D13_COMMAND_PORT,D13CMD_DEV_LOCK );
  8027f4:	00c04474 	movhi	r3,273
  8027f8:	18e40b04 	addi	r3,r3,-28628
  8027fc:	00802c04 	movi	r2,176
  802800:	18800035 	stwio	r2,0(r3)
    IOWR(USB_0_BASE,D13_DATA_PORT,c);
  802804:	e0fffe0b 	ldhu	r3,-8(fp)
  802808:	00804474 	movhi	r2,273
  80280c:	10a40a04 	addi	r2,r2,-28632
  802810:	10c00035 	stwio	r3,0(r2)
}
  802814:	e037883a 	mov	sp,fp
  802818:	df000017 	ldw	fp,0(sp)
  80281c:	dec00104 	addi	sp,sp,4
  802820:	f800283a 	ret

00802824 <Hal4D13_ReadChipID>:

USHORT Hal4D13_ReadChipID(void)
{
  802824:	defffe04 	addi	sp,sp,-8
  802828:	df000115 	stw	fp,4(sp)
  80282c:	df000104 	addi	fp,sp,4
    USHORT i;
    IOWR(USB_0_BASE, D13_COMMAND_PORT, D13CMD_DEV_RD_CHIPID);
  802830:	00c04474 	movhi	r3,273
  802834:	18e40b04 	addi	r3,r3,-28628
  802838:	00802d44 	movi	r2,181
  80283c:	18800035 	stwio	r2,0(r3)
    i=IORD(USB_0_BASE, D13_DATA_PORT);
  802840:	00804474 	movhi	r2,273
  802844:	10a40a04 	addi	r2,r2,-28632
  802848:	10800037 	ldwio	r2,0(r2)
  80284c:	e0bfff0d 	sth	r2,-4(fp)
    return i;
  802850:	e0bfff0b 	ldhu	r2,-4(fp)
}
  802854:	e037883a 	mov	sp,fp
  802858:	df000017 	ldw	fp,0(sp)
  80285c:	dec00104 	addi	sp,sp,4
  802860:	f800283a 	ret

00802864 <Hal4D13_GetErrorCode>:

UCHAR Hal4D13_GetErrorCode(UCHAR bEPIndex)
{
  802864:	defffd04 	addi	sp,sp,-12
  802868:	df000215 	stw	fp,8(sp)
  80286c:	df000204 	addi	fp,sp,8
  802870:	e13fff05 	stb	r4,-4(fp)
    UCHAR   c;
    IOWR(USB_0_BASE,D13_COMMAND_PORT, D13CMD_EP_RD_ERR+bEPIndex);
  802874:	e0bfff03 	ldbu	r2,-4(fp)
  802878:	10c02804 	addi	r3,r2,160
  80287c:	00804474 	movhi	r2,273
  802880:	10a40b04 	addi	r2,r2,-28628
  802884:	10c00035 	stwio	r3,0(r2)
    c = (UCHAR)(IORD(USB_0_BASE,D13_DATA_PORT)&0x0ff);
  802888:	00804474 	movhi	r2,273
  80288c:	10a40a04 	addi	r2,r2,-28632
  802890:	10800037 	ldwio	r2,0(r2)
  802894:	1007883a 	mov	r3,r2
  802898:	00bfffc4 	movi	r2,-1
  80289c:	1884703a 	and	r2,r3,r2
  8028a0:	e0bffe05 	stb	r2,-8(fp)
    return c;
  8028a4:	e0bffe03 	ldbu	r2,-8(fp)
}
  8028a8:	e037883a 	mov	sp,fp
  8028ac:	df000017 	ldw	fp,0(sp)
  8028b0:	dec00104 	addi	sp,sp,4
  8028b4:	f800283a 	ret

008028b8 <Hal4D13_GetEndpointConfig>:

UCHAR Hal4D13_GetEndpointConfig(UCHAR bEPIndex)
{
  8028b8:	defffd04 	addi	sp,sp,-12
  8028bc:	df000215 	stw	fp,8(sp)
  8028c0:	df000204 	addi	fp,sp,8
  8028c4:	e13fff05 	stb	r4,-4(fp)
    UCHAR   c;
    IOWR(USB_0_BASE,D13_COMMAND_PORT, D13CMD_EP_RD_CNFG+bEPIndex);
  8028c8:	e0bfff03 	ldbu	r2,-4(fp)
  8028cc:	10c00c04 	addi	r3,r2,48
  8028d0:	00804474 	movhi	r2,273
  8028d4:	10a40b04 	addi	r2,r2,-28628
  8028d8:	10c00035 	stwio	r3,0(r2)
    c = (UCHAR)(IORD(USB_0_BASE,D13_DATA_PORT) & 0x0ff);
  8028dc:	00804474 	movhi	r2,273
  8028e0:	10a40a04 	addi	r2,r2,-28632
  8028e4:	10800037 	ldwio	r2,0(r2)
  8028e8:	1007883a 	mov	r3,r2
  8028ec:	00bfffc4 	movi	r2,-1
  8028f0:	1884703a 	and	r2,r3,r2
  8028f4:	e0bffe05 	stb	r2,-8(fp)
    return c;
  8028f8:	e0bffe03 	ldbu	r2,-8(fp)
}
  8028fc:	e037883a 	mov	sp,fp
  802900:	df000017 	ldw	fp,0(sp)
  802904:	dec00104 	addi	sp,sp,4
  802908:	f800283a 	ret

0080290c <Hal4D13_SetEndpointConfig>:

void Hal4D13_SetEndpointConfig(UCHAR bEPConfig, UCHAR bEPIndex)
{
  80290c:	defffd04 	addi	sp,sp,-12
  802910:	df000215 	stw	fp,8(sp)
  802914:	df000204 	addi	fp,sp,8
  802918:	e13ffe05 	stb	r4,-8(fp)
  80291c:	e17fff05 	stb	r5,-4(fp)
    IOWR(USB_0_BASE,D13_COMMAND_PORT, (USHORT)(D13CMD_EP_WR_CNFG+bEPIndex));
  802920:	e0bfff03 	ldbu	r2,-4(fp)
  802924:	10800804 	addi	r2,r2,32
  802928:	10ffffcc 	andi	r3,r2,65535
  80292c:	00804474 	movhi	r2,273
  802930:	10a40b04 	addi	r2,r2,-28628
  802934:	10c00035 	stwio	r3,0(r2)
    IOWR(USB_0_BASE,D13_DATA_PORT,(USHORT)bEPConfig);
  802938:	e0fffe03 	ldbu	r3,-8(fp)
  80293c:	00804474 	movhi	r2,273
  802940:	10a40a04 	addi	r2,r2,-28632
  802944:	10c00035 	stwio	r3,0(r2)
}
  802948:	e037883a 	mov	sp,fp
  80294c:	df000017 	ldw	fp,0(sp)
  802950:	dec00104 	addi	sp,sp,4
  802954:	f800283a 	ret

00802958 <Hal4D13_UnconfigDevice>:
// ************************************************************************
// Subroutines -- 3
// ************************************************************************
*/
void Hal4D13_UnconfigDevice(void)
{
  802958:	deffff04 	addi	sp,sp,-4
  80295c:	df000015 	stw	fp,0(sp)
  802960:	d839883a 	mov	fp,sp
}
  802964:	e037883a 	mov	sp,fp
  802968:	df000017 	ldw	fp,0(sp)
  80296c:	dec00104 	addi	sp,sp,4
  802970:	f800283a 	ret

00802974 <Hal4D13_ConfigDevice>:

void Hal4D13_ConfigDevice(void)
{
  802974:	deffff04 	addi	sp,sp,-4
  802978:	df000015 	stw	fp,0(sp)
  80297c:	d839883a 	mov	fp,sp
}
  802980:	e037883a 	mov	sp,fp
  802984:	df000017 	ldw	fp,0(sp)
  802988:	dec00104 	addi	sp,sp,4
  80298c:	f800283a 	ret

00802990 <Hal4D13_SingleTransmitEP0>:


void Hal4D13_SingleTransmitEP0(UCHAR * buf, USHORT len)
{
  802990:	defffc04 	addi	sp,sp,-16
  802994:	dfc00315 	stw	ra,12(sp)
  802998:	df000215 	stw	fp,8(sp)
  80299c:	df000204 	addi	fp,sp,8
  8029a0:	e13ffe15 	stw	r4,-8(fp)
  8029a4:	e17fff0d 	sth	r5,-4(fp)
    if( len <= EP0_PACKET_SIZE) {
  8029a8:	e0bfff0b 	ldhu	r2,-4(fp)
  8029ac:	10801068 	cmpgeui	r2,r2,65
  8029b0:	1000041e 	bne	r2,zero,8029c4 <Hal4D13_SingleTransmitEP0+0x34>
        Hal4D13_WriteEndpoint(EPINDEX4EP0_CONTROL_IN, buf, len);
  8029b4:	e1bfff0b 	ldhu	r6,-4(fp)
  8029b8:	01000044 	movi	r4,1
  8029bc:	e17ffe17 	ldw	r5,-8(fp)
  8029c0:	08021a40 	call	8021a4 <Hal4D13_WriteEndpoint>
    }
}
  8029c4:	e037883a 	mov	sp,fp
  8029c8:	dfc00117 	ldw	ra,4(sp)
  8029cc:	df000017 	ldw	fp,0(sp)
  8029d0:	dec00204 	addi	sp,sp,8
  8029d4:	f800283a 	ret

008029d8 <Hal4D13_RegAccess>:

void Hal4D13_RegAccess(void)
{
  8029d8:	defffc04 	addi	sp,sp,-16
  8029dc:	dfc00315 	stw	ra,12(sp)
  8029e0:	df000215 	stw	fp,8(sp)
  8029e4:	df000204 	addi	fp,sp,8
    USHORT   c;
    USHORT  i;
    ULONG   l;

    Hal4D13_ResetDevice();
  8029e8:	0801b900 	call	801b90 <Hal4D13_ResetDevice>
    printf("Reseting\n");
  8029ec:	01002074 	movhi	r4,129
  8029f0:	210a3404 	addi	r4,r4,10448
  8029f4:	080651c0 	call	80651c <puts>

    i = Hal4D13_ReadChipID();
  8029f8:	08028240 	call	802824 <Hal4D13_ReadChipID>
  8029fc:	e0bfff0d 	sth	r2,-4(fp)
    printf(" ChipId = %hx\n",i);
  802a00:	e17fff0b 	ldhu	r5,-4(fp)
  802a04:	01002074 	movhi	r4,129
  802a08:	210a3704 	addi	r4,r4,10460
  802a0c:	08063e00 	call	8063e0 <printf>

    i = Hal4D13_GetDataFromChipRam();
  802a10:	08027080 	call	802708 <Hal4D13_GetDataFromChipRam>
  802a14:	e0bfff0d 	sth	r2,-4(fp)
    printf(" Chip RAM = %hx\n",i);
  802a18:	e17fff0b 	ldhu	r5,-4(fp)
  802a1c:	01002074 	movhi	r4,129
  802a20:	210a3b04 	addi	r4,r4,10476
  802a24:	08063e00 	call	8063e0 <printf>

    printf("Writing 0x55AA,");
  802a28:	01002074 	movhi	r4,129
  802a2c:	210a4004 	addi	r4,r4,10496
  802a30:	08063e00 	call	8063e0 <printf>
    Hal4D13_SetDataToChipRam(0x55AA);
  802a34:	01156a84 	movi	r4,21930
  802a38:	08027480 	call	802748 <Hal4D13_SetDataToChipRam>
    i = Hal4D13_GetDataFromChipRam();
  802a3c:	08027080 	call	802708 <Hal4D13_GetDataFromChipRam>
  802a40:	e0bfff0d 	sth	r2,-4(fp)
    printf(" Chip RAM = %hx\n",i);
  802a44:	e17fff0b 	ldhu	r5,-4(fp)
  802a48:	01002074 	movhi	r4,129
  802a4c:	210a3b04 	addi	r4,r4,10476
  802a50:	08063e00 	call	8063e0 <printf>

    l = Hal4D13_GetIntEnable();
  802a54:	08023bc0 	call	8023bc <Hal4D13_GetIntEnable>
  802a58:	e0bffe15 	stw	r2,-8(fp)
    printf("Hal4D13_GetIntEnable = %lx\n",l);
  802a5c:	01002074 	movhi	r4,129
  802a60:	210a4404 	addi	r4,r4,10512
  802a64:	e17ffe17 	ldw	r5,-8(fp)
  802a68:	08063e00 	call	8063e0 <printf>

    l = Hal4D13_ReadInterruptRegister();
  802a6c:	08024880 	call	802488 <Hal4D13_ReadInterruptRegister>
  802a70:	e0bffe15 	stw	r2,-8(fp)
    printf("Hal4D13_ReadInterruptRegister = %lx\n",l);
  802a74:	01002074 	movhi	r4,129
  802a78:	210a4b04 	addi	r4,r4,10540
  802a7c:	e17ffe17 	ldw	r5,-8(fp)
  802a80:	08063e00 	call	8063e0 <printf>

    i = Hal4D13_GetDevConfig();
  802a84:	0801bbc0 	call	801bbc <Hal4D13_GetDevConfig>
  802a88:	e0bfff0d 	sth	r2,-4(fp)
    printf("Hal4D13_GetDevConfig = %hx\n",i);
  802a8c:	e17fff0b 	ldhu	r5,-4(fp)
  802a90:	01002074 	movhi	r4,129
  802a94:	210a5504 	addi	r4,r4,10580
  802a98:	08063e00 	call	8063e0 <printf>

    i = Hal4D13_GetDMAConfig();
  802a9c:	08026480 	call	802648 <Hal4D13_GetDMAConfig>
  802aa0:	e0bfff0d 	sth	r2,-4(fp)
    printf("Hal4D13_GetDMAConfig = %hx\n",i);
  802aa4:	e17fff0b 	ldhu	r5,-4(fp)
  802aa8:	01002074 	movhi	r4,129
  802aac:	210a5c04 	addi	r4,r4,10608
  802ab0:	08063e00 	call	8063e0 <printf>

    i = Hal4D13_GetDMACounter();
  802ab4:	08026c80 	call	8026c8 <Hal4D13_GetDMACounter>
  802ab8:	e0bfff0d 	sth	r2,-4(fp)
    printf("Hal4D13_GetDMACounter = %hx\n",i);
  802abc:	e17fff0b 	ldhu	r5,-4(fp)
  802ac0:	01002074 	movhi	r4,129
  802ac4:	210a6304 	addi	r4,r4,10636
  802ac8:	08063e00 	call	8063e0 <printf>

    i = Hal4D13_ReadCurrentFrameNumber();
  802acc:	08027880 	call	802788 <Hal4D13_ReadCurrentFrameNumber>
  802ad0:	e0bfff0d 	sth	r2,-4(fp)
    printf("Hal4D13_ReadCurrentFrameNumber = %hx\n",i);
  802ad4:	e17fff0b 	ldhu	r5,-4(fp)
  802ad8:	01002074 	movhi	r4,129
  802adc:	210a6b04 	addi	r4,r4,10668
  802ae0:	08063e00 	call	8063e0 <printf>

    c = Hal4D13_GetMode();
  802ae4:	0801c7c0 	call	801c7c <Hal4D13_GetMode>
  802ae8:	10803fcc 	andi	r2,r2,255
  802aec:	e0bfff8d 	sth	r2,-2(fp)
    printf("Hal4D13_GetMode = %x\n",c);
  802af0:	e17fff8b 	ldhu	r5,-2(fp)
  802af4:	01002074 	movhi	r4,129
  802af8:	210a7504 	addi	r4,r4,10708
  802afc:	08063e00 	call	8063e0 <printf>

    c = Hal4D13_GetEndpointStatusWOInteruptClear(EPINDEX4EP0_CONTROL_OUT);
  802b00:	0009883a 	mov	r4,zero
  802b04:	080254c0 	call	80254c <Hal4D13_GetEndpointStatusWOInteruptClear>
  802b08:	10803fcc 	andi	r2,r2,255
  802b0c:	e0bfff8d 	sth	r2,-2(fp)
    printf("Hal4D13_GetEndpointStatus EP0 = %x\n",c);
  802b10:	e17fff8b 	ldhu	r5,-2(fp)
  802b14:	01002074 	movhi	r4,129
  802b18:	210a7b04 	addi	r4,r4,10732
  802b1c:	08063e00 	call	8063e0 <printf>

    c = Hal4D13_GetAddress();
  802b20:	0801cc80 	call	801cc8 <Hal4D13_GetAddress>
  802b24:	10803fcc 	andi	r2,r2,255
  802b28:	e0bfff8d 	sth	r2,-2(fp)
//  printf("Hal4D13_GetAddress = %x\n",c);
}
  802b2c:	e037883a 	mov	sp,fp
  802b30:	dfc00117 	ldw	ra,4(sp)
  802b34:	df000017 	ldw	fp,0(sp)
  802b38:	dec00204 	addi	sp,sp,8
  802b3c:	f800283a 	ret

00802b40 <Hal4D13_StallEP0InControlWrite>:

void Hal4D13_StallEP0InControlWrite(void)
{
  802b40:	defffe04 	addi	sp,sp,-8
  802b44:	dfc00115 	stw	ra,4(sp)
  802b48:	df000015 	stw	fp,0(sp)
  802b4c:	d839883a 	mov	fp,sp
    Hal4D13_SetEndpointStatus(EPINDEX4EP0_CONTROL_IN, D13REG_EPSTS_STALL);
  802b50:	01000044 	movi	r4,1
  802b54:	01402004 	movi	r5,128
  802b58:	08025a00 	call	8025a0 <Hal4D13_SetEndpointStatus>
    Hal4D13_SetEndpointStatus(EPINDEX4EP0_CONTROL_OUT, D13REG_EPSTS_STALL);
  802b5c:	0009883a 	mov	r4,zero
  802b60:	01402004 	movi	r5,128
  802b64:	08025a00 	call	8025a0 <Hal4D13_SetEndpointStatus>
}
  802b68:	e037883a 	mov	sp,fp
  802b6c:	dfc00117 	ldw	ra,4(sp)
  802b70:	df000017 	ldw	fp,0(sp)
  802b74:	dec00204 	addi	sp,sp,8
  802b78:	f800283a 	ret

00802b7c <Hal4D13_StallEP0InControlRead>:

void Hal4D13_StallEP0InControlRead(void)
{
  802b7c:	defffe04 	addi	sp,sp,-8
  802b80:	dfc00115 	stw	ra,4(sp)
  802b84:	df000015 	stw	fp,0(sp)
  802b88:	d839883a 	mov	fp,sp
    Hal4D13_SetEndpointStatus(EPINDEX4EP0_CONTROL_OUT, D13REG_EPSTS_STALL);
  802b8c:	0009883a 	mov	r4,zero
  802b90:	01402004 	movi	r5,128
  802b94:	08025a00 	call	8025a0 <Hal4D13_SetEndpointStatus>
    Hal4D13_SetEndpointStatus(EPINDEX4EP0_CONTROL_IN, D13REG_EPSTS_STALL);
  802b98:	01000044 	movi	r4,1
  802b9c:	01402004 	movi	r5,128
  802ba0:	08025a00 	call	8025a0 <Hal4D13_SetEndpointStatus>
}
  802ba4:	e037883a 	mov	sp,fp
  802ba8:	dfc00117 	ldw	ra,4(sp)
  802bac:	df000017 	ldw	fp,0(sp)
  802bb0:	dec00204 	addi	sp,sp,8
  802bb4:	f800283a 	ret

00802bb8 <Hal4D13_IsSetupPktInvalid>:

BOOLEAN Hal4D13_IsSetupPktInvalid(void)
{
  802bb8:	defffd04 	addi	sp,sp,-12
  802bbc:	dfc00215 	stw	ra,8(sp)
  802bc0:	df000115 	stw	fp,4(sp)
  802bc4:	df000104 	addi	fp,sp,4
    USHORT SetupPacketInvalid;
    SetupPacketInvalid = Hal4D13_GetEndpointStatusWOInteruptClear(EPINDEX4EP0_CONTROL_OUT)&D13REG_EPSTS_OVWR;
  802bc8:	0009883a 	mov	r4,zero
  802bcc:	080254c0 	call	80254c <Hal4D13_GetEndpointStatusWOInteruptClear>
  802bd0:	10803fcc 	andi	r2,r2,255
  802bd4:	1080020c 	andi	r2,r2,8
  802bd8:	e0bfff0d 	sth	r2,-4(fp)
    return SetupPacketInvalid;
  802bdc:	e0bfff0b 	ldhu	r2,-4(fp)
  802be0:	10803fcc 	andi	r2,r2,255
}
  802be4:	e037883a 	mov	sp,fp
  802be8:	dfc00117 	ldw	ra,4(sp)
  802bec:	df000017 	ldw	fp,0(sp)
  802bf0:	dec00204 	addi	sp,sp,8
  802bf4:	f800283a 	ret

00802bf8 <Write_HC_Config_Reg>:

void Write_HC_Config_Reg(unsigned short Config)
{
  802bf8:	defffe04 	addi	sp,sp,-8
  802bfc:	df000115 	stw	fp,4(sp)
  802c00:	df000104 	addi	fp,sp,4
  802c04:	e13fff0d 	sth	r4,-4(fp)
    IOWR(USB_0_BASE,HC_COMMAND_PORT , HCCMD_WR_CNFG_REG );
  802c08:	00c04474 	movhi	r3,273
  802c0c:	18e40904 	addi	r3,r3,-28636
  802c10:	00802804 	movi	r2,160
  802c14:	18800035 	stwio	r2,0(r3)
    IOWR(USB_0_BASE,HC_DATA_PORT , Config);
  802c18:	e0ffff0b 	ldhu	r3,-4(fp)
  802c1c:	00804474 	movhi	r2,273
  802c20:	10a40804 	addi	r2,r2,-28640
  802c24:	10c00035 	stwio	r3,0(r2)
}
  802c28:	e037883a 	mov	sp,fp
  802c2c:	df000017 	ldw	fp,0(sp)
  802c30:	dec00104 	addi	sp,sp,4
  802c34:	f800283a 	ret

00802c38 <Read_HC_Config_Reg>:

unsigned short Read_HC_Config_Reg(void)
{
  802c38:	deffff04 	addi	sp,sp,-4
  802c3c:	df000015 	stw	fp,0(sp)
  802c40:	d839883a 	mov	fp,sp
    IOWR(USB_0_BASE,HC_COMMAND_PORT , HCCMD_RD_CNFG_REG );
  802c44:	00c04474 	movhi	r3,273
  802c48:	18e40904 	addi	r3,r3,-28636
  802c4c:	00800804 	movi	r2,32
  802c50:	18800035 	stwio	r2,0(r3)
    return IORD(USB_0_BASE,HC_DATA_PORT);
  802c54:	00804474 	movhi	r2,273
  802c58:	10a40804 	addi	r2,r2,-28640
  802c5c:	10800037 	ldwio	r2,0(r2)
  802c60:	10bfffcc 	andi	r2,r2,65535
}
  802c64:	e037883a 	mov	sp,fp
  802c68:	df000017 	ldw	fp,0(sp)
  802c6c:	dec00104 	addi	sp,sp,4
  802c70:	f800283a 	ret

00802c74 <HID_Get_Report>:
/* Required global variables */
extern CONTROL_XFER ControlData; // Holds data from reveived packets
extern HID_KEYS_REPORT new_report;
extern HID_SETTINGS hid_settings;

void HID_Get_Report() {
  802c74:	defffd04 	addi	sp,sp,-12
  802c78:	dfc00215 	stw	ra,8(sp)
  802c7c:	df000115 	stw	fp,4(sp)
  802c80:	df000104 	addi	fp,sp,4
   UCHAR   bDescriptor =      MSB(ControlData.DeviceRequest.wValue);
  802c84:	00802074 	movhi	r2,129
  802c88:	109c7d04 	addi	r2,r2,29172
  802c8c:	1080010b 	ldhu	r2,4(r2)
  802c90:	10bfffcc 	andi	r2,r2,65535
  802c94:	1004d23a 	srli	r2,r2,8
  802c98:	1007883a 	mov	r3,r2
  802c9c:	00bfffc4 	movi	r2,-1
  802ca0:	1884703a 	and	r2,r3,r2
  802ca4:	e0bfffc5 	stb	r2,-1(fp)
   UCHAR   bDescriptorIndex = LSB(ControlData.DeviceRequest.wValue);
  802ca8:	00802074 	movhi	r2,129
  802cac:	109c7d04 	addi	r2,r2,29172
  802cb0:	1080010b 	ldhu	r2,4(r2)
  802cb4:	1007883a 	mov	r3,r2
  802cb8:	00bfffc4 	movi	r2,-1
  802cbc:	1884703a 	and	r2,r3,r2
  802cc0:	e0bfff85 	stb	r2,-2(fp)
   USHORT  bLen = ControlData.DeviceRequest.wLength;
  802cc4:	00802074 	movhi	r2,129
  802cc8:	109c7d04 	addi	r2,r2,29172
  802ccc:	1080020b 	ldhu	r2,8(r2)
  802cd0:	e0bfff0d 	sth	r2,-4(fp)
   // printf("bDescri = %d : ",bDescriptor);
   // printf("Index = %d\n",bDescriptorIndex);

   if(sizeof(new_report) <= bLen){
  802cd4:	e0bfff0b 	ldhu	r2,-4(fp)
  802cd8:	10800230 	cmpltui	r2,r2,8
  802cdc:	1000041e 	bne	r2,zero,802cf0 <HID_Get_Report+0x7c>
      Chap9_BurstTransmitEP0((PUCHAR)&new_report, sizeof(new_report));
  802ce0:	01002074 	movhi	r4,129
  802ce4:	211c5d04 	addi	r4,r4,29044
  802ce8:	01400204 	movi	r5,8
  802cec:	08014080 	call	801408 <Chap9_BurstTransmitEP0>
   }
   hid_settings.state = connected;
  802cf0:	00c02074 	movhi	r3,129
  802cf4:	18dc6204 	addi	r3,r3,29064
  802cf8:	00800044 	movi	r2,1
  802cfc:	18800115 	stw	r2,4(r3)
}
  802d00:	e037883a 	mov	sp,fp
  802d04:	dfc00117 	ldw	ra,4(sp)
  802d08:	df000017 	ldw	fp,0(sp)
  802d0c:	dec00204 	addi	sp,sp,8
  802d10:	f800283a 	ret

00802d14 <HID_Get_Idle>:

void HID_Get_Idle() {
  802d14:	defffe04 	addi	sp,sp,-8
  802d18:	dfc00115 	stw	ra,4(sp)
  802d1c:	df000015 	stw	fp,0(sp)
  802d20:	d839883a 	mov	fp,sp
   printf("Get Idle\n");
  802d24:	01002074 	movhi	r4,129
  802d28:	210a8404 	addi	r4,r4,10768
  802d2c:	080651c0 	call	80651c <puts>
}
  802d30:	e037883a 	mov	sp,fp
  802d34:	dfc00117 	ldw	ra,4(sp)
  802d38:	df000017 	ldw	fp,0(sp)
  802d3c:	dec00204 	addi	sp,sp,8
  802d40:	f800283a 	ret

00802d44 <HID_Get_Protocol>:

void HID_Get_Protocol() {
  802d44:	defffe04 	addi	sp,sp,-8
  802d48:	dfc00115 	stw	ra,4(sp)
  802d4c:	df000015 	stw	fp,0(sp)
  802d50:	d839883a 	mov	fp,sp
   printf("Get Protocol\n");
  802d54:	01002074 	movhi	r4,129
  802d58:	210a8704 	addi	r4,r4,10780
  802d5c:	080651c0 	call	80651c <puts>
}
  802d60:	e037883a 	mov	sp,fp
  802d64:	dfc00117 	ldw	ra,4(sp)
  802d68:	df000017 	ldw	fp,0(sp)
  802d6c:	dec00204 	addi	sp,sp,8
  802d70:	f800283a 	ret

00802d74 <HID_Set_Report>:

void HID_Set_Report() {
  802d74:	defffe04 	addi	sp,sp,-8
  802d78:	dfc00115 	stw	ra,4(sp)
  802d7c:	df000015 	stw	fp,0(sp)
  802d80:	d839883a 	mov	fp,sp
   printf("Set Report\n");
  802d84:	01002074 	movhi	r4,129
  802d88:	210a8b04 	addi	r4,r4,10796
  802d8c:	080651c0 	call	80651c <puts>
}
  802d90:	e037883a 	mov	sp,fp
  802d94:	dfc00117 	ldw	ra,4(sp)
  802d98:	df000017 	ldw	fp,0(sp)
  802d9c:	dec00204 	addi	sp,sp,8
  802da0:	f800283a 	ret

00802da4 <HID_Set_Idle>:

void HID_Set_Idle() {
  802da4:	defffd04 	addi	sp,sp,-12
  802da8:	dfc00215 	stw	ra,8(sp)
  802dac:	df000115 	stw	fp,4(sp)
  802db0:	df000104 	addi	fp,sp,4
   printf("Set Idle\n");
  802db4:	01002074 	movhi	r4,129
  802db8:	210a8e04 	addi	r4,r4,10808
  802dbc:	080651c0 	call	80651c <puts>

   UCHAR duration = MSB(ControlData.DeviceRequest.wValue);
  802dc0:	00802074 	movhi	r2,129
  802dc4:	109c7d04 	addi	r2,r2,29172
  802dc8:	1080010b 	ldhu	r2,4(r2)
  802dcc:	10bfffcc 	andi	r2,r2,65535
  802dd0:	1004d23a 	srli	r2,r2,8
  802dd4:	1007883a 	mov	r3,r2
  802dd8:	00bfffc4 	movi	r2,-1
  802ddc:	1884703a 	and	r2,r3,r2
  802de0:	e0bfff45 	stb	r2,-3(fp)
   UCHAR reportID = LSB(ControlData.DeviceRequest.wValue);
  802de4:	00802074 	movhi	r2,129
  802de8:	109c7d04 	addi	r2,r2,29172
  802dec:	1080010b 	ldhu	r2,4(r2)
  802df0:	1007883a 	mov	r3,r2
  802df4:	00bfffc4 	movi	r2,-1
  802df8:	1884703a 	and	r2,r3,r2
  802dfc:	e0bfff05 	stb	r2,-4(fp)

   printf("Duration: %x, ReportID: %x\n", duration, reportID);
  802e00:	e17fff43 	ldbu	r5,-3(fp)
  802e04:	e1bfff03 	ldbu	r6,-4(fp)
  802e08:	01002074 	movhi	r4,129
  802e0c:	210a9104 	addi	r4,r4,10820
  802e10:	08063e00 	call	8063e0 <printf>

   hid_settings.idle_time = 0;
  802e14:	00802074 	movhi	r2,129
  802e18:	109c6204 	addi	r2,r2,29064
  802e1c:	10000015 	stw	zero,0(r2)
   if(duration != 0) {
  802e20:	e0bfff43 	ldbu	r2,-3(fp)
  802e24:	1005003a 	cmpeq	r2,r2,zero
  802e28:	1000071e 	bne	r2,zero,802e48 <HID_Set_Idle+0xa4>
	   hid_settings.idle_time = duration * 4; //wait time in milliseconds
  802e2c:	e0bfff43 	ldbu	r2,-3(fp)
  802e30:	1085883a 	add	r2,r2,r2
  802e34:	1085883a 	add	r2,r2,r2
  802e38:	1007883a 	mov	r3,r2
  802e3c:	00802074 	movhi	r2,129
  802e40:	109c6204 	addi	r2,r2,29064
  802e44:	10c00015 	stw	r3,0(r2)
   }
   if(reportID != 0) {
  802e48:	e0bfff03 	ldbu	r2,-4(fp)
  802e4c:	1005003a 	cmpeq	r2,r2,zero
  802e50:	1000041e 	bne	r2,zero,802e64 <HID_Set_Idle+0xc0>
      printf("ReportID = %ud\n", reportID);
  802e54:	e17fff03 	ldbu	r5,-4(fp)
  802e58:	01002074 	movhi	r4,129
  802e5c:	210a9804 	addi	r4,r4,10848
  802e60:	08063e00 	call	8063e0 <printf>
   }
   hid_settings.state = connected;
  802e64:	00c02074 	movhi	r3,129
  802e68:	18dc6204 	addi	r3,r3,29064
  802e6c:	00800044 	movi	r2,1
  802e70:	18800115 	stw	r2,4(r3)
}
  802e74:	e037883a 	mov	sp,fp
  802e78:	dfc00117 	ldw	ra,4(sp)
  802e7c:	df000017 	ldw	fp,0(sp)
  802e80:	dec00204 	addi	sp,sp,8
  802e84:	f800283a 	ret

00802e88 <HID_Set_Protocol>:

void HID_Set_Protocol() {
  802e88:	defffe04 	addi	sp,sp,-8
  802e8c:	dfc00115 	stw	ra,4(sp)
  802e90:	df000015 	stw	fp,0(sp)
  802e94:	d839883a 	mov	fp,sp
   printf("Set Protocol\n");
  802e98:	01002074 	movhi	r4,129
  802e9c:	210a9c04 	addi	r4,r4,10864
  802ea0:	080651c0 	call	80651c <puts>
}
  802ea4:	e037883a 	mov	sp,fp
  802ea8:	dfc00117 	ldw	ra,4(sp)
  802eac:	df000017 	ldw	fp,0(sp)
  802eb0:	dec00204 	addi	sp,sp,8
  802eb4:	f800283a 	ret

00802eb8 <fn_usb_isr>:

// ************************************************************************
//  ISR Subroutine
// ************************************************************************
void fn_usb_isr(void)
{
  802eb8:	defffe04 	addi	sp,sp,-8
  802ebc:	dfc00115 	stw	ra,4(sp)
  802ec0:	df000015 	stw	fp,0(sp)
  802ec4:	d839883a 	mov	fp,sp
    disable_irq();
  802ec8:	08055a80 	call	8055a8 <disable_irq>
    Hal4D13_LockDevice(0);
  802ecc:	0009883a 	mov	r4,zero
  802ed0:	08027c80 	call	8027c8 <Hal4D13_LockDevice>
    enable_irq();
  802ed4:	08055f80 	call	8055f8 <enable_irq>
}
  802ed8:	e037883a 	mov	sp,fp
  802edc:	dfc00117 	ldw	ra,4(sp)
  802ee0:	df000017 	ldw	fp,0(sp)
  802ee4:	dec00204 	addi	sp,sp,8
  802ee8:	f800283a 	ret

00802eec <usb_isr>:

void usb_isr(void)
{
  802eec:	defffd04 	addi	sp,sp,-12
  802ef0:	dfc00215 	stw	ra,8(sp)
  802ef4:	df000115 	stw	fp,4(sp)
  802ef8:	df000104 	addi	fp,sp,4
    ULONG   i_st;
    disable_irq();
  802efc:	08055a80 	call	8055a8 <disable_irq>
    Hal4D13_LockDevice(0); //Unlock ISP1362 buffers to read/write
  802f00:	0009883a 	mov	r4,zero
  802f04:	08027c80 	call	8027c8 <Hal4D13_LockDevice>
    bD13flags.bits.At_IRQL1 = 1;
  802f08:	00c02074 	movhi	r3,129
  802f0c:	18dc5b04 	addi	r3,r3,29036
  802f10:	18800017 	ldw	r2,0(r3)
  802f14:	10800114 	ori	r2,r2,4
  802f18:	18800015 	stw	r2,0(r3)
    i_st = Hal4D13_ReadInterruptRegister();
  802f1c:	08024880 	call	802488 <Hal4D13_ReadInterruptRegister>
  802f20:	e0bfff15 	stw	r2,-4(fp)
    if(i_st != 0) 
  802f24:	e0bfff17 	ldw	r2,-4(fp)
  802f28:	1005003a 	cmpeq	r2,r2,zero
  802f2c:	1000381e 	bne	r2,zero,803010 <usb_isr+0x124>
    {
        if(i_st & D13REG_INTSRC_BUSRESET)
  802f30:	e0bfff17 	ldw	r2,-4(fp)
  802f34:	1080004c 	andi	r2,r2,1
  802f38:	10803fcc 	andi	r2,r2,255
  802f3c:	1005003a 	cmpeq	r2,r2,zero
  802f40:	1000021e 	bne	r2,zero,802f4c <usb_isr+0x60>
            Isr_BusReset();
  802f44:	08030400 	call	803040 <Isr_BusReset>
  802f48:	00003106 	br	803010 <usb_isr+0x124>
        else if(i_st & D13REG_INTSRC_SUSPEND)
  802f4c:	e0bfff17 	ldw	r2,-4(fp)
  802f50:	1080010c 	andi	r2,r2,4
  802f54:	1005003a 	cmpeq	r2,r2,zero
  802f58:	1000021e 	bne	r2,zero,802f64 <usb_isr+0x78>
            Isr_SuspendChange();
  802f5c:	080312c0 	call	80312c <Isr_SuspendChange>
  802f60:	00002b06 	br	803010 <usb_isr+0x124>
        else if(i_st & D13REG_INTSRC_EOT)
  802f64:	e0bfff17 	ldw	r2,-4(fp)
  802f68:	1080020c 	andi	r2,r2,8
  802f6c:	1005003a 	cmpeq	r2,r2,zero
  802f70:	1000021e 	bne	r2,zero,802f7c <usb_isr+0x90>
            Isr_DmaEot();
  802f74:	080318c0 	call	80318c <Isr_DmaEot>
  802f78:	00002506 	br	803010 <usb_isr+0x124>
        else if(i_st & (D13REG_INTSRC_SOF|D13REG_INTSRC_PSEUDO_SOF))
  802f7c:	e0bfff17 	ldw	r2,-4(fp)
  802f80:	10800c0c 	andi	r2,r2,48
  802f84:	1005003a 	cmpeq	r2,r2,zero
  802f88:	1000021e 	bne	r2,zero,802f94 <usb_isr+0xa8>
            Isr_SOF();
  802f8c:	08032580 	call	803258 <Isr_SOF>
  802f90:	00001f06 	br	803010 <usb_isr+0x124>
        else if(i_st & D13REG_INTSRC_SHORT_PACKET)
  802f94:	e0bfff17 	ldw	r2,-4(fp)
  802f98:	1080100c 	andi	r2,r2,64
  802f9c:	1005003a 	cmpeq	r2,r2,zero
  802fa0:	1000021e 	bne	r2,zero,802fac <usb_isr+0xc0>
            Isr_SHORT_PACKET();
  802fa4:	080315c0 	call	80315c <Isr_SHORT_PACKET>
  802fa8:	00001906 	br	803010 <usb_isr+0x124>
        else if(i_st & D13REG_INTSRC_RESUME)
  802fac:	e0bfff17 	ldw	r2,-4(fp)
  802fb0:	1080008c 	andi	r2,r2,2
  802fb4:	1005003a 	cmpeq	r2,r2,zero
  802fb8:	1000061e 	bne	r2,zero,802fd4 <usb_isr+0xe8>
        {
            printf("RESUME\n");
  802fbc:	01002074 	movhi	r4,129
  802fc0:	210aa004 	addi	r4,r4,10880
  802fc4:	080651c0 	call	80651c <puts>
            Hal4D13_LockDevice(0);
  802fc8:	0009883a 	mov	r4,zero
  802fcc:	08027c80 	call	8027c8 <Hal4D13_LockDevice>
  802fd0:	00000f06 	br	803010 <usb_isr+0x124>
        }
        else 
        {
            if(i_st & D13REG_INTSRC_EP0OUT)  
  802fd4:	e0bfff17 	ldw	r2,-4(fp)
  802fd8:	1080400c 	andi	r2,r2,256
  802fdc:	1005003a 	cmpeq	r2,r2,zero
  802fe0:	1000011e 	bne	r2,zero,802fe8 <usb_isr+0xfc>
                Isr_Ep00RxDone();
  802fe4:	08032740 	call	803274 <Isr_Ep00RxDone>
            if(i_st & D13REG_INTSRC_EP0IN)
  802fe8:	e0bfff17 	ldw	r2,-4(fp)
  802fec:	1080800c 	andi	r2,r2,512
  802ff0:	1005003a 	cmpeq	r2,r2,zero
  802ff4:	1000011e 	bne	r2,zero,802ffc <usb_isr+0x110>
                Isr_Ep00TxDone();
  802ff8:	08034780 	call	803478 <Isr_Ep00TxDone>
            if(i_st & D13REG_INTSRC_EP01)
  802ffc:	e0bfff17 	ldw	r2,-4(fp)
  803000:	1081000c 	andi	r2,r2,1024
  803004:	1005003a 	cmpeq	r2,r2,zero
  803008:	1000011e 	bne	r2,zero,803010 <usb_isr+0x124>
            	Isr_Ep01Done();
  80300c:	08036900 	call	803690 <Isr_Ep01Done>
        }
    }
    enable_irq();
  803010:	08055f80 	call	8055f8 <enable_irq>
	bD13flags.bits.At_IRQL1 = 0;
  803014:	01002074 	movhi	r4,129
  803018:	211c5b04 	addi	r4,r4,29036
  80301c:	20c00017 	ldw	r3,0(r4)
  803020:	00bffec4 	movi	r2,-5
  803024:	1884703a 	and	r2,r3,r2
  803028:	20800015 	stw	r2,0(r4)
}
  80302c:	e037883a 	mov	sp,fp
  803030:	dfc00117 	ldw	ra,4(sp)
  803034:	df000017 	ldw	fp,0(sp)
  803038:	dec00204 	addi	sp,sp,8
  80303c:	f800283a 	ret

00803040 <Isr_BusReset>:

void Isr_BusReset(void)
{
  803040:	defffe04 	addi	sp,sp,-8
  803044:	dfc00115 	stw	ra,4(sp)
  803048:	df000015 	stw	fp,0(sp)
  80304c:	d839883a 	mov	fp,sp
    printf("BUS RESET\n");
  803050:	01002074 	movhi	r4,129
  803054:	210aa204 	addi	r4,r4,10888
  803058:	080651c0 	call	80651c <puts>
    reconnect_USB_controller();
  80305c:	0803d400 	call	803d40 <reconnect_USB_controller>
    bD13flags.bits.DCP_state = 0x00;
  803060:	01002074 	movhi	r4,129
  803064:	211c5b04 	addi	r4,r4,29036
  803068:	20c00017 	ldw	r3,0(r4)
  80306c:	00bc3fc4 	movi	r2,-3841
  803070:	1884703a 	and	r2,r3,r2
  803074:	20800015 	stw	r2,0(r4)
    bD13flags.bits.dma_disable=0x00;
  803078:	01002074 	movhi	r4,129
  80307c:	211c5b04 	addi	r4,r4,29036
  803080:	20c00017 	ldw	r3,0(r4)
  803084:	00bfff34 	movhi	r2,65532
  803088:	10bfffc4 	addi	r2,r2,-1
  80308c:	1884703a 	and	r2,r3,r2
  803090:	20800015 	stw	r2,0(r4)
    hid_settings.state = reset;
  803094:	00802074 	movhi	r2,129
  803098:	109c6204 	addi	r2,r2,29064
  80309c:	10000115 	stw	zero,4(r2)
    bUSBCheck_Device_State.State_bits.DEVICE_DEFAULT_STATE = 1;
  8030a0:	00c02074 	movhi	r3,129
  8030a4:	18dc6404 	addi	r3,r3,29072
  8030a8:	18800003 	ldbu	r2,0(r3)
  8030ac:	10800054 	ori	r2,r2,1
  8030b0:	18800005 	stb	r2,0(r3)
    bUSBCheck_Device_State.State_bits.DEVICE_ADDRESS_STATE = 0;
  8030b4:	01002074 	movhi	r4,129
  8030b8:	211c6404 	addi	r4,r4,29072
  8030bc:	20c00003 	ldbu	r3,0(r4)
  8030c0:	00bfff44 	movi	r2,-3
  8030c4:	1884703a 	and	r2,r3,r2
  8030c8:	20800005 	stb	r2,0(r4)
    bUSBCheck_Device_State.State_bits.DEVICE_CONFIGURATION_STATE = 0;
  8030cc:	01002074 	movhi	r4,129
  8030d0:	211c6404 	addi	r4,r4,29072
  8030d4:	20c00003 	ldbu	r3,0(r4)
  8030d8:	00bffec4 	movi	r2,-5
  8030dc:	1884703a 	and	r2,r3,r2
  8030e0:	20800005 	stb	r2,0(r4)
    bUSBCheck_Device_State.State_bits.RESET_BITS = 0;
  8030e4:	00802074 	movhi	r2,129
  8030e8:	109c6404 	addi	r2,r2,29072
  8030ec:	10000085 	stb	zero,2(r2)

	new_report.modifier = 0x00;
  8030f0:	00802074 	movhi	r2,129
  8030f4:	109c5d04 	addi	r2,r2,29044
  8030f8:	10000005 	stb	zero,0(r2)
	new_report.reserved = 0x00;
  8030fc:	00802074 	movhi	r2,129
  803100:	109c5d04 	addi	r2,r2,29044
  803104:	10000045 	stb	zero,1(r2)
	new_report.keycode[0] = 0x00;
  803108:	00802074 	movhi	r2,129
  80310c:	109c5d04 	addi	r2,r2,29044
  803110:	10000085 	stb	zero,2(r2)

    //TODO: Reset Everything needed to reset program. Basically.

    config_endpoints();
  803114:	0803c4c0 	call	803c4c <config_endpoints>
}
  803118:	e037883a 	mov	sp,fp
  80311c:	dfc00117 	ldw	ra,4(sp)
  803120:	df000017 	ldw	fp,0(sp)
  803124:	dec00204 	addi	sp,sp,8
  803128:	f800283a 	ret

0080312c <Isr_SuspendChange>:

void Isr_SuspendChange(void)
{
  80312c:	deffff04 	addi	sp,sp,-4
  803130:	df000015 	stw	fp,0(sp)
  803134:	d839883a 	mov	fp,sp
    bD13flags.bits.suspend=1;
  803138:	00802074 	movhi	r2,129
  80313c:	109c5b04 	addi	r2,r2,29036
  803140:	10c00017 	ldw	r3,0(r2)
  803144:	18c00094 	ori	r3,r3,2
  803148:	10c00015 	stw	r3,0(r2)
}
  80314c:	e037883a 	mov	sp,fp
  803150:	df000017 	ldw	fp,0(sp)
  803154:	dec00104 	addi	sp,sp,4
  803158:	f800283a 	ret

0080315c <Isr_SHORT_PACKET>:

void Isr_SHORT_PACKET(void)
{
  80315c:	defffe04 	addi	sp,sp,-8
  803160:	dfc00115 	stw	ra,4(sp)
  803164:	df000015 	stw	fp,0(sp)
  803168:	d839883a 	mov	fp,sp
    printf("SHORT PACKET INTERRUPT\n");
  80316c:	01002074 	movhi	r4,129
  803170:	210aa504 	addi	r4,r4,10900
  803174:	080651c0 	call	80651c <puts>
}
  803178:	e037883a 	mov	sp,fp
  80317c:	dfc00117 	ldw	ra,4(sp)
  803180:	df000017 	ldw	fp,0(sp)
  803184:	dec00204 	addi	sp,sp,8
  803188:	f800283a 	ret

0080318c <Isr_DmaEot>:

void Isr_DmaEot(void)
{
  80318c:	defffe04 	addi	sp,sp,-8
  803190:	dfc00115 	stw	ra,4(sp)
  803194:	df000015 	stw	fp,0(sp)
  803198:	d839883a 	mov	fp,sp
    bD13flags.bits.dma_disable =0;
  80319c:	01002074 	movhi	r4,129
  8031a0:	211c5b04 	addi	r4,r4,29036
  8031a4:	20c00017 	ldw	r3,0(r4)
  8031a8:	00bfff34 	movhi	r2,65532
  8031ac:	10bfffc4 	addi	r2,r2,-1
  8031b0:	1884703a 	and	r2,r3,r2
  8031b4:	20800015 	stw	r2,0(r4)

    if(bD13flags.bits.dma_state == DMA_PENDING)
  8031b8:	00802074 	movhi	r2,129
  8031bc:	109c5b04 	addi	r2,r2,29036
  8031c0:	10800017 	ldw	r2,0(r2)
  8031c4:	10c0062c 	andhi	r3,r2,24
  8031c8:	00800434 	movhi	r2,16
  8031cc:	1880061e 	bne	r3,r2,8031e8 <Isr_DmaEot+0x5c>
        bD13flags.bits.setup_dma = 1;
  8031d0:	00802074 	movhi	r2,129
  8031d4:	109c5b04 	addi	r2,r2,29036
  8031d8:	10c00017 	ldw	r3,0(r2)
  8031dc:	18c00074 	orhi	r3,r3,1
  8031e0:	10c00015 	stw	r3,0(r2)
  8031e4:	00000706 	br	803204 <Isr_DmaEot+0x78>
    else
        bD13flags.bits.dma_state = DMA_IDLE;
  8031e8:	01002074 	movhi	r4,129
  8031ec:	211c5b04 	addi	r4,r4,29036
  8031f0:	20c00017 	ldw	r3,0(r4)
  8031f4:	00bffa34 	movhi	r2,65512
  8031f8:	10bfffc4 	addi	r2,r2,-1
  8031fc:	1884703a 	and	r2,r3,r2
  803200:	20800015 	stw	r2,0(r4)
    printf("EOT reached!!!\n");
  803204:	01002074 	movhi	r4,129
  803208:	210aab04 	addi	r4,r4,10924
  80320c:	080651c0 	call	80651c <puts>
    if(bD13flags.bits.verbose==1)
  803210:	00802074 	movhi	r2,129
  803214:	109c5b04 	addi	r2,r2,29036
  803218:	10800017 	ldw	r2,0(r2)
  80321c:	1080402c 	andhi	r2,r2,256
  803220:	1005003a 	cmpeq	r2,r2,zero
  803224:	1000051e 	bne	r2,zero,80323c <Isr_DmaEot+0xb0>
        printf("dma_counter = %x\n", Hal4D13_GetDMACounter());
  803228:	08026c80 	call	8026c8 <Hal4D13_GetDMACounter>
  80322c:	117fffcc 	andi	r5,r2,65535
  803230:	01002074 	movhi	r4,129
  803234:	210aaf04 	addi	r4,r4,10940
  803238:	08063e00 	call	8063e0 <printf>
    printf("\n");       
  80323c:	01000284 	movi	r4,10
  803240:	08064580 	call	806458 <putchar>
}
  803244:	e037883a 	mov	sp,fp
  803248:	dfc00117 	ldw	ra,4(sp)
  80324c:	df000017 	ldw	fp,0(sp)
  803250:	dec00204 	addi	sp,sp,8
  803254:	f800283a 	ret

00803258 <Isr_SOF>:


void Isr_SOF(void)
{
  803258:	deffff04 	addi	sp,sp,-4
  80325c:	df000015 	stw	fp,0(sp)
  803260:	d839883a 	mov	fp,sp

}
  803264:	e037883a 	mov	sp,fp
  803268:	df000017 	ldw	fp,0(sp)
  80326c:	dec00104 	addi	sp,sp,4
  803270:	f800283a 	ret

00803274 <Isr_Ep00RxDone>:

void Isr_Ep00RxDone(void)
{
  803274:	defffc04 	addi	sp,sp,-16
  803278:	dfc00315 	stw	ra,12(sp)
  80327c:	df000215 	stw	fp,8(sp)
  803280:	df000204 	addi	fp,sp,8
    UCHAR       ep_last, i;
    //printf("RX %d\n", bUSBCheck_Device_State.State_bits.FOUR_RESERVED_BITS++);
    ep_last = Hal4D13_GetEndpointStatusWInteruptClear(EPINDEX4EP0_CONTROL_OUT); /* Clear interrupt flag */
  803284:	0009883a 	mov	r4,zero
  803288:	08024f80 	call	8024f8 <Hal4D13_GetEndpointStatusWInteruptClear>
  80328c:	e0bffe45 	stb	r2,-7(fp)


    if (ep_last & D13REG_EPSTS_SETUP)
  803290:	e0bffe43 	ldbu	r2,-7(fp)
  803294:	1080010c 	andi	r2,r2,4
  803298:	1005003a 	cmpeq	r2,r2,zero
  80329c:	10001a1e 	bne	r2,zero,803308 <Isr_Ep00RxDone+0x94>
    {
        if(bD13flags.bits.DCP_state == USBFSM4DCP_REQUESTPROC)
  8032a0:	00802074 	movhi	r2,129
  8032a4:	109c5b04 	addi	r2,r2,29036
  8032a8:	10800017 	ldw	r2,0(r2)
  8032ac:	1083c00c 	andi	r2,r2,3840
  8032b0:	1080c018 	cmpnei	r2,r2,768
  8032b4:	10000c1e 	bne	r2,zero,8032e8 <Isr_Ep00RxDone+0x74>
        {
            ControlData.Abort = 1;
  8032b8:	00c02074 	movhi	r3,129
  8032bc:	18dc7d04 	addi	r3,r3,29172
  8032c0:	00800044 	movi	r2,1
  8032c4:	18800005 	stb	r2,0(r3)
            bD13flags.bits.DCP_state = USBFSM4DCP_SETUPPROC;
  8032c8:	01002074 	movhi	r4,129
  8032cc:	211c5b04 	addi	r4,r4,29036
  8032d0:	20c00017 	ldw	r3,0(r4)
  8032d4:	00bc3fc4 	movi	r2,-3841
  8032d8:	1884703a 	and	r2,r3,r2
  8032dc:	10814014 	ori	r2,r2,1280
  8032e0:	20800015 	stw	r2,0(r4)
  8032e4:	00005f06 	br	803464 <Isr_Ep00RxDone+0x1f0>
        }
        else
            bD13flags.bits.DCP_state = USBFSM4DCP_SETUPPROC;
  8032e8:	01002074 	movhi	r4,129
  8032ec:	211c5b04 	addi	r4,r4,29036
  8032f0:	20c00017 	ldw	r3,0(r4)
  8032f4:	00bc3fc4 	movi	r2,-3841
  8032f8:	1884703a 	and	r2,r3,r2
  8032fc:	10814014 	ori	r2,r2,1280
  803300:	20800015 	stw	r2,0(r4)
  803304:	00005706 	br	803464 <Isr_Ep00RxDone+0x1f0>
        //printf("StateMain : %x\n",bD13flags.bits.DCP_state);
    }
    else /* not a setup packet, just a Data Out Packet */
    {
    	//printf("StateElse : %x\n",bD13flags.bits.DCP_state);
        switch (bD13flags.bits.DCP_state)
  803308:	00802074 	movhi	r2,129
  80330c:	109c5b04 	addi	r2,r2,29036
  803310:	10800017 	ldw	r2,0(r2)
  803314:	1004d23a 	srli	r2,r2,8
  803318:	108003cc 	andi	r2,r2,15
  80331c:	10803fcc 	andi	r2,r2,255
  803320:	e0bfff15 	stw	r2,-4(fp)
  803324:	e0ffff17 	ldw	r3,-4(fp)
  803328:	18800228 	cmpgeui	r2,r3,8
  80332c:	1000411e 	bne	r2,zero,803434 <Isr_Ep00RxDone+0x1c0>
  803330:	e13fff17 	ldw	r4,-4(fp)
  803334:	e13fff17 	ldw	r4,-4(fp)
  803338:	2105883a 	add	r2,r4,r4
  80333c:	1087883a 	add	r3,r2,r2
  803340:	00802034 	movhi	r2,128
  803344:	108cd504 	addi	r2,r2,13140
  803348:	1885883a 	add	r2,r3,r2
  80334c:	10800017 	ldw	r2,0(r2)
  803350:	1000683a 	jmp	r2
  803354:	00803434 	movhi	r2,208
  803358:	00803464 	muli	r2,zero,209
  80335c:	00803374 	movhi	r2,205
  803360:	00803464 	muli	r2,zero,209
  803364:	00803418 	cmpnei	r2,zero,208
  803368:	00803464 	muli	r2,zero,209
  80336c:	00803434 	movhi	r2,208
  803370:	00803464 	muli	r2,zero,209
        {

        case USBFSM4DCP_DATAOUT:

            i = Hal4D13_ReadEndpoint(EPINDEX4EP0_CONTROL_OUT, ControlData.dataBuffer + ControlData.wCount,
  803374:	00802074 	movhi	r2,129
  803378:	109c7d04 	addi	r2,r2,29172
  80337c:	1080030b 	ldhu	r2,12(r2)
  803380:	10bfffcc 	andi	r2,r2,65535
  803384:	1007883a 	mov	r3,r2
  803388:	00802074 	movhi	r2,129
  80338c:	109c8204 	addi	r2,r2,29192
  803390:	188b883a 	add	r5,r3,r2
  803394:	0009883a 	mov	r4,zero
  803398:	01801004 	movi	r6,64
  80339c:	0801eb00 	call	801eb0 <Hal4D13_ReadEndpoint>
  8033a0:	e0bffe05 	stb	r2,-8(fp)
                EP0_PACKET_SIZE);

            ControlData.wCount += i;
  8033a4:	00802074 	movhi	r2,129
  8033a8:	109c7d04 	addi	r2,r2,29172
  8033ac:	10c0030b 	ldhu	r3,12(r2)
  8033b0:	e0bffe03 	ldbu	r2,-8(fp)
  8033b4:	1885883a 	add	r2,r3,r2
  8033b8:	1007883a 	mov	r3,r2
  8033bc:	00802074 	movhi	r2,129
  8033c0:	109c7d04 	addi	r2,r2,29172
  8033c4:	10c0030d 	sth	r3,12(r2)
            if( i != EP0_PACKET_SIZE || ControlData.wCount >= ControlData.wLength)
  8033c8:	e0bffe03 	ldbu	r2,-8(fp)
  8033cc:	10801018 	cmpnei	r2,r2,64
  8033d0:	1000091e 	bne	r2,zero,8033f8 <Isr_Ep00RxDone+0x184>
  8033d4:	00802074 	movhi	r2,129
  8033d8:	109c7d04 	addi	r2,r2,29172
  8033dc:	10c0030b 	ldhu	r3,12(r2)
  8033e0:	00802074 	movhi	r2,129
  8033e4:	109c7d04 	addi	r2,r2,29172
  8033e8:	1080028b 	ldhu	r2,10(r2)
  8033ec:	18ffffcc 	andi	r3,r3,65535
  8033f0:	10bfffcc 	andi	r2,r2,65535
  8033f4:	18801b36 	bltu	r3,r2,803464 <Isr_Ep00RxDone+0x1f0>
            {
                bD13flags.bits.DCP_state = USBFSM4DCP_REQUESTPROC;
  8033f8:	01002074 	movhi	r4,129
  8033fc:	211c5b04 	addi	r4,r4,29036
  803400:	20c00017 	ldw	r3,0(r4)
  803404:	00bc3fc4 	movi	r2,-3841
  803408:	1884703a 	and	r2,r3,r2
  80340c:	1080c014 	ori	r2,r2,768
  803410:	20800015 	stw	r2,0(r4)

            }
            break;
  803414:	00001306 	br	803464 <Isr_Ep00RxDone+0x1f0>
        case USBFSM4DCP_HANDSHAKE:
        	//printf("HANDSHAKE\n");
            bD13flags.bits.DCP_state = USBFSM4DCP_IDLE;
  803418:	01002074 	movhi	r4,129
  80341c:	211c5b04 	addi	r4,r4,29036
  803420:	20c00017 	ldw	r3,0(r4)
  803424:	00bc3fc4 	movi	r2,-3841
  803428:	1884703a 	and	r2,r3,r2
  80342c:	20800015 	stw	r2,0(r4)
            break;
  803430:	00000c06 	br	803464 <Isr_Ep00RxDone+0x1f0>
        case USBFSM4DCP_REQUESTPROC:break;

        case USBFSM4DCP_DATAIN:     break;

        default:
            printf("Fatal Error: Isr_Ep0RxDone ReadLastTranactionStatus=%x\n",ep_last);
  803434:	e17ffe43 	ldbu	r5,-7(fp)
  803438:	01002074 	movhi	r4,129
  80343c:	210ab404 	addi	r4,r4,10960
  803440:	08063e00 	call	8063e0 <printf>
            bD13flags.bits.DCP_state = USBFSM4DCP_STALL;
  803444:	01002074 	movhi	r4,129
  803448:	211c5b04 	addi	r4,r4,29036
  80344c:	20c00017 	ldw	r3,0(r4)
  803450:	00bc3fc4 	movi	r2,-3841
  803454:	1884703a 	and	r2,r3,r2
  803458:	1081c014 	ori	r2,r2,1792
  80345c:	20800015 	stw	r2,0(r4)
            Hal4D13_StallEP0InControlWrite();
  803460:	0802b400 	call	802b40 <Hal4D13_StallEP0InControlWrite>
            break;
        }
    }
    return ;
}
  803464:	e037883a 	mov	sp,fp
  803468:	dfc00117 	ldw	ra,4(sp)
  80346c:	df000017 	ldw	fp,0(sp)
  803470:	dec00204 	addi	sp,sp,8
  803474:	f800283a 	ret

00803478 <Isr_Ep00TxDone>:

void Isr_Ep00TxDone(void)
{
  803478:	defffc04 	addi	sp,sp,-16
  80347c:	dfc00315 	stw	ra,12(sp)
  803480:	df000215 	stw	fp,8(sp)
  803484:	df000204 	addi	fp,sp,8
	/* Control IN interrupt */
    short i = ControlData.wLength - ControlData.wCount;
  803488:	00802074 	movhi	r2,129
  80348c:	109c7d04 	addi	r2,r2,29172
  803490:	10c0028b 	ldhu	r3,10(r2)
  803494:	00802074 	movhi	r2,129
  803498:	109c7d04 	addi	r2,r2,29172
  80349c:	1080030b 	ldhu	r2,12(r2)
  8034a0:	1885c83a 	sub	r2,r3,r2
  8034a4:	e0bffe8d 	sth	r2,-6(fp)
    UCHAR ep_last;
    Hal4D13_ReadInterruptRegister();
  8034a8:	08024880 	call	802488 <Hal4D13_ReadInterruptRegister>
    ep_last = Hal4D13_GetEndpointStatusWInteruptClear(EPINDEX4EP0_CONTROL_IN); /* Clear interrupt flag */
  8034ac:	01000044 	movi	r4,1
  8034b0:	08024f80 	call	8024f8 <Hal4D13_GetEndpointStatusWInteruptClear>
  8034b4:	e0bffe05 	stb	r2,-8(fp)

    switch (bD13flags.bits.DCP_state)
  8034b8:	00802074 	movhi	r2,129
  8034bc:	109c5b04 	addi	r2,r2,29036
  8034c0:	10800017 	ldw	r2,0(r2)
  8034c4:	1004d23a 	srli	r2,r2,8
  8034c8:	108003cc 	andi	r2,r2,15
  8034cc:	10803fcc 	andi	r2,r2,255
  8034d0:	e0bfff15 	stw	r2,-4(fp)
  8034d4:	e0ffff17 	ldw	r3,-4(fp)
  8034d8:	18800228 	cmpgeui	r2,r3,8
  8034dc:	1000561e 	bne	r2,zero,803638 <Isr_Ep00TxDone+0x1c0>
  8034e0:	e13fff17 	ldw	r4,-4(fp)
  8034e4:	e13fff17 	ldw	r4,-4(fp)
  8034e8:	2105883a 	add	r2,r4,r4
  8034ec:	1087883a 	add	r3,r2,r2
  8034f0:	00802034 	movhi	r2,128
  8034f4:	108d4104 	addi	r2,r2,13572
  8034f8:	1885883a 	add	r2,r3,r2
  8034fc:	10800017 	ldw	r2,0(r2)
  803500:	1000683a 	jmp	r2
  803504:	0080367c 	xorhi	r2,zero,217
  803508:	00803524 	muli	r2,zero,212
  80350c:	0080367c 	xorhi	r2,zero,217
  803510:	0080367c 	xorhi	r2,zero,217
  803514:	0080367c 	xorhi	r2,zero,217
  803518:	0080367c 	xorhi	r2,zero,217
  80351c:	00803638 	rdprs	r2,zero,216
  803520:	0080367c 	xorhi	r2,zero,217
    {
    	case USBFSM4DCP_HANDSHAKE:
    		break;
    	case USBFSM4DCP_DATAIN:
    		if( i >= EP0_PACKET_SIZE)
  803524:	e0bffe8f 	ldh	r2,-6(fp)
  803528:	10801010 	cmplti	r2,r2,64
  80352c:	1000141e 	bne	r2,zero,803580 <Isr_Ep00TxDone+0x108>
			{
				Hal4D13_WriteEndpoint(EPINDEX4EP0_CONTROL_IN,ControlData.Addr.pData + ControlData.wCount, EP0_PACKET_SIZE);
  803530:	00802074 	movhi	r2,129
  803534:	109c7d04 	addi	r2,r2,29172
  803538:	10c00417 	ldw	r3,16(r2)
  80353c:	00802074 	movhi	r2,129
  803540:	109c7d04 	addi	r2,r2,29172
  803544:	1080030b 	ldhu	r2,12(r2)
  803548:	10bfffcc 	andi	r2,r2,65535
  80354c:	188b883a 	add	r5,r3,r2
  803550:	01000044 	movi	r4,1
  803554:	01801004 	movi	r6,64
  803558:	08021a40 	call	8021a4 <Hal4D13_WriteEndpoint>
				ControlData.wCount += EP0_PACKET_SIZE;
  80355c:	00802074 	movhi	r2,129
  803560:	109c7d04 	addi	r2,r2,29172
  803564:	1080030b 	ldhu	r2,12(r2)
  803568:	10801004 	addi	r2,r2,64
  80356c:	1007883a 	mov	r3,r2
  803570:	00802074 	movhi	r2,129
  803574:	109c7d04 	addi	r2,r2,29172
  803578:	10c0030d 	sth	r3,12(r2)
  80357c:	00003f06 	br	80367c <Isr_Ep00TxDone+0x204>
				// State remains at USBFSM4DCP_DATAIN
			}
			else if( i != 0)
  803580:	e0bffe8f 	ldh	r2,-6(fp)
  803584:	1005003a 	cmpeq	r2,r2,zero
  803588:	10001d1e 	bne	r2,zero,803600 <Isr_Ep00TxDone+0x188>
			{
				Hal4D13_WriteEndpoint(1, ControlData.Addr.pData + ControlData.wCount, i);
  80358c:	00802074 	movhi	r2,129
  803590:	109c7d04 	addi	r2,r2,29172
  803594:	10c00417 	ldw	r3,16(r2)
  803598:	00802074 	movhi	r2,129
  80359c:	109c7d04 	addi	r2,r2,29172
  8035a0:	1080030b 	ldhu	r2,12(r2)
  8035a4:	10bfffcc 	andi	r2,r2,65535
  8035a8:	188b883a 	add	r5,r3,r2
  8035ac:	e0bffe8b 	ldhu	r2,-6(fp)
  8035b0:	11bfffcc 	andi	r6,r2,65535
  8035b4:	01000044 	movi	r4,1
  8035b8:	08021a40 	call	8021a4 <Hal4D13_WriteEndpoint>
				ControlData.wCount += i;
  8035bc:	00802074 	movhi	r2,129
  8035c0:	109c7d04 	addi	r2,r2,29172
  8035c4:	10c0030b 	ldhu	r3,12(r2)
  8035c8:	e0bffe8b 	ldhu	r2,-6(fp)
  8035cc:	1885883a 	add	r2,r3,r2
  8035d0:	1007883a 	mov	r3,r2
  8035d4:	00802074 	movhi	r2,129
  8035d8:	109c7d04 	addi	r2,r2,29172
  8035dc:	10c0030d 	sth	r3,12(r2)
				bD13flags.bits.DCP_state = USBFSM4DCP_HANDSHAKE;
  8035e0:	01002074 	movhi	r4,129
  8035e4:	211c5b04 	addi	r4,r4,29036
  8035e8:	20c00017 	ldw	r3,0(r4)
  8035ec:	00bc3fc4 	movi	r2,-3841
  8035f0:	1884703a 	and	r2,r3,r2
  8035f4:	10810014 	ori	r2,r2,1024
  8035f8:	20800015 	stw	r2,0(r4)
  8035fc:	00001f06 	br	80367c <Isr_Ep00TxDone+0x204>
			}
			else if (i == 0)
  803600:	e0bffe8f 	ldh	r2,-6(fp)
  803604:	1004c03a 	cmpne	r2,r2,zero
  803608:	10001c1e 	bne	r2,zero,80367c <Isr_Ep00TxDone+0x204>
			{
				bD13flags.bits.DCP_state = USBFSM4DCP_HANDSHAKE;
  80360c:	01002074 	movhi	r4,129
  803610:	211c5b04 	addi	r4,r4,29036
  803614:	20c00017 	ldw	r3,0(r4)
  803618:	00bc3fc4 	movi	r2,-3841
  80361c:	1884703a 	and	r2,r3,r2
  803620:	10810014 	ori	r2,r2,1024
  803624:	20800015 	stw	r2,0(r4)
				Hal4D13_SingleTransmitEP0(0, 0);
  803628:	0009883a 	mov	r4,zero
  80362c:	000b883a 	mov	r5,zero
  803630:	08029900 	call	802990 <Hal4D13_SingleTransmitEP0>
			}
			break;
  803634:	00001106 	br	80367c <Isr_Ep00TxDone+0x204>
		case USBFSM4DCP_IDLE:     	 break;
		case USBFSM4DCP_SETUPPROC:   break;
		case USBFSM4DCP_STALL:       break;
		case USBFSM4DCP_DATAOUT:     break;
		default:
			printf("Fatal Error: Isr_Ep0TxDone Unexpected FSMState=%x\n",bD13flags.bits.DCP_state);
  803638:	00802074 	movhi	r2,129
  80363c:	109c5b04 	addi	r2,r2,29036
  803640:	10800017 	ldw	r2,0(r2)
  803644:	1004d23a 	srli	r2,r2,8
  803648:	108003cc 	andi	r2,r2,15
  80364c:	11403fcc 	andi	r5,r2,255
  803650:	01002074 	movhi	r4,129
  803654:	210ac204 	addi	r4,r4,11016
  803658:	08063e00 	call	8063e0 <printf>
			bD13flags.bits.DCP_state = USBFSM4DCP_STALL;
  80365c:	01002074 	movhi	r4,129
  803660:	211c5b04 	addi	r4,r4,29036
  803664:	20c00017 	ldw	r3,0(r4)
  803668:	00bc3fc4 	movi	r2,-3841
  80366c:	1884703a 	and	r2,r3,r2
  803670:	1081c014 	ori	r2,r2,1792
  803674:	20800015 	stw	r2,0(r4)
			Hal4D13_StallEP0InControlRead();
  803678:	0802b7c0 	call	802b7c <Hal4D13_StallEP0InControlRead>
			break;
		}
}
  80367c:	e037883a 	mov	sp,fp
  803680:	dfc00117 	ldw	ra,4(sp)
  803684:	df000017 	ldw	fp,0(sp)
  803688:	dec00204 	addi	sp,sp,8
  80368c:	f800283a 	ret

00803690 <Isr_Ep01Done>:

void Isr_Ep01Done(void) {
  803690:	defffd04 	addi	sp,sp,-12
  803694:	dfc00215 	stw	ra,8(sp)
  803698:	df000115 	stw	fp,4(sp)
  80369c:	df000104 	addi	fp,sp,4
	/* This gets called when the interrupt is determined to have came from
	 * endpoint 1. When this interrupt it fired it means the host has received
	 * a packet from this endpoint.
	 */
	printf("Packet Received Dood.\n");
  8036a0:	01002074 	movhi	r4,129
  8036a4:	210acf04 	addi	r4,r4,11068
  8036a8:	080651c0 	call	80651c <puts>

	//I'm currenly using this to set the ready to send packet to high, but probably I will just check to see if the buffers are full in each iteration.
	bD13flags.bits.DCP_state = USBFSM4DCP_INTR1DONE;
  8036ac:	01002074 	movhi	r4,129
  8036b0:	211c5b04 	addi	r4,r4,29036
  8036b4:	20c00017 	ldw	r3,0(r4)
  8036b8:	00bc3fc4 	movi	r2,-3841
  8036bc:	1884703a 	and	r2,r3,r2
  8036c0:	1082c014 	ori	r2,r2,2816
  8036c4:	20800015 	stw	r2,0(r4)

	UCHAR err = Hal4D13_GetErrorCode(EPINDEX4EP01);
  8036c8:	01000084 	movi	r4,2
  8036cc:	08028640 	call	802864 <Hal4D13_GetErrorCode>
  8036d0:	e0bfff45 	stb	r2,-3(fp)
	UCHAR stat = Hal4D13_GetEndpointStatusWInteruptClear(EPINDEX4EP01); //Interrupt Clear
  8036d4:	01000084 	movi	r4,2
  8036d8:	08024f80 	call	8024f8 <Hal4D13_GetEndpointStatusWInteruptClear>
  8036dc:	e0bfff05 	stb	r2,-4(fp)

	// print endpoint status and error registers
	//printf("Status = %x : Err = %x\n", stat, err);
}
  8036e0:	e037883a 	mov	sp,fp
  8036e4:	dfc00117 	ldw	ra,4(sp)
  8036e8:	df000017 	ldw	fp,0(sp)
  8036ec:	dec00204 	addi	sp,sp,8
  8036f0:	f800283a 	ret

008036f4 <SetupToken_Handler>:
	"RESERVED",
	"RESERVED",
};

void SetupToken_Handler(void)
{
  8036f4:	defffd04 	addi	sp,sp,-12
  8036f8:	dfc00215 	stw	ra,8(sp)
  8036fc:	df000115 	stw	fp,4(sp)
  803700:	df000104 	addi	fp,sp,4
  unsigned short j;
  RaiseIRQL();
  803704:	08055a80 	call	8055a8 <disable_irq>
  bD13flags.bits.At_IRQL1 = 1;
  803708:	00c02074 	movhi	r3,129
  80370c:	18dc5b04 	addi	r3,r3,29036
  803710:	18800017 	ldw	r2,0(r3)
  803714:	10800114 	ori	r2,r2,4
  803718:	18800015 	stw	r2,0(r3)
  ControlData.Abort = FALSE;
  80371c:	00802074 	movhi	r2,129
  803720:	109c7d04 	addi	r2,r2,29172
  803724:	10000005 	stb	zero,0(r2)

  ControlData.wLength = 0;
  803728:	00802074 	movhi	r2,129
  80372c:	109c7d04 	addi	r2,r2,29172
  803730:	1000028d 	sth	zero,10(r2)
  ControlData.wCount = 0;
  803734:	00802074 	movhi	r2,129
  803738:	109c7d04 	addi	r2,r2,29172
  80373c:	1000030d 	sth	zero,12(r2)

  j = Hal4D13_ReadEndpointWOClearBuffer(EPINDEX4EP0_CONTROL_OUT, &ControlData.DeviceRequest, sizeof(ControlData.DeviceRequest) );
  803740:	01402074 	movhi	r5,129
  803744:	295c7d84 	addi	r5,r5,29174
  803748:	0009883a 	mov	r4,zero
  80374c:	01800204 	movi	r6,8
  803750:	08020a80 	call	8020a8 <Hal4D13_ReadEndpointWOClearBuffer>
  803754:	e0bfff0d 	sth	r2,-4(fp)

  if( j == sizeof(DEVICE_REQUEST) ) {
  803758:	e0bfff0b 	ldhu	r2,-4(fp)
  80375c:	10800218 	cmpnei	r2,r2,8
  803760:	1000711e 	bne	r2,zero,803928 <SetupToken_Handler+0x234>
    printf("ControlData.DeviceRequest.bRequest:0x%X\n",ControlData.DeviceRequest.bRequest);//1BYTE
    printf("ControlData.DeviceRequest.wValue:0x%X\n",ControlData.DeviceRequest.wValue); //2BYTE
    printf("ControlData.DeviceRequest.wIndex:0x%X\n",ControlData.DeviceRequest.wIndex); //2BYTE
    printf("ControlData.DeviceRequest.wLength:0x%X\n",ControlData.DeviceRequest.wLength);//2BYTE
	*/
    bD13flags.bits.At_IRQL1 = 0;
  803764:	01002074 	movhi	r4,129
  803768:	211c5b04 	addi	r4,r4,29036
  80376c:	20c00017 	ldw	r3,0(r4)
  803770:	00bffec4 	movi	r2,-5
  803774:	1884703a 	and	r2,r3,r2
  803778:	20800015 	stw	r2,0(r4)
    LowerIRQL();
  80377c:	08055f80 	call	8055f8 <enable_irq>
    ControlData.wLength = ControlData.DeviceRequest.wLength;
  803780:	00802074 	movhi	r2,129
  803784:	109c7d04 	addi	r2,r2,29172
  803788:	10c0020b 	ldhu	r3,8(r2)
  80378c:	00802074 	movhi	r2,129
  803790:	109c7d04 	addi	r2,r2,29172
  803794:	10c0028d 	sth	r3,10(r2)
    ControlData.wCount = 0;
  803798:	00802074 	movhi	r2,129
  80379c:	109c7d04 	addi	r2,r2,29172
  8037a0:	1000030d 	sth	zero,12(r2)

    if (ControlData.DeviceRequest.bmRequestType & (UCHAR)USB_ENDPOINT_DIRECTION_MASK)
  8037a4:	00802074 	movhi	r2,129
  8037a8:	109c7d04 	addi	r2,r2,29172
  8037ac:	10800083 	ldbu	r2,2(r2)
  8037b0:	10803fcc 	andi	r2,r2,255
  8037b4:	1080201c 	xori	r2,r2,128
  8037b8:	10bfe004 	addi	r2,r2,-128
  8037bc:	1004403a 	cmpge	r2,r2,zero
  8037c0:	1000221e 	bne	r2,zero,80384c <SetupToken_Handler+0x158>
    {
      /* get command */
      RaiseIRQL();
  8037c4:	08055a80 	call	8055a8 <disable_irq>
      ML_AcknowledgeSETUP();
  8037c8:	0803d9c0 	call	803d9c <ML_AcknowledgeSETUP>
      if((ControlData.DeviceRequest.bRequest == 0) & (ControlData.DeviceRequest.bmRequestType == 0xc0))
  8037cc:	00802074 	movhi	r2,129
  8037d0:	109c7d04 	addi	r2,r2,29172
  8037d4:	108000c3 	ldbu	r2,3(r2)
  8037d8:	10803fcc 	andi	r2,r2,255
  8037dc:	1005003a 	cmpeq	r2,r2,zero
  8037e0:	1007883a 	mov	r3,r2
  8037e4:	00802074 	movhi	r2,129
  8037e8:	109c7d04 	addi	r2,r2,29172
  8037ec:	10800083 	ldbu	r2,2(r2)
  8037f0:	10803fcc 	andi	r2,r2,255
  8037f4:	10803020 	cmpeqi	r2,r2,192
  8037f8:	1884703a 	and	r2,r3,r2
  8037fc:	10803fcc 	andi	r2,r2,255
  803800:	1005003a 	cmpeq	r2,r2,zero
  803804:	1000081e 	bne	r2,zero,803828 <SetupToken_Handler+0x134>
    	  bD13flags.bits.DCP_state = USBFSM4DCP_HANDSHAKE;
  803808:	01002074 	movhi	r4,129
  80380c:	211c5b04 	addi	r4,r4,29036
  803810:	20c00017 	ldw	r3,0(r4)
  803814:	00bc3fc4 	movi	r2,-3841
  803818:	1884703a 	and	r2,r3,r2
  80381c:	10810014 	ori	r2,r2,1024
  803820:	20800015 	stw	r2,0(r4)
  803824:	00000706 	br	803844 <SetupToken_Handler+0x150>
      else
    	  bD13flags.bits.DCP_state = USBFSM4DCP_REQUESTPROC;
  803828:	01002074 	movhi	r4,129
  80382c:	211c5b04 	addi	r4,r4,29036
  803830:	20c00017 	ldw	r3,0(r4)
  803834:	00bc3fc4 	movi	r2,-3841
  803838:	1884703a 	and	r2,r3,r2
  80383c:	1080c014 	ori	r2,r2,768
  803840:	20800015 	stw	r2,0(r4)

      LowerIRQL();
  803844:	08055f80 	call	8055f8 <enable_irq>
  803848:	00004206 	br	803954 <SetupToken_Handler+0x260>
    }
    else
    {
      /* set command */

      if (ControlData.DeviceRequest.wLength == 0)
  80384c:	00802074 	movhi	r2,129
  803850:	109c7d04 	addi	r2,r2,29172
  803854:	1080020b 	ldhu	r2,8(r2)
  803858:	10bfffcc 	andi	r2,r2,65535
  80385c:	1004c03a 	cmpne	r2,r2,zero
  803860:	10000b1e 	bne	r2,zero,803890 <SetupToken_Handler+0x19c>
      {
        /* Set command  without Data stage*/
        RaiseIRQL();
  803864:	08055a80 	call	8055a8 <disable_irq>
        ML_AcknowledgeSETUP();
  803868:	0803d9c0 	call	803d9c <ML_AcknowledgeSETUP>
        bD13flags.bits.DCP_state = USBFSM4DCP_REQUESTPROC;
  80386c:	01002074 	movhi	r4,129
  803870:	211c5b04 	addi	r4,r4,29036
  803874:	20c00017 	ldw	r3,0(r4)
  803878:	00bc3fc4 	movi	r2,-3841
  80387c:	1884703a 	and	r2,r3,r2
  803880:	1080c014 	ori	r2,r2,768
  803884:	20800015 	stw	r2,0(r4)
        LowerIRQL();
  803888:	08055f80 	call	8055f8 <enable_irq>
  80388c:	00003106 	br	803954 <SetupToken_Handler+0x260>
      {
        /*
        // Set command  with Data stage
        // get Data Buffer
        */
        if(ControlData.DeviceRequest.wLength <= MAX_CONTROLDATA_SIZE)
  803890:	00802074 	movhi	r2,129
  803894:	109c7d04 	addi	r2,r2,29172
  803898:	1080020b 	ldhu	r2,8(r2)
  80389c:	10bfffcc 	andi	r2,r2,65535
  8038a0:	10800468 	cmpgeui	r2,r2,17
  8038a4:	10000b1e 	bne	r2,zero,8038d4 <SetupToken_Handler+0x1e0>
        {
          /* set command with OUT token */
          RaiseIRQL();
  8038a8:	08055a80 	call	8055a8 <disable_irq>
          bD13flags.bits.DCP_state = USBFSM4DCP_DATAOUT;
  8038ac:	01002074 	movhi	r4,129
  8038b0:	211c5b04 	addi	r4,r4,29036
  8038b4:	20c00017 	ldw	r3,0(r4)
  8038b8:	00bc3fc4 	movi	r2,-3841
  8038bc:	1884703a 	and	r2,r3,r2
  8038c0:	10808014 	ori	r2,r2,512
  8038c4:	20800015 	stw	r2,0(r4)
          LowerIRQL();
  8038c8:	08055f80 	call	8055f8 <enable_irq>
          ML_AcknowledgeSETUP();
  8038cc:	0803d9c0 	call	803d9c <ML_AcknowledgeSETUP>
  8038d0:	00002006 	br	803954 <SetupToken_Handler+0x260>
        }
        else
        {
          RaiseIRQL();
  8038d4:	08055a80 	call	8055a8 <disable_irq>
          ML_AcknowledgeSETUP();
  8038d8:	0803d9c0 	call	803d9c <ML_AcknowledgeSETUP>
          Hal4D13_StallEP0InControlWrite();
  8038dc:	0802b400 	call	802b40 <Hal4D13_StallEP0InControlWrite>
          bD13flags.bits.DCP_state = USBFSM4DCP_STALL;
  8038e0:	01002074 	movhi	r4,129
  8038e4:	211c5b04 	addi	r4,r4,29036
  8038e8:	20c00017 	ldw	r3,0(r4)
  8038ec:	00bc3fc4 	movi	r2,-3841
  8038f0:	1884703a 	and	r2,r3,r2
  8038f4:	1081c014 	ori	r2,r2,1792
  8038f8:	20800015 	stw	r2,0(r4)
          printf("bD13flags.bits.DCP_state = x%hx\n Unknow set up command\n", bD13flags.bits.DCP_state);
  8038fc:	00802074 	movhi	r2,129
  803900:	109c5b04 	addi	r2,r2,29036
  803904:	10800017 	ldw	r2,0(r2)
  803908:	1004d23a 	srli	r2,r2,8
  80390c:	108003cc 	andi	r2,r2,15
  803910:	11403fcc 	andi	r5,r2,255
  803914:	01002074 	movhi	r4,129
  803918:	210b4504 	addi	r4,r4,11540
  80391c:	08063e00 	call	8063e0 <printf>
          LowerIRQL();
  803920:	08055f80 	call	8055f8 <enable_irq>
  803924:	00000b06 	br	803954 <SetupToken_Handler+0x260>
      }
    }
  }
  else
  {
    printf("wrong setup command\n");
  803928:	01002074 	movhi	r4,129
  80392c:	210b5304 	addi	r4,r4,11596
  803930:	080651c0 	call	80651c <puts>
    bD13flags.bits.At_IRQL1 = 0;
  803934:	01002074 	movhi	r4,129
  803938:	211c5b04 	addi	r4,r4,29036
  80393c:	20c00017 	ldw	r3,0(r4)
  803940:	00bffec4 	movi	r2,-5
  803944:	1884703a 	and	r2,r3,r2
  803948:	20800015 	stw	r2,0(r4)
    LowerIRQL();
  80394c:	08055f80 	call	8055f8 <enable_irq>
    Chap9_StallEP0();
  803950:	08012140 	call	801214 <Chap9_StallEP0>
  }
  
 // printf("To_Ha_end\n");
}
  803954:	e037883a 	mov	sp,fp
  803958:	dfc00117 	ldw	ra,4(sp)
  80395c:	df000017 	ldw	fp,0(sp)
  803960:	dec00204 	addi	sp,sp,8
  803964:	f800283a 	ret

00803968 <DeviceRequest_Handler>:


void DeviceRequest_Handler(void)
{
  803968:	defffd04 	addi	sp,sp,-12
  80396c:	dfc00215 	stw	ra,8(sp)
  803970:	df000115 	stw	fp,4(sp)
  803974:	df000104 	addi	fp,sp,4
  UCHAR type, req;

  type = ControlData.DeviceRequest.bmRequestType & USB_REQUEST_TYPE_MASK;
  803978:	00802074 	movhi	r2,129
  80397c:	109c7d04 	addi	r2,r2,29172
  803980:	10800083 	ldbu	r2,2(r2)
  803984:	1080180c 	andi	r2,r2,96
  803988:	e0bfff45 	stb	r2,-3(fp)
  req =  ControlData.DeviceRequest.bRequest & USB_REQUEST_MASK;
  80398c:	00802074 	movhi	r2,129
  803990:	109c7d04 	addi	r2,r2,29172
  803994:	108000c3 	ldbu	r2,3(r2)
  803998:	e0bfff05 	stb	r2,-4(fp)
  //if (bD13flags.bits.verbose==1)
 //   printf("type = 0x%02x, req = 0x%02x\n", type, req);

  //help_devreq(type, req); /* print out device request */

  if ((type == USB_STANDARD_REQUEST) && (req < MAX_STANDARD_REQUEST))
  80399c:	e0bfff43 	ldbu	r2,-3(fp)
  8039a0:	1004c03a 	cmpne	r2,r2,zero
  8039a4:	10000c1e 	bne	r2,zero,8039d8 <DeviceRequest_Handler+0x70>
  8039a8:	e0bfff03 	ldbu	r2,-4(fp)
  8039ac:	10800368 	cmpgeui	r2,r2,13
  8039b0:	1000091e 	bne	r2,zero,8039d8 <DeviceRequest_Handler+0x70>
  {
    (*StandardDeviceRequest[req])();
  8039b4:	e0bfff03 	ldbu	r2,-4(fp)
  8039b8:	00c02074 	movhi	r3,129
  8039bc:	18cdd604 	addi	r3,r3,14168
  8039c0:	1085883a 	add	r2,r2,r2
  8039c4:	1085883a 	add	r2,r2,r2
  8039c8:	10c5883a 	add	r2,r2,r3
  8039cc:	10800017 	ldw	r2,0(r2)
  8039d0:	103ee83a 	callr	r2
  //if (bD13flags.bits.verbose==1)
 //   printf("type = 0x%02x, req = 0x%02x\n", type, req);

  //help_devreq(type, req); /* print out device request */

  if ((type == USB_STANDARD_REQUEST) && (req < MAX_STANDARD_REQUEST))
  8039d4:	00002306 	br	803a64 <DeviceRequest_Handler+0xfc>
  {
    (*StandardDeviceRequest[req])();
  }
  else if ((type == USB_CLASS_REQUEST) && (req < MAX_CLASS_REQUEST)) {
  8039d8:	e0bfff43 	ldbu	r2,-3(fp)
  8039dc:	10800818 	cmpnei	r2,r2,32
  8039e0:	1000101e 	bne	r2,zero,803a24 <DeviceRequest_Handler+0xbc>
  8039e4:	e0bfff03 	ldbu	r2,-4(fp)
  8039e8:	108002e8 	cmpgeui	r2,r2,11
  8039ec:	10000d1e 	bne	r2,zero,803a24 <DeviceRequest_Handler+0xbc>
	  printf("Class Req. %d\n", req);
  8039f0:	e17fff03 	ldbu	r5,-4(fp)
  8039f4:	01002074 	movhi	r4,129
  8039f8:	210b5804 	addi	r4,r4,11616
  8039fc:	08063e00 	call	8063e0 <printf>
  	  (*ClassDeviceRequest[req])();
  803a00:	e0bfff03 	ldbu	r2,-4(fp)
  803a04:	00c02074 	movhi	r3,129
  803a08:	18cdf804 	addi	r3,r3,14304
  803a0c:	1085883a 	add	r2,r2,r2
  803a10:	1085883a 	add	r2,r2,r2
  803a14:	10c5883a 	add	r2,r2,r3
  803a18:	10800017 	ldw	r2,0(r2)
  803a1c:	103ee83a 	callr	r2

  if ((type == USB_STANDARD_REQUEST) && (req < MAX_STANDARD_REQUEST))
  {
    (*StandardDeviceRequest[req])();
  }
  else if ((type == USB_CLASS_REQUEST) && (req < MAX_CLASS_REQUEST)) {
  803a20:	00001006 	br	803a64 <DeviceRequest_Handler+0xfc>
	  printf("Class Req. %d\n", req);
  	  (*ClassDeviceRequest[req])();
  }
  else if ((type == USB_VENDOR_REQUEST) && (req   < MAX_VENDOR_REQUEST))
  803a24:	e0bfff43 	ldbu	r2,-3(fp)
  803a28:	10801018 	cmpnei	r2,r2,64
  803a2c:	10000c1e 	bne	r2,zero,803a60 <DeviceRequest_Handler+0xf8>
  803a30:	e0bfff03 	ldbu	r2,-4(fp)
  803a34:	108003e8 	cmpgeui	r2,r2,15
  803a38:	1000091e 	bne	r2,zero,803a60 <DeviceRequest_Handler+0xf8>
    (*VendorDeviceRequest[req])();
  803a3c:	e0bfff03 	ldbu	r2,-4(fp)
  803a40:	00c02074 	movhi	r3,129
  803a44:	18ce1004 	addi	r3,r3,14400
  803a48:	1085883a 	add	r2,r2,r2
  803a4c:	1085883a 	add	r2,r2,r2
  803a50:	10c5883a 	add	r2,r2,r3
  803a54:	10800017 	ldw	r2,0(r2)
  803a58:	103ee83a 	callr	r2
  }
  else if ((type == USB_CLASS_REQUEST) && (req < MAX_CLASS_REQUEST)) {
	  printf("Class Req. %d\n", req);
  	  (*ClassDeviceRequest[req])();
  }
  else if ((type == USB_VENDOR_REQUEST) && (req   < MAX_VENDOR_REQUEST))
  803a5c:	00000106 	br	803a64 <DeviceRequest_Handler+0xfc>
    (*VendorDeviceRequest[req])();
  else{
    Chap9_StallEP0();
  803a60:	08012140 	call	801214 <Chap9_StallEP0>
  }
}
  803a64:	e037883a 	mov	sp,fp
  803a68:	dfc00117 	ldw	ra,4(sp)
  803a6c:	df000017 	ldw	fp,0(sp)
  803a70:	dec00204 	addi	sp,sp,8
  803a74:	f800283a 	ret

00803a78 <help_devreq>:

void help_devreq(UCHAR type, UCHAR req)
{
  803a78:	defffb04 	addi	sp,sp,-20
  803a7c:	dfc00415 	stw	ra,16(sp)
  803a80:	df000315 	stw	fp,12(sp)
  803a84:	df000304 	addi	fp,sp,12
  803a88:	e13ffe05 	stb	r4,-8(fp)
  803a8c:	e17fff05 	stb	r5,-4(fp)
  UCHAR typ = type;
  803a90:	e0bffe03 	ldbu	r2,-8(fp)
  803a94:	e0bffd05 	stb	r2,-12(fp)
  typ >>= 5;
  803a98:	e0bffd03 	ldbu	r2,-12(fp)
  803a9c:	1004d17a 	srli	r2,r2,5
  803aa0:	e0bffd05 	stb	r2,-12(fp)

  if(type == USB_STANDARD_REQUEST)
  803aa4:	e0bffe03 	ldbu	r2,-8(fp)
  803aa8:	1004c03a 	cmpne	r2,r2,zero
  803aac:	1000121e 	bne	r2,zero,803af8 <help_devreq+0x80>
  {
    printf("Request Type = %s, Request = %s.\n", _NAME_USB_REQUEST_TYPE[typ],
  803ab0:	e0bffd03 	ldbu	r2,-12(fp)
  803ab4:	00c02074 	movhi	r3,129
  803ab8:	18cde704 	addi	r3,r3,14236
  803abc:	1085883a 	add	r2,r2,r2
  803ac0:	1085883a 	add	r2,r2,r2
  803ac4:	10c5883a 	add	r2,r2,r3
  803ac8:	11400017 	ldw	r5,0(r2)
  803acc:	e0bfff03 	ldbu	r2,-4(fp)
  803ad0:	00c02074 	movhi	r3,129
  803ad4:	18cdeb04 	addi	r3,r3,14252
  803ad8:	1085883a 	add	r2,r2,r2
  803adc:	1085883a 	add	r2,r2,r2
  803ae0:	10c5883a 	add	r2,r2,r3
  803ae4:	11800017 	ldw	r6,0(r2)
  803ae8:	01002074 	movhi	r4,129
  803aec:	210b5c04 	addi	r4,r4,11632
  803af0:	08063e00 	call	8063e0 <printf>
  803af4:	00002606 	br	803b90 <help_devreq+0x118>
      _NAME_USB_STANDARD_REQUEST[req]);
  }
  else if(type == USB_CLASS_REQUEST)
  803af8:	e0bffe03 	ldbu	r2,-8(fp)
  803afc:	10800818 	cmpnei	r2,r2,32
  803b00:	1000121e 	bne	r2,zero,803b4c <help_devreq+0xd4>
  {
    printf("Request Type = %s, Request = %s.\n", _NAME_USB_REQUEST_TYPE[typ],
  803b04:	e0bffd03 	ldbu	r2,-12(fp)
  803b08:	00c02074 	movhi	r3,129
  803b0c:	18cde704 	addi	r3,r3,14236
  803b10:	1085883a 	add	r2,r2,r2
  803b14:	1085883a 	add	r2,r2,r2
  803b18:	10c5883a 	add	r2,r2,r3
  803b1c:	11400017 	ldw	r5,0(r2)
  803b20:	e0bfff03 	ldbu	r2,-4(fp)
  803b24:	00c02074 	movhi	r3,129
  803b28:	18ce0404 	addi	r3,r3,14352
  803b2c:	1085883a 	add	r2,r2,r2
  803b30:	1085883a 	add	r2,r2,r2
  803b34:	10c5883a 	add	r2,r2,r3
  803b38:	11800017 	ldw	r6,0(r2)
  803b3c:	01002074 	movhi	r4,129
  803b40:	210b5c04 	addi	r4,r4,11632
  803b44:	08063e00 	call	8063e0 <printf>
  803b48:	00001106 	br	803b90 <help_devreq+0x118>
      _NAME_USB_CLASS_REQUEST[req]);
  }
  else
  {
    if(bD13flags.bits.verbose)
  803b4c:	00802074 	movhi	r2,129
  803b50:	109c5b04 	addi	r2,r2,29036
  803b54:	10800017 	ldw	r2,0(r2)
  803b58:	1080402c 	andhi	r2,r2,256
  803b5c:	1005003a 	cmpeq	r2,r2,zero
  803b60:	10000b1e 	bne	r2,zero,803b90 <help_devreq+0x118>
      printf("Request Type = %s, bRequest = 0x%x.\n", _NAME_USB_REQUEST_TYPE[typ],
  803b64:	e0bffd03 	ldbu	r2,-12(fp)
  803b68:	00c02074 	movhi	r3,129
  803b6c:	18cde704 	addi	r3,r3,14236
  803b70:	1085883a 	add	r2,r2,r2
  803b74:	1085883a 	add	r2,r2,r2
  803b78:	10c5883a 	add	r2,r2,r3
  803b7c:	11400017 	ldw	r5,0(r2)
  803b80:	e1bfff03 	ldbu	r6,-4(fp)
  803b84:	01002074 	movhi	r4,129
  803b88:	210b6504 	addi	r4,r4,11668
  803b8c:	08063e00 	call	8063e0 <printf>
        req);
  }
}
  803b90:	e037883a 	mov	sp,fp
  803b94:	dfc00117 	ldw	ra,4(sp)
  803b98:	df000017 	ldw	fp,0(sp)
  803b9c:	dec00204 	addi	sp,sp,8
  803ba0:	f800283a 	ret

00803ba4 <disconnect_USB_controller>:

void disconnect_USB_controller(void)
{
  803ba4:	defffe04 	addi	sp,sp,-8
  803ba8:	dfc00115 	stw	ra,4(sp)
  803bac:	df000015 	stw	fp,0(sp)
  803bb0:	d839883a 	mov	fp,sp
  printf("disconnect\n");
  803bb4:	01002074 	movhi	r4,129
  803bb8:	210b6f04 	addi	r4,r4,11708
  803bbc:	080651c0 	call	80651c <puts>
  Hal4D13_SetDevConfig( D13REG_DEVCNFG_NOLAZYCLOCK | D13REG_DEVCNFG_PWROFF | D13REG_DEVCNFG_CLOCKRUNNING );
  803bc0:	010c0104 	movi	r4,12292
  803bc4:	0801bfc0 	call	801bfc <Hal4D13_SetDevConfig>
  Hal4D13_SetMode( D13REG_MODE_INT_EN );           
  803bc8:	01000204 	movi	r4,8
  803bcc:	0801c3c0 	call	801c3c <Hal4D13_SetMode>
}
  803bd0:	e037883a 	mov	sp,fp
  803bd4:	dfc00117 	ldw	ra,4(sp)
  803bd8:	df000017 	ldw	fp,0(sp)
  803bdc:	dec00204 	addi	sp,sp,8
  803be0:	f800283a 	ret

00803be4 <connect_USB_controller>:

void connect_USB_controller(void)
{
  803be4:	defffe04 	addi	sp,sp,-8
  803be8:	dfc00115 	stw	ra,4(sp)
  803bec:	df000015 	stw	fp,0(sp)
  803bf0:	d839883a 	mov	fp,sp
  RaiseIRQL(); //Disconnect irq
  803bf4:	08055a80 	call	8055a8 <disable_irq>
  printf("connect_USB\n");
  803bf8:	01002074 	movhi	r4,129
  803bfc:	210b7204 	addi	r4,r4,11720
  803c00:	080651c0 	call	80651c <puts>
  bD13flags.value = 0; /* reset event flags*/
  803c04:	00802074 	movhi	r2,129
  803c08:	109c5b04 	addi	r2,r2,29036
  803c0c:	10000015 	stw	zero,0(r2)
  bD13flags.bits.DCP_state = USBFSM4DCP_IDLE;
  803c10:	01002074 	movhi	r4,129
  803c14:	211c5b04 	addi	r4,r4,29036
  803c18:	20c00017 	ldw	r3,0(r4)
  803c1c:	00bc3fc4 	movi	r2,-3841
  803c20:	1884703a 	and	r2,r3,r2
  803c24:	20800015 	stw	r2,0(r4)
  config_endpoints();
  803c28:	0803c4c0 	call	803c4c <config_endpoints>
  
  LowerIRQL();
  803c2c:	08055f80 	call	8055f8 <enable_irq>

  Hal4D13_SetMode( D13REG_MODE_SOFTCONNECT | D13REG_MODE_DMA16 |
  803c30:	01002244 	movi	r4,137
  803c34:	0801c3c0 	call	801c3c <Hal4D13_SetMode>
                    // D13REG_MODE_OFFGOODLNK  |
                    //| D13REG_MODE_DBG                 
                      D13REG_MODE_INT_EN              
                    //| D13REG_MODE_SUSPND            
  );
}
  803c38:	e037883a 	mov	sp,fp
  803c3c:	dfc00117 	ldw	ra,4(sp)
  803c40:	df000017 	ldw	fp,0(sp)
  803c44:	dec00204 	addi	sp,sp,8
  803c48:	f800283a 	ret

00803c4c <config_endpoints>:


void config_endpoints(void)
{
  803c4c:	defffe04 	addi	sp,sp,-8
  803c50:	dfc00115 	stw	ra,4(sp)
  803c54:	df000015 	stw	fp,0(sp)
  803c58:	d839883a 	mov	fp,sp
    /*Control Endpoint*/
	//printf("CONFIG\n");
    Hal4D13_SetEndpointConfig(D13REG_EPCNFG_FIFO_EN|D13REG_EPCNFG_NONISOSZ_64,EPINDEX4EP0_CONTROL_OUT);
  803c5c:	010020c4 	movi	r4,131
  803c60:	000b883a 	mov	r5,zero
  803c64:	080290c0 	call	80290c <Hal4D13_SetEndpointConfig>
    Hal4D13_SetEndpointConfig(D13REG_EPCNFG_FIFO_EN|D13REG_EPCNFG_IN_EN|D13REG_EPCNFG_NONISOSZ_64,EPINDEX4EP0_CONTROL_IN);
  803c68:	010030c4 	movi	r4,195
  803c6c:	01400044 	movi	r5,1
  803c70:	080290c0 	call	80290c <Hal4D13_SetEndpointConfig>

    // ENDP01 : HID Keyboard IN
    Hal4D13_SetEndpointConfig(D13REG_EPCNFG_FIFO_EN| ENDPOINT_DIR_IN | D13REG_EPCNFG_DBLBUF_EN | ENDPOINT_NOT_ISO | D13REG_EPCNFG_NONISOSZ_8, EPINDEX4EP01);
  803c74:	01003804 	movi	r4,224
  803c78:	01400084 	movi	r5,2
  803c7c:	080290c0 	call	80290c <Hal4D13_SetEndpointConfig>

    /*DISABLED*/
    Hal4D13_SetEndpointConfig(/*D13REG_EPCNFG_FIFO_EN| */ D13REG_EPCNFG_DBLBUF_EN| D13REG_EPCNFG_IN_EN|D13REG_EPCNFG_NONISOSZ_8,EPINDEX4EP02);
  803c80:	01001804 	movi	r4,96
  803c84:	014000c4 	movi	r5,3
  803c88:	080290c0 	call	80290c <Hal4D13_SetEndpointConfig>
    Hal4D13_SetEndpointConfig(/*D13REG_EPCNFG_FIFO_EN|*/D13REG_EPCNFG_DBLBUF_EN|D13REG_EPCNFG_NONISOSZ_64,EPINDEX4EP03);
  803c8c:	010008c4 	movi	r4,35
  803c90:	01400104 	movi	r5,4
  803c94:	080290c0 	call	80290c <Hal4D13_SetEndpointConfig>
    Hal4D13_SetEndpointConfig(/*D13REG_EPCNFG_FIFO_EN|*/D13REG_EPCNFG_DBLBUF_EN|D13REG_EPCNFG_IN_EN|D13REG_EPCNFG_NONISOSZ_64,EPINDEX4EP04);
  803c98:	010018c4 	movi	r4,99
  803c9c:	01400144 	movi	r5,5
  803ca0:	080290c0 	call	80290c <Hal4D13_SetEndpointConfig>
    Hal4D13_SetEndpointConfig(/*D13REG_EPCNFG_FIFO_EN|*/D13REG_EPCNFG_DBLBUF_EN|D13REG_EPCNFG_ISOSZ_512|D13REG_EPCNFG_ISO_EN,EPINDEX4EP05);
  803ca4:	01000ec4 	movi	r4,59
  803ca8:	01400184 	movi	r5,6
  803cac:	080290c0 	call	80290c <Hal4D13_SetEndpointConfig>
    Hal4D13_SetEndpointConfig(/*D13REG_EPCNFG_FIFO_EN|*/D13REG_EPCNFG_DBLBUF_EN|D13REG_EPCNFG_ISOSZ_512|D13REG_EPCNFG_ISO_EN|D13REG_EPCNFG_IN_EN,EPINDEX4EP06);
  803cb0:	01001ec4 	movi	r4,123
  803cb4:	014001c4 	movi	r5,7
  803cb8:	080290c0 	call	80290c <Hal4D13_SetEndpointConfig>
    Hal4D13_SetEndpointConfig(/*D13REG_EPCNFG_FIFO_EN|*/D13REG_EPCNFG_DBLBUF_EN|D13REG_EPCNFG_ISOSZ_16|D13REG_EPCNFG_ISO_EN,EPINDEX4EP07);
  803cbc:	01000c04 	movi	r4,48
  803cc0:	01400204 	movi	r5,8
  803cc4:	080290c0 	call	80290c <Hal4D13_SetEndpointConfig>
    Hal4D13_SetEndpointConfig(/*D13REG_EPCNFG_FIFO_EN|*/D13REG_EPCNFG_IN_EN|D13REG_EPCNFG_DBLBUF_EN|D13REG_EPCNFG_ISOSZ_16|D13REG_EPCNFG_ISO_EN,EPINDEX4EP08);
  803cc8:	01001c04 	movi	r4,112
  803ccc:	01400244 	movi	r5,9
  803cd0:	080290c0 	call	80290c <Hal4D13_SetEndpointConfig>
    Hal4D13_SetEndpointConfig(/*D13REG_EPCNFG_FIFO_EN|*/D13REG_EPCNFG_DBLBUF_EN|D13REG_EPCNFG_ISOSZ_16|D13REG_EPCNFG_ISO_EN,EPINDEX4EP09);
  803cd4:	01000c04 	movi	r4,48
  803cd8:	01400284 	movi	r5,10
  803cdc:	080290c0 	call	80290c <Hal4D13_SetEndpointConfig>
    Hal4D13_SetEndpointConfig(/*D13REG_EPCNFG_FIFO_EN|*/D13REG_EPCNFG_IN_EN|D13REG_EPCNFG_DBLBUF_EN|D13REG_EPCNFG_ISOSZ_16|D13REG_EPCNFG_ISO_EN,EPINDEX4EP0A);
  803ce0:	01001c04 	movi	r4,112
  803ce4:	014002c4 	movi	r5,11
  803ce8:	080290c0 	call	80290c <Hal4D13_SetEndpointConfig>
    Hal4D13_SetEndpointConfig(/*D13REG_EPCNFG_FIFO_EN|*/D13REG_EPCNFG_DBLBUF_EN|D13REG_EPCNFG_ISOSZ_64|D13REG_EPCNFG_ISO_EN,EPINDEX4EP0B);
  803cec:	01000cc4 	movi	r4,51
  803cf0:	01400304 	movi	r5,12
  803cf4:	080290c0 	call	80290c <Hal4D13_SetEndpointConfig>
    Hal4D13_SetEndpointConfig(/*D13REG_EPCNFG_FIFO_EN|*/D13REG_EPCNFG_IN_EN|D13REG_EPCNFG_DBLBUF_EN|D13REG_EPCNFG_ISOSZ_64|D13REG_EPCNFG_ISO_EN,EPINDEX4EP0C);
  803cf8:	01001cc4 	movi	r4,115
  803cfc:	01400344 	movi	r5,13
  803d00:	080290c0 	call	80290c <Hal4D13_SetEndpointConfig>
    Hal4D13_SetEndpointConfig(/*D13REG_EPCNFG_FIFO_EN|*/D13REG_EPCNFG_DBLBUF_EN|D13REG_EPCNFG_ISOSZ_64|D13REG_EPCNFG_ISO_EN,EPINDEX4EP0D);
  803d04:	01000cc4 	movi	r4,51
  803d08:	01400384 	movi	r5,14
  803d0c:	080290c0 	call	80290c <Hal4D13_SetEndpointConfig>
    Hal4D13_SetEndpointConfig(/*D13REG_EPCNFG_FIFO_EN|*/D13REG_EPCNFG_IN_EN|D13REG_EPCNFG_DBLBUF_EN|D13REG_EPCNFG_ISOSZ_64|D13REG_EPCNFG_ISO_EN,EPINDEX4EP0E);
  803d10:	01001cc4 	movi	r4,115
  803d14:	014003c4 	movi	r5,15
  803d18:	080290c0 	call	80290c <Hal4D13_SetEndpointConfig>
    /*DISABLED*/

    
    /*Set interrupt configuration*/
    Hal4D13_SetIntEnable(
  803d1c:	0101c1c4 	movi	r4,1799
  803d20:	08024180 	call	802418 <Hal4D13_SetIntEnable>
                        |D13REG_INTSRC_RESUME
                        |D13REG_INTSRC_BUSRESET
    );
                        
    /*Set Hardware Configuration*/
    Hal4D13_SetDevConfig(D13REG_DEVCNFG_NOLAZYCLOCK
  803d24:	0108d004 	movi	r4,9024
  803d28:	0801bfc0 	call	801bfc <Hal4D13_SetDevConfig>
                        |D13REG_DEVCNFG_DMARQPOL
//            			|D13REG_DEVCNFG_EXPULLUP
);


}
  803d2c:	e037883a 	mov	sp,fp
  803d30:	dfc00117 	ldw	ra,4(sp)
  803d34:	df000017 	ldw	fp,0(sp)
  803d38:	dec00204 	addi	sp,sp,8
  803d3c:	f800283a 	ret

00803d40 <reconnect_USB_controller>:

void reconnect_USB_controller(void) {
  803d40:	defffe04 	addi	sp,sp,-8
  803d44:	dfc00115 	stw	ra,4(sp)
  803d48:	df000015 	stw	fp,0(sp)
  803d4c:	d839883a 	mov	fp,sp
    disconnect_USB_controller();
  803d50:	0803ba40 	call	803ba4 <disconnect_USB_controller>
    connect_USB_controller();
  803d54:	0803be40 	call	803be4 <connect_USB_controller>
}
  803d58:	e037883a 	mov	sp,fp
  803d5c:	dfc00117 	ldw	ra,4(sp)
  803d60:	df000017 	ldw	fp,0(sp)
  803d64:	dec00204 	addi	sp,sp,8
  803d68:	f800283a 	ret

00803d6c <change_suspend_state>:

void change_suspend_state(void) {
  803d6c:	defffe04 	addi	sp,sp,-8
  803d70:	dfc00115 	stw	ra,4(sp)
  803d74:	df000015 	stw	fp,0(sp)
  803d78:	d839883a 	mov	fp,sp
    printf("SUSPEND CHANGE \n");
  803d7c:	01002074 	movhi	r4,129
  803d80:	210b7504 	addi	r4,r4,11732
  803d84:	080651c0 	call	80651c <puts>
 // disconnect_USB();
//  Suspend_Device_Controller();
}
  803d88:	e037883a 	mov	sp,fp
  803d8c:	dfc00117 	ldw	ra,4(sp)
  803d90:	df000017 	ldw	fp,0(sp)
  803d94:	dec00204 	addi	sp,sp,8
  803d98:	f800283a 	ret

00803d9c <ML_AcknowledgeSETUP>:

void ML_AcknowledgeSETUP(void)
{
  803d9c:	defffe04 	addi	sp,sp,-8
  803da0:	dfc00115 	stw	ra,4(sp)
  803da4:	df000015 	stw	fp,0(sp)
  803da8:	d839883a 	mov	fp,sp

    if( Hal4D13_IsSetupPktInvalid() || ControlData.Abort)
  803dac:	0802bb80 	call	802bb8 <Hal4D13_IsSetupPktInvalid>
  803db0:	10803fcc 	andi	r2,r2,255
  803db4:	1004c03a 	cmpne	r2,r2,zero
  803db8:	10000a1e 	bne	r2,zero,803de4 <ML_AcknowledgeSETUP+0x48>
  803dbc:	00802074 	movhi	r2,129
  803dc0:	109c7d04 	addi	r2,r2,29172
  803dc4:	10800003 	ldbu	r2,0(r2)
  803dc8:	10803fcc 	andi	r2,r2,255
  803dcc:	1005003a 	cmpeq	r2,r2,zero
  803dd0:	1000011e 	bne	r2,zero,803dd8 <ML_AcknowledgeSETUP+0x3c>
    {
        return;
  803dd4:	00000306 	br	803de4 <ML_AcknowledgeSETUP+0x48>
    }

    Hal4D13_AcknowledgeSETUP();
  803dd8:	0801e1c0 	call	801e1c <Hal4D13_AcknowledgeSETUP>
    Hal4D13_ClearBuffer(EPINDEX4EP0_CONTROL_OUT);
  803ddc:	0009883a 	mov	r4,zero
  803de0:	0801e480 	call	801e48 <Hal4D13_ClearBuffer>
}
  803de4:	e037883a 	mov	sp,fp
  803de8:	dfc00117 	ldw	ra,4(sp)
  803dec:	df000017 	ldw	fp,0(sp)
  803df0:	dec00204 	addi	sp,sp,8
  803df4:	f800283a 	ret

00803df8 <ML_Reserved>:

void ML_Reserved(void)
{
  803df8:	defffe04 	addi	sp,sp,-8
  803dfc:	dfc00115 	stw	ra,4(sp)
  803e00:	df000015 	stw	fp,0(sp)
  803e04:	d839883a 	mov	fp,sp
    Hal4D13_ClearBuffer(EPINDEX4EP0_CONTROL_OUT);
  803e08:	0009883a 	mov	r4,zero
  803e0c:	0801e480 	call	801e48 <Hal4D13_ClearBuffer>
    printf("Reserved\n");
  803e10:	01002074 	movhi	r4,129
  803e14:	210aee04 	addi	r4,r4,11192
  803e18:	080651c0 	call	80651c <puts>
}
  803e1c:	e037883a 	mov	sp,fp
  803e20:	dfc00117 	ldw	ra,4(sp)
  803e24:	df000017 	ldw	fp,0(sp)
  803e28:	dec00204 	addi	sp,sp,8
  803e2c:	f800283a 	ret

00803e30 <CHECK_CHIP_ID>:

unsigned short CHECK_CHIP_ID(void)
{
  803e30:	defffb04 	addi	sp,sp,-20
  803e34:	dfc00415 	stw	ra,16(sp)
  803e38:	df000315 	stw	fp,12(sp)
  803e3c:	df000304 	addi	fp,sp,12
    unsigned short CHIP_ID;
    unsigned char LOW_ID, HIGH_ID;

    CHIP_ID = Hal4D13_ReadChipID();
  803e40:	08028240 	call	802824 <Hal4D13_ReadChipID>
  803e44:	e0bffd8d 	sth	r2,-10(fp)
    LOW_ID = (unsigned char)CHIP_ID;
  803e48:	e0bffd8b 	ldhu	r2,-10(fp)
  803e4c:	e0bffd45 	stb	r2,-11(fp)
    HIGH_ID = (unsigned char)(CHIP_ID >> 8) ;
  803e50:	e0bffd8b 	ldhu	r2,-10(fp)
  803e54:	1004d23a 	srli	r2,r2,8
  803e58:	e0bffd05 	stb	r2,-12(fp)

    switch(HIGH_ID)
  803e5c:	e0bffd03 	ldbu	r2,-12(fp)
  803e60:	e0bfff15 	stw	r2,-4(fp)
  803e64:	e0ffff17 	ldw	r3,-4(fp)
  803e68:	18800da0 	cmpeqi	r2,r3,54
  803e6c:	10000d1e 	bne	r2,zero,803ea4 <CHECK_CHIP_ID+0x74>
  803e70:	e0ffff17 	ldw	r3,-4(fp)
  803e74:	18801860 	cmpeqi	r2,r3,97
  803e78:	1000011e 	bne	r2,zero,803e80 <CHECK_CHIP_ID+0x50>
  803e7c:	00001206 	br	803ec8 <CHECK_CHIP_ID+0x98>
    {
     case 0x61 : {
                    
                         printf("               CHIP ID =0x%04x\n\n",CHIP_ID);
  803e80:	e17ffd8b 	ldhu	r5,-10(fp)
  803e84:	01002074 	movhi	r4,129
  803e88:	210b7904 	addi	r4,r4,11748
  803e8c:	08063e00 	call	8063e0 <printf>
                        CHIP_ID =0x1161;
  803e90:	00845844 	movi	r2,4449
  803e94:	e0bffd8d 	sth	r2,-10(fp)
                        return CHIP_ID;
  803e98:	e0bffd8b 	ldhu	r2,-10(fp)
  803e9c:	e0bffe15 	stw	r2,-8(fp)
  803ea0:	00000f06 	br	803ee0 <CHECK_CHIP_ID+0xb0>
                         break;
                 }

     case 0x36 : {
                             printf("               CHIP ID =0x%04x\n\n",CHIP_ID);
  803ea4:	e17ffd8b 	ldhu	r5,-10(fp)
  803ea8:	01002074 	movhi	r4,129
  803eac:	210b7904 	addi	r4,r4,11748
  803eb0:	08063e00 	call	8063e0 <printf>
                         CHIP_ID = 0x1362;
  803eb4:	0084d884 	movi	r2,4962
  803eb8:	e0bffd8d 	sth	r2,-10(fp)
                         return CHIP_ID;
  803ebc:	e0fffd8b 	ldhu	r3,-10(fp)
  803ec0:	e0fffe15 	stw	r3,-8(fp)
  803ec4:	00000606 	br	803ee0 <CHECK_CHIP_ID+0xb0>
                         break;
                 }

     default   : {
                 printf("               UNKNOWN CHIP ID =0x%04x\n\n",CHIP_ID);
  803ec8:	e17ffd8b 	ldhu	r5,-10(fp)
  803ecc:	01002074 	movhi	r4,129
  803ed0:	210b8204 	addi	r4,r4,11784
  803ed4:	08063e00 	call	8063e0 <printf>
                 return CHIP_ID;
  803ed8:	e0bffd8b 	ldhu	r2,-10(fp)
  803edc:	e0bffe15 	stw	r2,-8(fp)
  803ee0:	e0bffe17 	ldw	r2,-8(fp)


    }


}
  803ee4:	e037883a 	mov	sp,fp
  803ee8:	dfc00117 	ldw	ra,4(sp)
  803eec:	df000017 	ldw	fp,0(sp)
  803ef0:	dec00204 	addi	sp,sp,8
  803ef4:	f800283a 	ret

00803ef8 <main>:

//Time tracking functions
alt_u32 clk_ticks; //Ticks elapsed since reset (alt_nticks)
alt_u32 clk_rate; //Ticks per second (call alt_ticks_per_second)

int main() {
  803ef8:	defe7404 	addi	sp,sp,-1584
  803efc:	dfc18b15 	stw	ra,1580(sp)
  803f00:	df018a15 	stw	fp,1576(sp)
  803f04:	dc018915 	stw	r16,1572(sp)
  803f08:	df018904 	addi	fp,sp,1572
	/* Serial - gesture recognition variables */
	alt_u32 write_FIFO_space;
	alt_u16 read_FIFO_used;
	alt_u8 data_W8, data_R8;

	int enter = 0;
  803f0c:	e03ebc15 	stw	zero,-1296(fp)
	unsigned p_error;
	alt_up_rs232_dev* rs232_dev;

	// open the RS232 UART port
	rs232_dev = alt_up_rs232_open_dev("/dev/rs232_0");
  803f10:	01002074 	movhi	r4,129
  803f14:	210b8d04 	addi	r4,r4,11828
  803f18:	08116040 	call	811604 <alt_up_rs232_open_dev>
  803f1c:	e0bebb15 	stw	r2,-1300(fp)
	if (rs232_dev == NULL)
  803f20:	e0bebb17 	ldw	r2,-1300(fp)
  803f24:	1004c03a 	cmpne	r2,r2,zero
  803f28:	1000041e 	bne	r2,zero,803f3c <main+0x44>
		alt_printf("Error: could not open RS232 UART\n");
  803f2c:	01002074 	movhi	r4,129
  803f30:	210b9104 	addi	r4,r4,11844
  803f34:	080ff240 	call	80ff24 <alt_printf>
  803f38:	00000306 	br	803f48 <main+0x50>
	else
		alt_printf("Opened RS232 UART device\n");
  803f3c:	01002074 	movhi	r4,129
  803f40:	210b9a04 	addi	r4,r4,11880
  803f44:	080ff240 	call	80ff24 <alt_printf>
	alt_up_rs232_enable_read_interrupt(rs232_dev);
  803f48:	e13ebb17 	ldw	r4,-1300(fp)
  803f4c:	08112ac0 	call	8112ac <alt_up_rs232_enable_read_interrupt>
	//alt_up_rs232_disable_read_interrupt(rs232_dev);

	alt_u8 test;
	alt_u8 error = 0;
  803f50:	e03eba05 	stb	zero,-1304(fp)
	int streamStart = 0;
  803f54:	e03eb915 	stw	zero,-1308(fp)
	int offsetStart = 0;
  803f58:	e03eb815 	stw	zero,-1312(fp)
	char buffer[8];
	int measurements[6];
	int inc_i = 0;
  803f5c:	e03eb715 	stw	zero,-1316(fp)
	int measurementNumber = 0;
  803f60:	e03eb615 	stw	zero,-1320(fp)
	int clearCounter;
	int axAverage = 0;
  803f64:	e03eb415 	stw	zero,-1328(fp)
	int ayAverage = 0;
  803f68:	e03eb315 	stw	zero,-1332(fp)
	int azAverage = 0;
  803f6c:	e03eb215 	stw	zero,-1336(fp)
	int numberOfMeasurements = 0;
  803f70:	e03eb115 	stw	zero,-1340(fp)
	int aoffsetz;
	int goffsetx;
	int goffsety;
	int goffsetz;

	double pOldx = 0;
  803f74:	e03ea915 	stw	zero,-1372(fp)
  803f78:	e03eaa15 	stw	zero,-1368(fp)
	double pNewx = 0;
  803f7c:	e03ea715 	stw	zero,-1380(fp)
  803f80:	e03ea815 	stw	zero,-1376(fp)
	double pOldy = 0;
  803f84:	e03ea515 	stw	zero,-1388(fp)
  803f88:	e03ea615 	stw	zero,-1384(fp)
	double pNewy = 0;
  803f8c:	e03ea315 	stw	zero,-1396(fp)
  803f90:	e03ea415 	stw	zero,-1392(fp)
	double pOldz = 0;
  803f94:	e03ea115 	stw	zero,-1404(fp)
  803f98:	e03ea215 	stw	zero,-1400(fp)
	double pNewz = 0;
  803f9c:	e03e9f15 	stw	zero,-1412(fp)
  803fa0:	e03ea015 	stw	zero,-1408(fp)

	double aOldx = 0;
  803fa4:	e03e9d15 	stw	zero,-1420(fp)
  803fa8:	e03e9e15 	stw	zero,-1416(fp)
	double aNewx = 0;
  803fac:	e03e9b15 	stw	zero,-1428(fp)
  803fb0:	e03e9c15 	stw	zero,-1424(fp)
	double aOldy = 0;
  803fb4:	e03e9915 	stw	zero,-1436(fp)
  803fb8:	e03e9a15 	stw	zero,-1432(fp)
	double aNewy = 0;
  803fbc:	e03e9715 	stw	zero,-1444(fp)
  803fc0:	e03e9815 	stw	zero,-1440(fp)
	double aOldz = 0;
  803fc4:	e03e9515 	stw	zero,-1452(fp)
  803fc8:	e03e9615 	stw	zero,-1448(fp)
	double aNewz = 0;
  803fcc:	e03e9315 	stw	zero,-1460(fp)
  803fd0:	e03e9415 	stw	zero,-1456(fp)

	double vOldx = 0;
  803fd4:	e03e9115 	stw	zero,-1468(fp)
  803fd8:	e03e9215 	stw	zero,-1464(fp)
	double vNewx = 0;
  803fdc:	e03e8f15 	stw	zero,-1476(fp)
  803fe0:	e03e9015 	stw	zero,-1472(fp)
	double vOldy = 0;
  803fe4:	e03e8d15 	stw	zero,-1484(fp)
  803fe8:	e03e8e15 	stw	zero,-1480(fp)
	double vNewy = 0;
  803fec:	e03e8b15 	stw	zero,-1492(fp)
  803ff0:	e03e8c15 	stw	zero,-1488(fp)
	double vOldz = 0;
  803ff4:	e03e8915 	stw	zero,-1500(fp)
  803ff8:	e03e8a15 	stw	zero,-1496(fp)
	double vNewz = 0;
  803ffc:	e03e8715 	stw	zero,-1508(fp)
  804000:	e03e8815 	stw	zero,-1504(fp)

	int VAveragex = 0;
  804004:	e03e8615 	stw	zero,-1512(fp)
	int VAveragey = 0;
  804008:	e03e8515 	stw	zero,-1516(fp)
	int VAveragez = 0;
  80400c:	e03e8415 	stw	zero,-1520(fp)

	int cycleCount = 0;
  804010:	e03e8315 	stw	zero,-1524(fp)
	int count;
	int countStart = 0;
  804014:	e03e8115 	stw	zero,-1532(fp)
	int counti = 0;
  804018:	e03e8015 	stw	zero,-1536(fp)

	int ax[100];
	int ay[100];
	int az[100];

	int initax = 0;
  80401c:	e03e7f15 	stw	zero,-1540(fp)
	int initay = 0;
  804020:	e03e7e15 	stw	zero,-1544(fp)
	int initaz = 0;
  804024:	e03e7d15 	stw	zero,-1548(fp)

	int initStart = 0;
  804028:	e03e7c15 	stw	zero,-1552(fp)
	int initCounter = 0;
  80402c:	e03e7b15 	stw	zero,-1556(fp)

	int gloveOrientation = 0;
  804030:	e03e7a15 	stw	zero,-1560(fp)
	int movementDirection = 0;
  804034:	e03e7915 	stw	zero,-1564(fp)

	/* Configure ISP1362 chip */
	disable_irq();
  804038:	08055a80 	call	8055a8 <disable_irq>
	disconnect_USB_controller();
  80403c:	0803ba40 	call	803ba4 <disconnect_USB_controller>
	usleep(1000000);
  804040:	010003f4 	movhi	r4,15
  804044:	21109004 	addi	r4,r4,16960
  804048:	08104740 	call	810474 <usleep>
	Hal4D13_ResetDevice(); //This is good because its a legit ISP1362 call
  80404c:	0801b900 	call	801b90 <Hal4D13_ResetDevice>
	//changed state settings to reset values -- If possible I would like to remove these.
	hid_settings.state = reset;
  804050:	00802074 	movhi	r2,129
  804054:	109c6304 	addi	r2,r2,29068
  804058:	10000015 	stw	zero,0(r2)
	watchdog_required = FALSE;
  80405c:	e03ec045 	stb	zero,-1279(fp)
	bUSBCheck_Device_State.State_bits.DEVICE_DEFAULT_STATE = 1;
  804060:	d0a79503 	ldbu	r2,-25004(gp)
  804064:	10800054 	ori	r2,r2,1
  804068:	d0a79505 	stb	r2,-25004(gp)
	bUSBCheck_Device_State.State_bits.DEVICE_ADDRESS_STATE = 0;
  80406c:	d0e79503 	ldbu	r3,-25004(gp)
  804070:	00bfff44 	movi	r2,-3
  804074:	1884703a 	and	r2,r3,r2
  804078:	d0a79505 	stb	r2,-25004(gp)
	bUSBCheck_Device_State.State_bits.DEVICE_CONFIGURATION_STATE = 0;
  80407c:	d0e79503 	ldbu	r3,-25004(gp)
  804080:	00bffec4 	movi	r2,-5
  804084:	1884703a 	and	r2,r3,r2
  804088:	d0a79505 	stb	r2,-25004(gp)
	bUSBCheck_Device_State.State_bits.RESET_BITS = 0;
  80408c:	00802074 	movhi	r2,129
  804090:	109c6484 	addi	r2,r2,29074
  804094:	10000005 	stb	zero,0(r2)
	usleep(1000000);
  804098:	010003f4 	movhi	r4,15
  80409c:	21109004 	addi	r4,r4,16960
  8040a0:	08104740 	call	810474 <usleep>
	reconnect_USB_controller();
  8040a4:	0803d400 	call	803d40 <reconnect_USB_controller>
	CHECK_CHIP_ID(); //Checks chip ID and prints it to console. Is not actually required
  8040a8:	0803e300 	call	803e30 <CHECK_CHIP_ID>
	Hal4D13_AcquireD13(USB_0_BASE,(void*)usb_isr); //Registers main ISR. very important.
  8040ac:	01000804 	movi	r4,32
  8040b0:	01402034 	movhi	r5,128
  8040b4:	294bbb04 	addi	r5,r5,12012
  8040b8:	0801b540 	call	801b54 <Hal4D13_AcquireD13>
	enable_irq();
  8040bc:	08055f80 	call	8055f8 <enable_irq>

	/* Initialise HID report structures to zero */
	new_report.modifier = 0x00;
  8040c0:	d0278e05 	stb	zero,-25032(gp)
	new_report.reserved = 0x00;
  8040c4:	00802074 	movhi	r2,129
  8040c8:	109c5d44 	addi	r2,r2,29045
  8040cc:	10000005 	stb	zero,0(r2)
	for(i=0; i<6; i++){
  8040d0:	e03ebf15 	stw	zero,-1284(fp)
  8040d4:	00000806 	br	8040f8 <main+0x200>
		new_report.keycode[i] = 0x00;
  8040d8:	e0febf17 	ldw	r3,-1284(fp)
  8040dc:	00802074 	movhi	r2,129
  8040e0:	109c5d84 	addi	r2,r2,29046
  8040e4:	10c5883a 	add	r2,r2,r3
  8040e8:	10000005 	stb	zero,0(r2)
	enable_irq();

	/* Initialise HID report structures to zero */
	new_report.modifier = 0x00;
	new_report.reserved = 0x00;
	for(i=0; i<6; i++){
  8040ec:	e0bebf17 	ldw	r2,-1284(fp)
  8040f0:	10800044 	addi	r2,r2,1
  8040f4:	e0bebf15 	stw	r2,-1284(fp)
  8040f8:	e0bebf17 	ldw	r2,-1284(fp)
  8040fc:	10800190 	cmplti	r2,r2,6
  804100:	103ff51e 	bne	r2,zero,8040d8 <main+0x1e0>
		new_report.keycode[i] = 0x00;
	}

	old_report.modifier = 0x00;
  804104:	e03ec105 	stb	zero,-1276(fp)
	old_report.reserved = 0x00;
  804108:	e03ec145 	stb	zero,-1275(fp)
	for(i=0; i<6; i++){
  80410c:	e03ebf15 	stw	zero,-1284(fp)
