
IntegratedTest.elf:     file format elf32-littlenios2
IntegratedTest.elf
architecture: nios2, flags 0x00000112:
EXEC_P, HAS_SYMS, D_PAGED
start address 0x00800198

Program Header:
    LOAD off    0x00001020 vaddr 0x01104020 paddr 0x00800000 align 2**12
         filesz 0x00000198 memsz 0x00000198 flags r-x
    LOAD off    0x00002198 vaddr 0x00800198 paddr 0x00800198 align 2**12
         filesz 0x00013420 memsz 0x00013420 flags r-x
    LOAD off    0x000155b8 vaddr 0x008135b8 paddr 0x00815390 align 2**12
         filesz 0x00001dd8 memsz 0x00001dd8 flags rw-
    LOAD off    0x00018168 vaddr 0x00817168 paddr 0x00817168 align 2**12
         filesz 0x00000000 memsz 0x00000340 flags rw-
    LOAD off    0x00018000 vaddr 0x01104000 paddr 0x01104000 align 2**12
         filesz 0x00000020 memsz 0x00000020 flags r-x

Sections:
Idx Name          Size      VMA       LMA       File off  Algn
  0 .entry        00000020  01104000  01104000  00018000  2**5
                  CONTENTS, ALLOC, LOAD, READONLY, CODE
  1 .exceptions   00000198  01104020  00800000  00001020  2**2
                  CONTENTS, ALLOC, LOAD, READONLY, CODE
  2 .text         000125f8  00800198  00800198  00002198  2**2
                  CONTENTS, ALLOC, LOAD, READONLY, CODE
  3 .rodata       00000e28  00812790  00812790  00014790  2**2
                  CONTENTS, ALLOC, LOAD, READONLY, DATA
  4 .rwdata       00001dd8  008135b8  00815390  000155b8  2**2
                  CONTENTS, ALLOC, LOAD, DATA, SMALL_DATA
  5 .bss          00000340  00817168  00817168  00018168  2**2
                  ALLOC, SMALL_DATA
  6 .comment      00000026  00000000  00000000  00018020  2**0
                  CONTENTS, READONLY
  7 .debug_aranges 00000e78  00000000  00000000  00018048  2**3
                  CONTENTS, READONLY, DEBUGGING
  8 .debug_pubnames 000022eb  00000000  00000000  00018ec0  2**0
                  CONTENTS, READONLY, DEBUGGING
  9 .debug_info   0002df69  00000000  00000000  0001b1ab  2**0
                  CONTENTS, READONLY, DEBUGGING
 10 .debug_abbrev 00008ea1  00000000  00000000  00049114  2**0
                  CONTENTS, READONLY, DEBUGGING
 11 .debug_line   00018878  00000000  00000000  00051fb5  2**0
                  CONTENTS, READONLY, DEBUGGING
 12 .debug_frame  00002694  00000000  00000000  0006a830  2**2
                  CONTENTS, READONLY, DEBUGGING
 13 .debug_str    0000262f  00000000  00000000  0006cec4  2**0
                  CONTENTS, READONLY, DEBUGGING
 14 .debug_loc    0000d7a1  00000000  00000000  0006f4f3  2**0
                  CONTENTS, READONLY, DEBUGGING
 15 .debug_alt_sim_info 00000040  00000000  00000000  0007cc94  2**2
                  CONTENTS, READONLY, DEBUGGING
 16 .debug_ranges 000009e0  00000000  00000000  0007ccd8  2**3
                  CONTENTS, READONLY, DEBUGGING
 17 .thread_model 00000003  00000000  00000000  00081d0f  2**0
                  CONTENTS, READONLY
 18 .cpu          0000000c  00000000  00000000  00081d12  2**0
                  CONTENTS, READONLY
 19 .qsys         00000001  00000000  00000000  00081d1e  2**0
                  CONTENTS, READONLY
 20 .simulation_enabled 00000001  00000000  00000000  00081d1f  2**0
                  CONTENTS, READONLY
 21 .sysid_hash   00000004  00000000  00000000  00081d20  2**0
                  CONTENTS, READONLY
 22 .sysid_base   00000004  00000000  00000000  00081d24  2**0
                  CONTENTS, READONLY
 23 .sysid_time   00000004  00000000  00000000  00081d28  2**0
                  CONTENTS, READONLY
 24 .stderr_dev   0000000b  00000000  00000000  00081d2c  2**0
                  CONTENTS, READONLY
 25 .stdin_dev    0000000b  00000000  00000000  00081d37  2**0
                  CONTENTS, READONLY
 26 .stdout_dev   0000000b  00000000  00000000  00081d42  2**0
                  CONTENTS, READONLY
 27 .sopc_system_name 0000000d  00000000  00000000  00081d4d  2**0
                  CONTENTS, READONLY
 28 .quartus_project_dir 00000047  00000000  00000000  00081d5a  2**0
                  CONTENTS, READONLY
 29 .sopcinfo     00065157  00000000  00000000  00081da1  2**0
                  CONTENTS, READONLY
SYMBOL TABLE:
01104000 l    d  .entry	00000000 .entry
01104020 l    d  .exceptions	00000000 .exceptions
00800198 l    d  .text	00000000 .text
00812790 l    d  .rodata	00000000 .rodata
008135b8 l    d  .rwdata	00000000 .rwdata
00817168 l    d  .bss	00000000 .bss
00000000 l    d  .comment	00000000 .comment
00000000 l    d  .debug_aranges	00000000 .debug_aranges
00000000 l    d  .debug_pubnames	00000000 .debug_pubnames
00000000 l    d  .debug_info	00000000 .debug_info
00000000 l    d  .debug_abbrev	00000000 .debug_abbrev
00000000 l    d  .debug_line	00000000 .debug_line
00000000 l    d  .debug_frame	00000000 .debug_frame
00000000 l    d  .debug_str	00000000 .debug_str
00000000 l    d  .debug_loc	00000000 .debug_loc
00000000 l    d  .debug_alt_sim_info	00000000 .debug_alt_sim_info
00000000 l    d  .debug_ranges	00000000 .debug_ranges
008001d0 l       .text	00000000 alt_after_alt_main
00000000 l    df *ABS*	00000000 alt_irq_handler.c
00000000 l    df *ABS*	00000000 CHAP_9.c
00000000 l    df *ABS*	00000000 D13BUS.c
00000000 l    df *ABS*	00000000 HAL4D13.c
00000000 l    df *ABS*	00000000 HID.c
00000000 l    df *ABS*	00000000 ISR.c
00000000 l    df *ABS*	00000000 IntegratedMain.c
00000000 l    df *ABS*	00000000 MAINLOOP.c
00000000 l    df *ABS*	00000000 hello_world.c
00000000 l    df *ABS*	00000000 usb_irq.c
00000000 l    df *ABS*	00000000 dp-bit.c
0080563c l     F .text	00000410 _fpadd_parts
00000000 l    df *ABS*	00000000 dp-bit.c
00000000 l    df *ABS*	00000000 dp-bit.c
00000000 l    df *ABS*	00000000 dp-bit.c
00000000 l    df *ABS*	00000000 lib2-divmod.c
00805d10 l     F .text	0000007c udivmodsi4
00000000 l    df *ABS*	00000000 libgcc2.c
00000000 l    df *ABS*	00000000 dp-bit.c
00000000 l    df *ABS*	00000000 dp-bit.c
00000000 l    df *ABS*	00000000 libgcc2.c
00000000 l    df *ABS*	00000000 atoi.c
00000000 l    df *ABS*	00000000 memcpy.c
00000000 l    df *ABS*	00000000 printf.c
00000000 l    df *ABS*	00000000 putchar.c
00000000 l    df *ABS*	00000000 puts.c
00000000 l    df *ABS*	00000000 strlen.c
00000000 l    df *ABS*	00000000 strtol.c
00000000 l    df *ABS*	00000000 vfprintf.c
00806818 l     F .text	00000058 __sprint_r
0081315e l     O .rodata	00000010 blanks.3452
0081314e l     O .rodata	00000010 zeroes.3453
00000000 l    df *ABS*	00000000 wsetup.c
00000000 l    df *ABS*	00000000 ctype_.c
0081326f l     O .rodata	00000180 _ctype_b
00000000 l    df *ABS*	00000000 dtoa.c
00808894 l     F .text	00000244 quorem
00000000 l    df *ABS*	00000000 fflush.c
00000000 l    df *ABS*	00000000 findfp.c
0080a2bc l     F .text	00000058 std
0080a3c8 l     F .text	00000008 __fp_lock
0080a3d0 l     F .text	00000008 __fp_unlock
00000000 l    df *ABS*	00000000 mallocr.c
00000000 l    df *ABS*	00000000 fvwrite.c
00000000 l    df *ABS*	00000000 fwalk.c
00000000 l    df *ABS*	00000000 impure.c
008138c0 l     O .rwdata	00000400 impure_data
00000000 l    df *ABS*	00000000 locale.c
0081535c l     O .rwdata	00000004 charset
00813414 l     O .rodata	00000030 lconv
00000000 l    df *ABS*	00000000 makebuf.c
00000000 l    df *ABS*	00000000 mallocr.c
00000000 l    df *ABS*	00000000 memchr.c
00000000 l    df *ABS*	00000000 memmove.c
00000000 l    df *ABS*	00000000 memset.c
00000000 l    df *ABS*	00000000 mprec.c
0081355c l     O .rodata	0000000c p05.2458
00000000 l    df *ABS*	00000000 putc.c
00000000 l    df *ABS*	00000000 mallocr.c
00000000 l    df *ABS*	00000000 s_isinfd.c
00000000 l    df *ABS*	00000000 s_isnand.c
00000000 l    df *ABS*	00000000 sbrkr.c
00000000 l    df *ABS*	00000000 stdio.c
00000000 l    df *ABS*	00000000 strcmp.c
00000000 l    df *ABS*	00000000 wbuf.c
00000000 l    df *ABS*	00000000 writer.c
00000000 l    df *ABS*	00000000 mallocr.c
00000000 l    df *ABS*	00000000 closer.c
00000000 l    df *ABS*	00000000 fclose.c
00000000 l    df *ABS*	00000000 fstatr.c
00000000 l    df *ABS*	00000000 int_errno.c
00000000 l    df *ABS*	00000000 isattyr.c
00000000 l    df *ABS*	00000000 lseekr.c
00000000 l    df *ABS*	00000000 readr.c
00000000 l    df *ABS*	00000000 libgcc2.c
00000000 l    df *ABS*	00000000 libgcc2.c
00000000 l    df *ABS*	00000000 dp-bit.c
00000000 l    df *ABS*	00000000 dp-bit.c
00000000 l    df *ABS*	00000000 dp-bit.c
00000000 l    df *ABS*	00000000 dp-bit.c
00000000 l    df *ABS*	00000000 dp-bit.c
00000000 l    df *ABS*	00000000 dp-bit.c
00000000 l    df *ABS*	00000000 dp-bit.c
00000000 l    df *ABS*	00000000 dp-bit.c
00000000 l    df *ABS*	00000000 lib2-mul.c
00000000 l    df *ABS*	00000000 libgcc2.c
00000000 l    df *ABS*	00000000 dp-bit.c
00000000 l    df *ABS*	00000000 alt_close.c
0080f790 l     F .text	00000060 alt_get_errno
00000000 l    df *ABS*	00000000 alt_dev.c
0080f7f0 l     F .text	0000002c alt_dev_null_write
00000000 l    df *ABS*	00000000 alt_errno.c
00000000 l    df *ABS*	00000000 alt_fstat.c
0080f8f4 l     F .text	00000060 alt_get_errno
00000000 l    df *ABS*	00000000 alt_irq_register.c
00000000 l    df *ABS*	00000000 alt_irq_vars.c
00000000 l    df *ABS*	00000000 alt_isatty.c
0080fbd8 l     F .text	00000060 alt_get_errno
00000000 l    df *ABS*	00000000 alt_load.c
0080fcb8 l     F .text	0000006c alt_load_section
00000000 l    df *ABS*	00000000 alt_lseek.c
0080fe18 l     F .text	00000060 alt_get_errno
00000000 l    df *ABS*	00000000 alt_main.c
00000000 l    df *ABS*	00000000 alt_malloc_lock.c
00000000 l    df *ABS*	00000000 alt_printf.c
00000000 l    df *ABS*	00000000 alt_putchar.c
00000000 l    df *ABS*	00000000 alt_read.c
008102e0 l     F .text	00000060 alt_get_errno
00000000 l    df *ABS*	00000000 alt_release_fd.c
00000000 l    df *ABS*	00000000 alt_sbrk.c
00815384 l     O .rwdata	00000004 heap_end
00000000 l    df *ABS*	00000000 alt_usleep.c
00000000 l    df *ABS*	00000000 alt_write.c
008105c8 l     F .text	00000060 alt_get_errno
00000000 l    df *ABS*	00000000 alt_sys_init.c
0081427c l     O .rwdata	00001060 jtag_uart_0
008152dc l     O .rwdata	0000002c rs232_0
00815308 l     O .rwdata	00000034 usb_0
008106d0 l     F .text	00000038 alt_dev_reg
00000000 l    df *ABS*	00000000 altera_avalon_jtag_uart_fd.c
00000000 l    df *ABS*	00000000 altera_avalon_jtag_uart_init.c
00810908 l     F .text	0000022c altera_avalon_jtag_uart_irq
00810b34 l     F .text	000000b0 altera_avalon_jtag_uart_timeout
00000000 l    df *ABS*	00000000 altera_avalon_jtag_uart_ioctl.c
00000000 l    df *ABS*	00000000 altera_avalon_jtag_uart_read.c
00000000 l    df *ABS*	00000000 altera_avalon_jtag_uart_write.c
00000000 l    df *ABS*	00000000 altera_avalon_timer_sc.c
008111b0 l     F .text	00000074 alt_avalon_timer_sc_irq
00000000 l    df *ABS*	00000000 altera_up_avalon_rs232.c
00000000 l    df *ABS*	00000000 alt_alarm_start.c
00000000 l    df *ABS*	00000000 alt_busy_sleep.c
00000000 l    df *ABS*	00000000 alt_dcache_flush_all.c
00000000 l    df *ABS*	00000000 alt_dev_llist_insert.c
008119c4 l     F .text	00000060 alt_get_errno
00000000 l    df *ABS*	00000000 alt_do_ctors.c
00000000 l    df *ABS*	00000000 alt_do_dtors.c
00000000 l    df *ABS*	00000000 alt_find_dev.c
00000000 l    df *ABS*	00000000 alt_icache_flush_all.c
00000000 l    df *ABS*	00000000 alt_io_redirect.c
00811b9c l     F .text	000000d8 alt_open_fd
00000000 l    df *ABS*	00000000 alt_open.c
00811cec l     F .text	000000f8 alt_file_locked
00811f70 l     F .text	00000060 alt_get_errno
00000000 l    df *ABS*	00000000 alt_tick.c
00000000 l    df *ABS*	00000000 altera_nios2_qsys_irq.c
00000000 l    df *ABS*	00000000 alt_find_file.c
00000000 l    df *ABS*	00000000 alt_get_fd.c
00000000 l    df *ABS*	00000000 atexit.c
00000000 l    df *ABS*	00000000 exit.c
00000000 l    df *ABS*	00000000 memcmp.c
00000000 l    df *ABS*	00000000 __atexit.c
00000000 l    df *ABS*	00000000 __call_atexit.c
00812578 l     F .text	00000004 register_fini
00000000 l    df *ABS*	00000000 alt_exit.c
0081272c l     F .text	00000040 alt_sim_halt
008015d4 g     F .text	00000210 read_write_register
00806458 g     F .text	0000001c putchar
0080c00c g     F .text	00000094 _mprec_log10
00802864 g     F .text	00000054 Hal4D13_GetErrorCode
00801308 g     F .text	00000064 Chap9_StallEP0InControlRead
0080c0f8 g     F .text	00000088 __any_on
0080dbe8 g     F .text	00000070 _isatty_r
00813534 g     O .rodata	00000028 __mprec_tinytens
0080fe78 g     F .text	0000006c alt_main
008029d8 g     F .text	00000168 Hal4D13_RegAccess
008027c8 g     F .text	0000005c Hal4D13_LockDevice
0080647c g     F .text	000000a0 _puts_r
00817218 g     O .bss	00000100 alt_irq
0080dc58 g     F .text	00000078 _lseek_r
00802418 g     F .text	00000070 Hal4D13_SetIntEnable
00802608 g     F .text	00000040 Hal4D13_SetDMAConfig
00815390 g       *ABS*	00000000 __flash_rwdata_start
008135b8 g     O .rwdata	00000012 DeviceDescr
0080f030 g     F .text	00000088 __eqdf2
0080190c g     F .text	00000028 D13Bus_StallEP0
00813880 g     O .rwdata	00000040 _NAME_USB_VENDOR_REQUEST
008174a8 g       *ABS*	00000000 __alt_heap_start
008008c4 g     F .text	0000023c Chap9_SetAddress
008012a4 g     F .text	00000064 Chap9_StallEP0InControlWrite
008063e0 g     F .text	00000044 printf
00803df8 g     F .text	00000038 ML_Reserved
0080d554 g     F .text	00000068 __sseek
0080a324 g     F .text	000000a4 __sinit
0080d754 g     F .text	00000130 __swbuf_r
0080b030 g     F .text	00000084 _setlocale_r
0080a424 g     F .text	0000009c __sfmoreglue
008136c1 g     O .rwdata	0000001a strSerialNum
0080ff04 g     F .text	00000020 __malloc_unlock
008015ac g     F .text	00000028 reserved
008114e0 g     F .text	00000090 alt_up_rs232_read_fd
00804fe0 g     F .text	00000174 largestPalmLeft
0080ba88 g     F .text	000000e0 memmove
008052c8 g     F .text	00000174 largestPalmUp
00803c4c g     F .text	000000f4 config_endpoints
0080a414 g     F .text	00000010 _cleanup
0080c180 g     F .text	000000bc _Balloc
0080f140 g     F .text	00000088 __gtdf2
00000000  w      *UND*	00000000 __errno
00802688 g     F .text	00000040 Hal4D13_SetDMACounter
00802708 g     F .text	00000040 Hal4D13_GetDataFromChipRam
01104000 g     F .entry	0000000c __reset
0081716c g     O .bss	00000004 bD13flags
0080543c g     F .text	0000016c orientation
00800000 g       *ABS*	00000000 __flash_exceptions_start
0080db74 g     F .text	00000074 _fstat_r
008171b0 g     O .bss	00000004 errno
008171bc g     O .bss	00000004 alt_argv
0081d33c g       *ABS*	00000000 _gp
00803e30 g     F .text	000000c8 CHECK_CHIP_ID
00810474 g     F .text	00000030 usleep
00801fac g     F .text	000000fc Hal4D13_ReadBulkEndpoint
008140fc g     O .rwdata	00000180 alt_fd_list
00801584 g     F .text	00000028 D13Bus_ControlEntry
00802d74 g     F .text	00000030 HID_Set_Report
00806474 g     F .text	00000008 _putchar_r
00811aec g     F .text	00000094 alt_find_dev
00806340 g     F .text	000000a0 memcpy
0080a408 g     F .text	0000000c _cleanup_r
00805b40 g     F .text	000000f8 __floatsidf
00802e88 g     F .text	00000030 HID_Set_Protocol
00811c74 g     F .text	00000078 alt_io_redirect
0080f250 g     F .text	00000088 __ltdf2
008055f8 g     F .text	00000044 enable_irq
00812790 g       *ABS*	00000000 __DTOR_END__
0081146c g     F .text	00000074 alt_up_rs232_read_data
0080651c g     F .text	00000014 puts
00805154 g     F .text	00000174 largestPalmRight
0080bf5c g     F .text	000000b0 __ratio
00802974 g     F .text	0000001c Hal4D13_ConfigDevice
00810d4c g     F .text	00000224 altera_avalon_jtag_uart_read
00000000  w      *UND*	00000000 malloc
00806424 g     F .text	00000034 _printf_r
01104000 g       *ABS*	00000000 __alt_mem_onchip_memory2_0
00805e4c g     F .text	00000008 __udivsi3
0080fb14 g     F .text	000000c4 isatty
00802648 g     F .text	00000040 Hal4D13_GetDMAConfig
00813444 g     O .rodata	000000c8 __mprec_tens
0080b00c g     F .text	00000008 __locale_charset
00800464 g     F .text	00000238 Chap9_ClearFeature
00800b00 g     F .text	000002a4 Chap9_GetDescriptor
0081366a g     O .rwdata	0000002d REPORT_DESCRIPTOR
008171a4 g     O .bss	00000004 __malloc_top_pad
0081379c g     O .rwdata	00000010 _NAME_USB_REQUEST_TYPE
00802788 g     F .text	00000040 Hal4D13_ReadCurrentFrameNumber
00817168 g     O .bss	00000001 ALTERNATIVE_SETTING
00815358 g     O .rwdata	00000004 __mb_cur_max
0080b014 g     F .text	0000000c _localeconv_r
0080c8e4 g     F .text	0000003c __i2b
0080a9f0 g     F .text	0000049c __sfvwrite_r
00803d9c g     F .text	0000005c ML_AcknowledgeSETUP
00802958 g     F .text	0000001c Hal4D13_UnconfigDevice
0080136c g     F .text	0000009c Chap9_SingleTransmitEP0
0080d4dc g     F .text	00000070 _sbrk_r
0080dcd0 g     F .text	00000078 _read_r
00802c74 g     F .text	000000a0 HID_Get_Report
00813cc0 g     O .rwdata	0000000c __lc_ctype
00801b90 g     F .text	0000002c Hal4D13_ResetDevice
00815378 g     O .rwdata	00000004 alt_max_fd
008113d4 g     F .text	00000050 alt_up_rs232_check_parity
008061f0 g     F .text	00000138 __unpack_d
0080da50 g     F .text	00000110 _fclose_r
00815340 g     O .rwdata	00000008 _NAME_USB_REQUEST_DIRECTION
0080a288 g     F .text	00000034 fflush
008171a8 g     O .bss	00000004 __malloc_max_sbrked_mem
0080f954 g     F .text	000001c0 alt_irq_register
00801114 g     F .text	00000100 Chap9_SetInterface
00802488 g     F .text	00000070 Hal4D13_ReadInterruptRegister
0081371d g     O .rwdata	00000038 strManufacturer
00805acc g     F .text	00000074 __adddf3
0080be3c g     F .text	00000120 __b2d
00802da4 g     F .text	000000e4 HID_Set_Idle
0080e3b4 g     F .text	00000660 __umoddi3
0080fd24 g     F .text	000000f4 lseek
00817170 g     O .bss	00000004 clk_rate
00815354 g     O .rwdata	00000004 _global_impure_ptr
00801408 g     F .text	0000017c Chap9_BurstTransmitEP0
0080ce78 g     F .text	000005f4 _realloc_r
008174a8 g       *ABS*	00000000 __bss_end
00817174 g     O .bss	00000008 new_report
00812068 g     F .text	0000010c alt_tick
008036f4 g     F .text	00000274 SetupToken_Handler
0080dd48 g     F .text	0000066c __udivdi3
0081350c g     O .rodata	00000028 __mprec_bigtens
0080cb6c g     F .text	00000120 __s2b
0080f2d8 g     F .text	00000194 __floatunsidf
0080bd5c g     F .text	00000060 __mcmp
00813758 g     O .rwdata	00000034 StandardDeviceRequest
0081534c g     O .rwdata	00000004 __ctype_ptr
008136db g     O .rwdata	00000042 strProduct
0080a3f0 g     F .text	00000018 __fp_lock_all
00811fd0 g     F .text	00000098 alt_alarm_stop
008067f4 g     F .text	00000024 strtol
008171b4 g     O .bss	00000004 alt_irq_active
00804ce8 g     F .text	00000100 mapGestureToKeycodes
011040ec g     F .exceptions	000000cc alt_irq_handler
008140d4 g     O .rwdata	00000028 alt_dev_null
00801eb0 g     F .text	000000fc Hal4D13_ReadEndpoint
00803d6c g     F .text	00000030 change_suspend_state
008118f4 g     F .text	0000001c alt_dcache_flush_all
0080bc28 g     F .text	00000070 __hi0bits
00805c38 g     F .text	000000d8 __fixdfsi
008019d0 g     F .text	00000184 D13Bus_BurstTransmitEP0
00815390 g       *ABS*	00000000 __ram_rwdata_end
00815370 g     O .rwdata	00000008 alt_dev_list
008104a4 g     F .text	00000124 write
0080cd90 g     F .text	000000e8 _putc_r
00801d84 g     F .text	00000098 Hal4D13_SoftConnect
008135b8 g       *ABS*	00000000 __ram_rodata_end
0080f81c g     F .text	000000d8 fstat
00811570 g     F .text	00000094 alt_up_rs232_write_fd
0081717c g     O .bss	00000008 ioRequest
0080ca4c g     F .text	00000120 __pow5mult
00817198 g     O .bss	00000004 __nlocale_changed
00805e54 g     F .text	00000008 __umodsi3
00801e48 g     F .text	00000034 Hal4D13_ClearBuffer
008174a8 g       *ABS*	00000000 end
008023bc g     F .text	0000005c Hal4D13_GetIntEnable
00806328 g     F .text	0000000c _atoi_r
00813697 g     O .rwdata	00000018 strInterface
00810850 g     F .text	000000b8 altera_avalon_jtag_uart_init
00801c7c g     F .text	0000004c Hal4D13_GetMode
0081278c g       *ABS*	00000000 __CTOR_LIST__
01000000 g       *ABS*	00000000 __alt_stack_pointer
00804c20 g     F .text	000000a4 reportChanged
00811224 g     F .text	00000088 alt_avalon_timer_sc_init
00805e5c g     F .text	00000080 __clzsi2
0080312c g     F .text	00000030 Isr_SuspendChange
00810f70 g     F .text	00000240 altera_avalon_jtag_uart_write
00804de8 g     F .text	00000084 noMovement
0080a314 g     F .text	00000004 __sfp_lock_acquire
0080b9a4 g     F .text	000000e4 memchr
00806870 g     F .text	00001ec4 ___vfprintf_internal_r
0080a6dc g     F .text	00000314 _free_r
0080ff24 g     F .text	00000258 alt_printf
00803a78 g     F .text	0000012c help_devreq
0081257c g     F .text	000001b0 __call_exitprocs
00802d44 g     F .text	00000030 HID_Get_Protocol
0081719c g     O .bss	00000004 __mlocale_changed
00803ba4 g     F .text	00000040 disconnect_USB_controller
00815364 g     O .rwdata	00000004 __malloc_sbrk_base
00800198 g     F .text	0000003c _start
008171c4 g     O .bss	00000004 _alt_tick_rate
0080c544 g     F .text	0000014c __lshift
008171c8 g     O .bss	00000004 _alt_nticks
008021a4 g     F .text	00000128 Hal4D13_WriteEndpoint
008101bc g     F .text	00000124 read
0081065c g     F .text	00000074 alt_sys_init
00817184 g     O .bss	00000004 clk_ticks
00802990 g     F .text	00000048 Hal4D13_SingleTransmitEP0
00812444 g     F .text	00000134 __register_exitproc
00811394 g     F .text	00000040 alt_up_rs232_get_available_space_in_write_FIFO
0080315c g     F .text	00000030 Isr_SHORT_PACKET
0080c690 g     F .text	00000254 __multiply
008025a0 g     F .text	00000068 Hal4D13_SetEndpointStatus
00804cc4 g     F .text	00000024 readGesture
00810be4 g     F .text	00000074 altera_avalon_jtag_uart_close
0080f46c g     F .text	00000038 __mulsi3
008135b8 g       *ABS*	00000000 __ram_rwdata_start
00813840 g     O .rwdata	00000040 VendorDeviceRequest
00812790 g       *ABS*	00000000 __ram_rodata_start
008171cc g     O .bss	00000028 __malloc_current_mallinfo
0080c23c g     F .text	0000017c __d2b
00815348 g     O .rwdata	00000001 INT_Enabled
00810708 g     F .text	00000058 altera_avalon_jtag_uart_read_fd
008122b4 g     F .text	000000d0 alt_get_fd
00802eec g     F .text	00000154 usb_isr
00811798 g     F .text	0000015c alt_busy_sleep
0080f5c8 g     F .text	000000c8 __fpcmp_parts_d
0080d9e0 g     F .text	00000070 _close_r
00802b7c g     F .text	0000003c Hal4D13_StallEP0InControlRead
008123d0 g     F .text	00000074 memcmp
008107b8 g     F .text	00000048 altera_avalon_jtag_uart_close_fd
008174a8 g       *ABS*	00000000 __alt_stack_base
00810800 g     F .text	00000050 altera_avalon_jtag_uart_ioctl_fd
00808758 g     F .text	0000013c __swsetup_r
0081378c g     O .rwdata	00000010 _NAME_USB_REQUEST_RECIPIENT
00803478 g     F .text	00000218 Isr_Ep00TxDone
0080edd8 g     F .text	00000258 __divdf3
0080a4c0 g     F .text	000000f0 __sfp
00813810 g     O .rwdata	00000030 _NAME_USB_CLASS_REQUEST
0080c0a0 g     F .text	00000058 __copybits
00813ccc g     O .rwdata	00000408 __malloc_av_
0080069c g     F .text	00000228 Chap9_SetFeature
0080a320 g     F .text	00000004 __sinit_lock_release
0080ea14 g     F .text	000003c4 __muldf3
0080d638 g     F .text	00000060 __sread
00811300 g     F .text	00000058 alt_up_rs232_disable_read_interrupt
00812194 g     F .text	00000120 alt_find_file
00811910 g     F .text	000000b4 alt_dev_llist_insert
0080fee4 g     F .text	00000020 __malloc_lock
008103b8 g     F .text	000000bc sbrk
00803274 g     F .text	00000204 Isr_Ep00RxDone
00803040 g     F .text	000000ec Isr_BusReset
0080a08c g     F .text	000001fc _fflush_r
0080d918 g     F .text	000000c8 _calloc_r
00802d14 g     F .text	00000030 HID_Get_Idle
008024f8 g     F .text	00000054 Hal4D13_GetEndpointStatusWInteruptClear
00801214 g     F .text	00000090 Chap9_StallEP0
00817168 g       *ABS*	00000000 __bss_start
0080bb68 g     F .text	00000098 memset
00801c3c g     F .text	00000040 Hal4D13_SetMode
00803ef8 g     F .text	00000d28 main
008171c0 g     O .bss	00000004 alt_envp
008171ac g     O .bss	00000004 __malloc_max_total_mem
00817188 g     O .bss	00000008 hid_settings
00810760 g     F .text	00000058 altera_avalon_jtag_uart_write_fd
0080d884 g     F .text	0000001c __swbuf
0080d54c g     F .text	00000008 __sclose
01000000 g       *ABS*	00000000 __alt_heap_limit
008028b8 g     F .text	00000054 Hal4D13_GetEndpointConfig
0080db60 g     F .text	00000014 fclose
008017e4 g     F .text	000000f0 setup_dma_request
008065a4 g     F .text	00000250 _strtol_r
00817318 g     O .bss	00000190 _atexit0
00808ad8 g     F .text	000015b4 _dtoa_r
0080b264 g     F .text	00000740 _malloc_r
00813634 g     O .rwdata	00000009 InterfaceDescr0
0081537c g     O .rwdata	00000004 alt_errno
00801cc8 g     F .text	0000004c Hal4D13_GetAddress
0080af54 g     F .text	000000b8 _fwalk
00803d40 g     F .text	0000002c reconnect_USB_controller
0080cc8c g     F .text	00000104 putc
00805d8c g     F .text	00000060 __divsi3
00812fd8 g     O .rodata	00000014 __thenan_df
00802b40 g     F .text	0000003c Hal4D13_StallEP0InControlWrite
0080a5b0 g     F .text	0000012c _malloc_trim_r
00812790 g       *ABS*	00000000 __CTOR_END__
0080d698 g     F .text	000000bc strcmp
0080318c g     F .text	000000cc Isr_DmaEot
00812790 g       *ABS*	00000000 __flash_rodata_start
00812790 g       *ABS*	00000000 __DTOR_LIST__
00802c38 g     F .text	0000003c Read_HC_Config_Reg
00801e7c g     F .text	00000034 Hal4D13_ValidBuffer
00802824 g     F .text	00000040 Hal4D13_ReadChipID
00811604 g     F .text	00000040 alt_up_rs232_open_dev
00803968 g     F .text	00000110 DeviceRequest_Handler
008022cc g     F .text	000000f0 Hal4D13_WriteBulkEndpoint
0080f0b8 g     F .text	00000088 __nedf2
01080000 g       *ABS*	00000000 __alt_mem_sram_0
00810628 g     F .text	00000034 alt_irq_init
00810340 g     F .text	00000078 alt_release_fd
00812fec g     O .rodata	00000100 __clz_tab
008171a0 g     O .bss	00000004 _PathLocale
00812384 g     F .text	00000014 atexit
00801bfc g     F .text	00000040 Hal4D13_SetDevConfig
0080d8a0 g     F .text	00000078 _write_r
00801bbc g     F .text	00000040 Hal4D13_GetDevConfig
0080b0b4 g     F .text	0000001c setlocale
00802bb8 g     F .text	00000040 Hal4D13_IsSetupPktInvalid
00803690 g     F .text	00000064 Isr_Ep01Done
008171f4 g     O .bss	00000024 ControlData
00815350 g     O .rwdata	00000004 _impure_ptr
008171b8 g     O .bss	00000004 alt_argc
00811a88 g     F .text	00000064 _do_dtors
0081363d g     O .rwdata	0000002d REPORT_DESCRIPTOR2
00800da4 g     F .text	000000c0 Chap9_GetConfiguration
00800000 g       *ABS*	00000000 __alt_mem_sdram_0
01104020 g       .exceptions	00000000 alt_irq_entry
0080bdbc g     F .text	00000080 __ulp
0080d46c g     F .text	00000040 __isinfd
0080a3d8 g     F .text	00000018 __fp_unlock_all
00815368 g     O .rwdata	00000008 alt_fs_list
008112ac g     F .text	00000054 alt_up_rs232_enable_read_interrupt
008135ca g     O .rwdata	00000022 ConfigDescr_a
008136af g     O .rwdata	00000012 strConfiguration
00811424 g     F .text	00000048 alt_up_rs232_write_data
01104020 g       *ABS*	00000000 __ram_exceptions_start
0080b020 g     F .text	00000010 localeconv
008137ac g     O .rwdata	00000034 _NAME_USB_STANDARD_REQUEST
0080290c g     F .text	0000004c Hal4D13_SetEndpointConfig
00815390 g       *ABS*	00000000 _edata
008174a8 g       *ABS*	00000000 _end
011041b8 g       *ABS*	00000000 __ram_exceptions_end
00810c58 g     F .text	000000f4 altera_avalon_jtag_uart_ioctl
00802bf8 g     F .text	00000040 Write_HC_Config_Reg
00801d14 g     F .text	00000070 Hal4D13_SetAddressEnable
0080d5bc g     F .text	0000007c __swrite
00817190 g     O .bss	00000003 bUSBCheck_Device_State
00815360 g     O .rwdata	00000004 __malloc_trim_threshold
00802748 g     F .text	00000040 Hal4D13_SetDataToChipRam
00812174 g     F .text	00000020 altera_nios2_qsys_irq_init
00801070 g     F .text	000000a4 Chap9_GetInterface
00812398 g     F .text	00000038 exit
0080ae8c g     F .text	000000c8 _fwalk_reent
0080c3b8 g     F .text	0000018c __mdiff
00805dec g     F .text	00000060 __modsi3
01000000 g       *ABS*	00000000 __alt_data_end
01104020 g     F .exceptions	00000000 alt_exception
0080a318 g     F .text	00000004 __sfp_lock_release
00801e1c g     F .text	0000002c Hal4D13_AcknowledgeSETUP
00801934 g     F .text	0000009c D13Bus_SingleTransmitEP0
00806334 g     F .text	0000000c atoi
008026c8 g     F .text	00000040 Hal4D13_GetDMACounter
0081316e g     O .rodata	00000101 _ctype_
0081276c g     F .text	00000020 _exit
0080d4ac g     F .text	00000030 __isnand
00811644 g     F .text	00000154 alt_alarm_start
0080254c g     F .text	00000054 Hal4D13_GetEndpointStatusWOInteruptClear
0080f4a4 g     F .text	00000124 __muldi3
0080b0d0 g     F .text	00000194 __smakebuf_r
00806530 g     F .text	00000074 strlen
00804e6c g     F .text	00000174 largest
00811de4 g     F .text	0000018c open
0080f1c8 g     F .text	00000088 __gedf2
0081017c g     F .text	00000040 alt_putchar
008001d4 g     F .text	00000290 Chap9_GetStatus
00811b80 g     F .text	0000001c alt_icache_flush_all
00815380 g     O .rwdata	00000004 alt_priority_mask
008135ec g     O .rwdata	00000048 ConfigDescr
00808734 g     F .text	00000024 __vfprintf_internal
00805a4c g     F .text	00000080 __subdf3
00803be4 g     F .text	00000068 connect_USB_controller
0080bc98 g     F .text	000000c4 __lo0bits
00815388 g     O .rwdata	00000008 alt_alarm_list
00811a24 g     F .text	00000064 _do_ctors
00817194 g     O .bss	00000004 status
008020a8 g     F .text	000000fc Hal4D13_ReadEndpointWOClearBuffer
00803258 g     F .text	0000001c Isr_SOF
00811358 g     F .text	0000003c alt_up_rs232_get_used_space_in_read_FIFO
0080f690 g     F .text	00000100 close
00801b54 g     F .text	0000003c Hal4D13_AcquireD13
00800e64 g     F .text	0000020c Chap9_SetConfiguration
0080fc38 g     F .text	00000080 alt_load
00805edc g     F .text	00000314 __pack_d
00802eb8 g     F .text	00000034 fn_usb_isr
0081533c g     O .rwdata	00000004 strLanguage
008137e0 g     O .rwdata	00000030 ClassDeviceRequest
008055a8 g     F .text	00000050 disable_irq
00000000  w      *UND*	00000000 free
0080a31c g     F .text	00000004 __sinit_lock_acquire
0080c920 g     F .text	0000012c __multadd
0080bc00 g     F .text	00000028 _Bfree
008018d4 g     F .text	00000038 get_firmware_version



Disassembly of section .entry:

01104000 <__reset>:
 * Jump to the _start entry point in the .text section if reset code
 * is allowed or if optimizing for RTL simulation.
 */
#if defined(ALT_ALLOW_CODE_AT_RESET) || defined(ALT_SIM_OPTIMIZE)
    /* Jump to the _start entry point in the .text section. */
    movhi r1, %hi(_start)
 1104000:	00402034 	movhi	at,128
    ori r1, r1, %lo(_start)
 1104004:	08406614 	ori	at,at,408
    jmp r1
 1104008:	0800683a 	jmp	at
	...

Disassembly of section .exceptions:

01104020 <alt_exception>:
         * Process an exception.  For all exceptions we must preserve all
         * caller saved registers on the stack (See the Nios2 ABI
         * documentation for details).
         */

        addi  sp, sp, -76
 1104020:	deffed04 	addi	sp,sp,-76

#endif

#endif

        stw   ra,  0(sp)
 1104024:	dfc00015 	stw	ra,0(sp)
        /*
         * Leave a gap in the stack frame at 4(sp) for the muldiv handler to
         * store zero into.
         */

        stw   r1,   8(sp)
 1104028:	d8400215 	stw	at,8(sp)
        stw   r2,  12(sp)
 110402c:	d8800315 	stw	r2,12(sp)
        stw   r3,  16(sp)
 1104030:	d8c00415 	stw	r3,16(sp)
        stw   r4,  20(sp)
 1104034:	d9000515 	stw	r4,20(sp)
        stw   r5,  24(sp)
 1104038:	d9400615 	stw	r5,24(sp)
        stw   r6,  28(sp)
 110403c:	d9800715 	stw	r6,28(sp)
        stw   r7,  32(sp)
 1104040:	d9c00815 	stw	r7,32(sp)

        rdctl r5, estatus
 1104044:	000b307a 	rdctl	r5,estatus

        stw   r8,  36(sp)
 1104048:	da000915 	stw	r8,36(sp)
        stw   r9,  40(sp)
 110404c:	da400a15 	stw	r9,40(sp)
        stw   r10, 44(sp)
 1104050:	da800b15 	stw	r10,44(sp)
        stw   r11, 48(sp)
 1104054:	dac00c15 	stw	r11,48(sp)
        stw   r12, 52(sp)
 1104058:	db000d15 	stw	r12,52(sp)
        stw   r13, 56(sp)
 110405c:	db400e15 	stw	r13,56(sp)
        stw   r14, 60(sp)
 1104060:	db800f15 	stw	r14,60(sp)
        stw   r15, 64(sp)
 1104064:	dbc01015 	stw	r15,64(sp)
        /*
         * ea-4 contains the address of the instruction being executed
         * when the exception occured. For interrupt exceptions, we will
         * will be re-issue the isntruction. Store it in 72(sp)
         */
        stw   r5,  68(sp)  /* estatus */
 1104068:	d9401115 	stw	r5,68(sp)
        addi  r15, ea, -4  /* instruction that caused exception */
 110406c:	ebffff04 	addi	r15,ea,-4
        stw   r15,  72(sp)
 1104070:	dbc01215 	stw	r15,72(sp)
#else
        /*
         * Test to see if the exception was a software exception or caused 
         * by an external interrupt, and vector accordingly.
         */
        rdctl r4, ipending
 1104074:	0009313a 	rdctl	r4,ipending
        andi  r2, r5, 1
 1104078:	2880004c 	andi	r2,r5,1
        beq   r2, zero, .Lnot_irq
 110407c:	10000326 	beq	r2,zero,110408c <alt_exception+0x6c>
        beq   r4, zero, .Lnot_irq
 1104080:	20000226 	beq	r4,zero,110408c <alt_exception+0x6c>
        /*
         * Now that all necessary registers have been preserved, call 
         * alt_irq_handler() to process the interrupts.
         */

        call alt_irq_handler
 1104084:	11040ec0 	call	11040ec <alt_irq_handler>

        .section .exceptions.irqreturn, "xa"

        br    .Lexception_exit
 1104088:	00000306 	br	1104098 <alt_exception+0x78>
         * upon completion, so we write ea (address of instruction *after*
         * the one where the exception occured) into 72(sp). The actual
         * instruction that caused the exception is written in r2, which these
         * handlers will utilize.
         */
        stw   ea,  72(sp)  /* Don't re-issue */
 110408c:	df401215 	stw	ea,72(sp)
        ldw   r2, -4(ea)   /* Instruction that caused exception */
 1104090:	e8bfff17 	ldw	r2,-4(ea)
#ifdef NIOS2_HAS_DEBUG_STUB
       /*
        *  Either tell the user now (if there is a debugger attached) or go into
        *  the debug monitor which will loop until a debugger is attached.
        */
        break
 1104094:	003da03a 	break	0
        /* 
         * Restore the saved registers, so that all general purpose registers 
         * have been restored to their state at the time the interrupt occured.
         */

        ldw   r5,  68(sp)
 1104098:	d9401117 	ldw	r5,68(sp)
        ldw   ea,  72(sp)  /* This becomes the PC once eret is executed */
 110409c:	df401217 	ldw	ea,72(sp)
        ldw   ra,   0(sp)
 11040a0:	dfc00017 	ldw	ra,0(sp)

        wrctl estatus, r5
 11040a4:	2801707a 	wrctl	estatus,r5

        ldw   r1,   8(sp)
 11040a8:	d8400217 	ldw	at,8(sp)
        ldw   r2,  12(sp)
 11040ac:	d8800317 	ldw	r2,12(sp)
        ldw   r3,  16(sp)
 11040b0:	d8c00417 	ldw	r3,16(sp)
        ldw   r4,  20(sp)
 11040b4:	d9000517 	ldw	r4,20(sp)
        ldw   r5,  24(sp)
 11040b8:	d9400617 	ldw	r5,24(sp)
        ldw   r6,  28(sp)
 11040bc:	d9800717 	ldw	r6,28(sp)
        ldw   r7,  32(sp)
 11040c0:	d9c00817 	ldw	r7,32(sp)
#ifdef ALT_STACK_CHECK
        ldw   et, %gprel(alt_exception_old_stack_limit)(gp)
#endif
#endif

        ldw   r8,  36(sp)
 11040c4:	da000917 	ldw	r8,36(sp)
        ldw   r9,  40(sp)
 11040c8:	da400a17 	ldw	r9,40(sp)
        ldw   r10, 44(sp)
 11040cc:	da800b17 	ldw	r10,44(sp)
        ldw   r11, 48(sp)
 11040d0:	dac00c17 	ldw	r11,48(sp)
        ldw   r12, 52(sp)
 11040d4:	db000d17 	ldw	r12,52(sp)
        ldw   r13, 56(sp)
 11040d8:	db400e17 	ldw	r13,56(sp)
        ldw   r14, 60(sp)
 11040dc:	db800f17 	ldw	r14,60(sp)
        ldw   r15, 64(sp)
 11040e0:	dbc01017 	ldw	r15,64(sp)
#endif

        ldw   sp,  76(sp)

#else
        addi  sp, sp, 76
 11040e4:	dec01304 	addi	sp,sp,76

        /*
         * Return to the interrupted instruction.
         */

        eret
 11040e8:	ef80083a 	eret

011040ec <alt_irq_handler>:
 * instruction is present if the macro ALT_CI_INTERRUPT_VECTOR defined.
 */

void alt_irq_handler (void) __attribute__ ((section (".exceptions")));
void alt_irq_handler (void)
{
 11040ec:	defff904 	addi	sp,sp,-28
 11040f0:	dfc00615 	stw	ra,24(sp)
 11040f4:	df000515 	stw	fp,20(sp)
 11040f8:	df000504 	addi	fp,sp,20
#ifndef NIOS2_EIC_PRESENT
static ALT_INLINE alt_u32 ALT_ALWAYS_INLINE alt_irq_pending (void)
{
  alt_u32 active;

  NIOS2_READ_IPENDING (active);
 11040fc:	0005313a 	rdctl	r2,ipending
 1104100:	e0bffc15 	stw	r2,-16(fp)

  return active;
 1104104:	e0bffc17 	ldw	r2,-16(fp)
   * Consider the case where the high priority interupt is asserted during
   * the interrupt entry sequence for a lower priority interrupt to see why
   * this is the case.
   */

  active = alt_irq_pending ();
 1104108:	e0bfff15 	stw	r2,-4(fp)

  do
  {
    i = 0;
 110410c:	e03ffd15 	stw	zero,-12(fp)
    mask = 1;
 1104110:	00800044 	movi	r2,1
 1104114:	e0bffe15 	stw	r2,-8(fp)
     * called to clear the interrupt condition.
     */

    do
    {
      if (active & mask)
 1104118:	e0ffff17 	ldw	r3,-4(fp)
 110411c:	e0bffe17 	ldw	r2,-8(fp)
 1104120:	1884703a 	and	r2,r3,r2
 1104124:	1005003a 	cmpeq	r2,r2,zero
 1104128:	1000171e 	bne	r2,zero,1104188 <alt_irq_handler+0x9c>
      { 
#ifdef ALT_ENHANCED_INTERRUPT_API_PRESENT
        alt_irq[i].handler(alt_irq[i].context); 
#else
        alt_irq[i].handler(alt_irq[i].context, i); 
 110412c:	e0bffd17 	ldw	r2,-12(fp)
 1104130:	00c02074 	movhi	r3,129
 1104134:	18dc8604 	addi	r3,r3,29208
 1104138:	100490fa 	slli	r2,r2,3
 110413c:	10c5883a 	add	r2,r2,r3
 1104140:	11800017 	ldw	r6,0(r2)
 1104144:	e0bffd17 	ldw	r2,-12(fp)
 1104148:	00c02074 	movhi	r3,129
 110414c:	18dc8604 	addi	r3,r3,29208
 1104150:	100490fa 	slli	r2,r2,3
 1104154:	10c5883a 	add	r2,r2,r3
 1104158:	10800104 	addi	r2,r2,4
 110415c:	11000017 	ldw	r4,0(r2)
 1104160:	e17ffd17 	ldw	r5,-12(fp)
 1104164:	303ee83a 	callr	r6
#ifndef NIOS2_EIC_PRESENT
static ALT_INLINE alt_u32 ALT_ALWAYS_INLINE alt_irq_pending (void)
{
  alt_u32 active;

  NIOS2_READ_IPENDING (active);
 1104168:	0005313a 	rdctl	r2,ipending
 110416c:	e0bffb15 	stw	r2,-20(fp)

  return active;
 1104170:	e0bffb17 	ldw	r2,-20(fp)
      mask <<= 1;
      i++;

    } while (1);

    active = alt_irq_pending ();
 1104174:	e0bfff15 	stw	r2,-4(fp)
    
  } while (active);
 1104178:	e0bfff17 	ldw	r2,-4(fp)
 110417c:	1004c03a 	cmpne	r2,r2,zero
 1104180:	103fe21e 	bne	r2,zero,110410c <alt_irq_handler+0x20>
 1104184:	00000706 	br	11041a4 <alt_irq_handler+0xb8>
#else
        alt_irq[i].handler(alt_irq[i].context, i); 
#endif
        break;
      }
      mask <<= 1;
 1104188:	e0bffe17 	ldw	r2,-8(fp)
 110418c:	1085883a 	add	r2,r2,r2
 1104190:	e0bffe15 	stw	r2,-8(fp)
      i++;
 1104194:	e0bffd17 	ldw	r2,-12(fp)
 1104198:	10800044 	addi	r2,r2,1
 110419c:	e0bffd15 	stw	r2,-12(fp)

    } while (1);
 11041a0:	003fdd06 	br	1104118 <alt_irq_handler+0x2c>
  /*
   * Notify the operating system that interrupt processing is complete.
   */ 

  ALT_OS_INT_EXIT();
}
 11041a4:	e037883a 	mov	sp,fp
 11041a8:	dfc00117 	ldw	ra,4(sp)
 11041ac:	df000017 	ldw	fp,0(sp)
 11041b0:	dec00204 	addi	sp,sp,8
 11041b4:	f800283a 	ret

Disassembly of section .text:

00800198 <_start>:
#if (NIOS2_NUM_OF_SHADOW_REG_SETS == 0)    
    /*
     * Now that the caches are initialized, set up the stack pointer.
     * The value provided by the linker is assumed to be correctly aligned.
     */
    movhi sp, %hi(__alt_stack_pointer)
  800198:	06c04034 	movhi	sp,256
    ori sp, sp, %lo(__alt_stack_pointer)
  80019c:	dec00014 	ori	sp,sp,0

    /* Set up the global pointer. */
    movhi gp, %hi(_gp)
  8001a0:	06802074 	movhi	gp,129
    ori gp, gp, %lo(_gp)
  8001a4:	d6b4cf14 	ori	gp,gp,54076
 */
#ifndef ALT_SIM_OPTIMIZE
    /* Log that the BSS is about to be cleared. */
    ALT_LOG_PUTS(alt_log_msg_bss)

    movhi r2, %hi(__bss_start)
  8001a8:	00802074 	movhi	r2,129
    ori r2, r2, %lo(__bss_start)
  8001ac:	109c5a14 	ori	r2,r2,29032

    movhi r3, %hi(__bss_end)
  8001b0:	00c02074 	movhi	r3,129
    ori r3, r3, %lo(__bss_end)
  8001b4:	18dd2a14 	ori	r3,r3,29864

    beq r2, r3, 1f
  8001b8:	10c00326 	beq	r2,r3,8001c8 <_start+0x30>

0:
    stw zero, (r2)
  8001bc:	10000015 	stw	zero,0(r2)
    addi r2, r2, 4
  8001c0:	10800104 	addi	r2,r2,4
    bltu r2, r3, 0b
  8001c4:	10fffd36 	bltu	r2,r3,8001bc <_start+0x24>
     * section aren't defined until alt_load() has been called).
     */
    mov   et, zero
#endif

    call alt_load
  8001c8:	080fc380 	call	80fc38 <alt_load>

    /* Log that alt_main is about to be called. */
    ALT_LOG_PUTS(alt_log_msg_alt_main)

    /* Call the C entry point. It should never return. */
    call alt_main
  8001cc:	080fe780 	call	80fe78 <alt_main>

008001d0 <alt_after_alt_main>:

    /* Wait in infinite loop in case alt_main does return. */
alt_after_alt_main:
    br alt_after_alt_main
  8001d0:	003fff06 	br	8001d0 <alt_after_alt_main>

008001d4 <Chap9_GetStatus>:
// *************************************************************************
// USB standard device requests
// *************************************************************************

void Chap9_GetStatus(void)
{
  8001d4:	defffa04 	addi	sp,sp,-24
  8001d8:	dfc00515 	stw	ra,20(sp)
  8001dc:	df000415 	stw	fp,16(sp)
  8001e0:	df000404 	addi	fp,sp,16
    UCHAR   endp, txdat[2];
    UCHAR   c;
    UCHAR   bRecipient = ControlData.DeviceRequest.bmRequestType & USB_RECIPIENT;
  8001e4:	00802074 	movhi	r2,129
  8001e8:	109c7d04 	addi	r2,r2,29172
  8001ec:	10800083 	ldbu	r2,2(r2)
  8001f0:	108007cc 	andi	r2,r2,31
  8001f4:	e0bffc05 	stb	r2,-16(fp)


    if(bUSBCheck_Device_State.State_bits.DEVICE_ADDRESS_STATE)
  8001f8:	00802074 	movhi	r2,129
  8001fc:	109c6404 	addi	r2,r2,29072
  800200:	10800003 	ldbu	r2,0(r2)
  800204:	1080008c 	andi	r2,r2,2
  800208:	10803fcc 	andi	r2,r2,255
  80020c:	1005003a 	cmpeq	r2,r2,zero
  800210:	10003e1e 	bne	r2,zero,80030c <Chap9_GetStatus+0x138>
    {
    switch(bRecipient)
  800214:	e0bffc03 	ldbu	r2,-16(fp)
  800218:	e0bfff15 	stw	r2,-4(fp)
  80021c:	e0ffff17 	ldw	r3,-4(fp)
  800220:	18800060 	cmpeqi	r2,r3,1
  800224:	1000171e 	bne	r2,zero,800284 <Chap9_GetStatus+0xb0>
  800228:	e0ffff17 	ldw	r3,-4(fp)
  80022c:	188000a0 	cmpeqi	r2,r3,2
  800230:	1000161e 	bne	r2,zero,80028c <Chap9_GetStatus+0xb8>
  800234:	e0ffff17 	ldw	r3,-4(fp)
  800238:	1805003a 	cmpeq	r2,r3,zero
  80023c:	1000011e 	bne	r2,zero,800244 <Chap9_GetStatus+0x70>
  800240:	00003006 	br	800304 <Chap9_GetStatus+0x130>
            {
            case USB_RECIPIENT_DEVICE:
                    if(bD13flags.bits.remote_wakeup == 1)
  800244:	00802074 	movhi	r2,129
  800248:	109c5b04 	addi	r2,r2,29036
  80024c:	10800017 	ldw	r2,0(r2)
  800250:	1080040c 	andi	r2,r2,16
  800254:	1005003a 	cmpeq	r2,r2,zero
  800258:	1000031e 	bne	r2,zero,800268 <Chap9_GetStatus+0x94>
                        txdat[0] = DEVSTS_SELFPOWERED|DEVSTS_REMOTEWAKEUP;   /* remote wakeup and Self-powered */
  80025c:	008000c4 	movi	r2,3
  800260:	e0bffcc5 	stb	r2,-13(fp)
  800264:	00000206 	br	800270 <Chap9_GetStatus+0x9c>
                    else
                        txdat[0] = DEVSTS_SELFPOWERED;   /* Self-powered*/
  800268:	00800044 	movi	r2,1
  80026c:	e0bffcc5 	stb	r2,-13(fp)
                    txdat[1]=0;
  800270:	e03ffd05 	stb	zero,-12(fp)

                    Chap9_SingleTransmitEP0(txdat, 2);
  800274:	e13ffcc4 	addi	r4,fp,-13
  800278:	01400084 	movi	r5,2
  80027c:	080136c0 	call	80136c <Chap9_SingleTransmitEP0>
                    break;
  800280:	00007306 	br	800450 <Chap9_GetStatus+0x27c>

            case USB_RECIPIENT_INTERFACE:

                    Chap9_StallEP0InControlRead();
  800284:	08013080 	call	801308 <Chap9_StallEP0InControlRead>
                    break;
  800288:	00007106 	br	800450 <Chap9_GetStatus+0x27c>

            case USB_RECIPIENT_ENDPOINT:

                    if( ControlData.DeviceRequest.wIndex == 0x00 )
  80028c:	00802074 	movhi	r2,129
  800290:	109c7d04 	addi	r2,r2,29172
  800294:	1080018b 	ldhu	r2,6(r2)
  800298:	10bfffcc 	andi	r2,r2,65535
  80029c:	1004c03a 	cmpne	r2,r2,zero
  8002a0:	1000161e 	bne	r2,zero,8002fc <Chap9_GetStatus+0x128>
                    {
                        endp = -1;
  8002a4:	00bfffc4 	movi	r2,-1
  8002a8:	e0bffc85 	stb	r2,-14(fp)
                        c = Hal4D13_GetEndpointStatusWOInteruptClear(endp + 1);
  8002ac:	e0bffc83 	ldbu	r2,-14(fp)
  8002b0:	10800044 	addi	r2,r2,1
  8002b4:	11003fcc 	andi	r4,r2,255
  8002b8:	080254c0 	call	80254c <Hal4D13_GetEndpointStatusWOInteruptClear>
  8002bc:	e0bffc45 	stb	r2,-15(fp)
                        if(c & D13REG_EPSTS_STALL)
  8002c0:	e0bffc43 	ldbu	r2,-15(fp)
  8002c4:	10803fcc 	andi	r2,r2,255
  8002c8:	1080201c 	xori	r2,r2,128
  8002cc:	10bfe004 	addi	r2,r2,-128
  8002d0:	1004403a 	cmpge	r2,r2,zero
  8002d4:	1000031e 	bne	r2,zero,8002e4 <Chap9_GetStatus+0x110>
                            txdat[0] = ENDPSTS_HALT;   /* Halt */
  8002d8:	00800044 	movi	r2,1
  8002dc:	e0bffcc5 	stb	r2,-13(fp)
  8002e0:	00000106 	br	8002e8 <Chap9_GetStatus+0x114>
                        else
                            txdat[0] = 0;
  8002e4:	e03ffcc5 	stb	zero,-13(fp)

                        txdat[1] = 0;
  8002e8:	e03ffd05 	stb	zero,-12(fp)

                        Chap9_SingleTransmitEP0(txdat, 2);
  8002ec:	e13ffcc4 	addi	r4,fp,-13
  8002f0:	01400084 	movi	r5,2
  8002f4:	080136c0 	call	80136c <Chap9_SingleTransmitEP0>
  8002f8:	00005506 	br	800450 <Chap9_GetStatus+0x27c>
                    }
                    else
                        Chap9_StallEP0InControlRead();
  8002fc:	08013080 	call	801308 <Chap9_StallEP0InControlRead>

                    break;
  800300:	00005306 	br	800450 <Chap9_GetStatus+0x27c>

            default:
                    Chap9_StallEP0InControlRead();
  800304:	08013080 	call	801308 <Chap9_StallEP0InControlRead>
  800308:	00005106 	br	800450 <Chap9_GetStatus+0x27c>
    }


    else
    {
        if(ControlData.DeviceRequest.wValue == 0 && ControlData.DeviceRequest.wLength == 2 )
  80030c:	00802074 	movhi	r2,129
  800310:	109c7d04 	addi	r2,r2,29172
  800314:	1080010b 	ldhu	r2,4(r2)
  800318:	10bfffcc 	andi	r2,r2,65535
  80031c:	1004c03a 	cmpne	r2,r2,zero
  800320:	10004b1e 	bne	r2,zero,800450 <Chap9_GetStatus+0x27c>
  800324:	00802074 	movhi	r2,129
  800328:	109c7d04 	addi	r2,r2,29172
  80032c:	1080020b 	ldhu	r2,8(r2)
  800330:	10bfffcc 	andi	r2,r2,65535
  800334:	10800098 	cmpnei	r2,r2,2
  800338:	1000451e 	bne	r2,zero,800450 <Chap9_GetStatus+0x27c>
        {
            switch(bRecipient)
  80033c:	e0bffc03 	ldbu	r2,-16(fp)
  800340:	e0bffe15 	stw	r2,-8(fp)
  800344:	e0fffe17 	ldw	r3,-8(fp)
  800348:	18800060 	cmpeqi	r2,r3,1
  80034c:	1000171e 	bne	r2,zero,8003ac <Chap9_GetStatus+0x1d8>
  800350:	e0fffe17 	ldw	r3,-8(fp)
  800354:	188000a0 	cmpeqi	r2,r3,2
  800358:	10001a1e 	bne	r2,zero,8003c4 <Chap9_GetStatus+0x1f0>
  80035c:	e0fffe17 	ldw	r3,-8(fp)
  800360:	1805003a 	cmpeq	r2,r3,zero
  800364:	1000011e 	bne	r2,zero,80036c <Chap9_GetStatus+0x198>
  800368:	00003806 	br	80044c <Chap9_GetStatus+0x278>
            {
            case USB_RECIPIENT_DEVICE:
                    if(bD13flags.bits.remote_wakeup == 1)
  80036c:	00802074 	movhi	r2,129
  800370:	109c5b04 	addi	r2,r2,29036
  800374:	10800017 	ldw	r2,0(r2)
  800378:	1080040c 	andi	r2,r2,16
  80037c:	1005003a 	cmpeq	r2,r2,zero
  800380:	1000031e 	bne	r2,zero,800390 <Chap9_GetStatus+0x1bc>
                        txdat[0] = DEVSTS_SELFPOWERED|DEVSTS_REMOTEWAKEUP;   /* remote wakeup and Self-powered */
  800384:	008000c4 	movi	r2,3
  800388:	e0bffcc5 	stb	r2,-13(fp)
  80038c:	00000206 	br	800398 <Chap9_GetStatus+0x1c4>
                    else
                        txdat[0] = DEVSTS_SELFPOWERED;   /* Self-powered*/
  800390:	00800044 	movi	r2,1
  800394:	e0bffcc5 	stb	r2,-13(fp)
                    txdat[1]=0;
  800398:	e03ffd05 	stb	zero,-12(fp)

                    Chap9_SingleTransmitEP0(txdat, 2);
  80039c:	e13ffcc4 	addi	r4,fp,-13
  8003a0:	01400084 	movi	r5,2
  8003a4:	080136c0 	call	80136c <Chap9_SingleTransmitEP0>
                    break;
  8003a8:	00002906 	br	800450 <Chap9_GetStatus+0x27c>

            case USB_RECIPIENT_INTERFACE:
                    txdat[0]=0;
  8003ac:	e03ffcc5 	stb	zero,-13(fp)
                    txdat[1]=0;
  8003b0:	e03ffd05 	stb	zero,-12(fp)

                    Chap9_SingleTransmitEP0(txdat, 2);
  8003b4:	e13ffcc4 	addi	r4,fp,-13
  8003b8:	01400084 	movi	r5,2
  8003bc:	080136c0 	call	80136c <Chap9_SingleTransmitEP0>
                    break;
  8003c0:	00002306 	br	800450 <Chap9_GetStatus+0x27c>

            case USB_RECIPIENT_ENDPOINT:

                    if( ControlData.DeviceRequest.wIndex == 0x00 )
  8003c4:	00802074 	movhi	r2,129
  8003c8:	109c7d04 	addi	r2,r2,29172
  8003cc:	1080018b 	ldhu	r2,6(r2)
  8003d0:	10bfffcc 	andi	r2,r2,65535
  8003d4:	1004c03a 	cmpne	r2,r2,zero
  8003d8:	1000031e 	bne	r2,zero,8003e8 <Chap9_GetStatus+0x214>
                        endp = -1;
  8003dc:	00bfffc4 	movi	r2,-1
  8003e0:	e0bffc85 	stb	r2,-14(fp)
  8003e4:	00000506 	br	8003fc <Chap9_GetStatus+0x228>
                    else
                        endp = (UCHAR)(ControlData.DeviceRequest.wIndex & MAX_ENDPOINTS);
  8003e8:	00802074 	movhi	r2,129
  8003ec:	109c7d04 	addi	r2,r2,29172
  8003f0:	1080018b 	ldhu	r2,6(r2)
  8003f4:	108003cc 	andi	r2,r2,15
  8003f8:	e0bffc85 	stb	r2,-14(fp)

                    c = Hal4D13_GetEndpointStatusWOInteruptClear(endp + 1);
  8003fc:	e0bffc83 	ldbu	r2,-14(fp)
  800400:	10800044 	addi	r2,r2,1
  800404:	11003fcc 	andi	r4,r2,255
  800408:	080254c0 	call	80254c <Hal4D13_GetEndpointStatusWOInteruptClear>
  80040c:	e0bffc45 	stb	r2,-15(fp)
                    if(c & D13REG_EPSTS_STALL)
  800410:	e0bffc43 	ldbu	r2,-15(fp)
  800414:	10803fcc 	andi	r2,r2,255
  800418:	1080201c 	xori	r2,r2,128
  80041c:	10bfe004 	addi	r2,r2,-128
  800420:	1004403a 	cmpge	r2,r2,zero
  800424:	1000031e 	bne	r2,zero,800434 <Chap9_GetStatus+0x260>
                        txdat[0] = ENDPSTS_HALT;   /* Halt */
  800428:	00800044 	movi	r2,1
  80042c:	e0bffcc5 	stb	r2,-13(fp)
  800430:	00000106 	br	800438 <Chap9_GetStatus+0x264>
                    else
                        txdat[0] = 0;
  800434:	e03ffcc5 	stb	zero,-13(fp)

                    txdat[1] = 0;
  800438:	e03ffd05 	stb	zero,-12(fp)

                    Chap9_SingleTransmitEP0(txdat, 2);
  80043c:	e13ffcc4 	addi	r4,fp,-13
  800440:	01400084 	movi	r5,2
  800444:	080136c0 	call	80136c <Chap9_SingleTransmitEP0>
                    break;
  800448:	00000106 	br	800450 <Chap9_GetStatus+0x27c>

            default:
                    Chap9_StallEP0InControlRead();
  80044c:	08013080 	call	801308 <Chap9_StallEP0InControlRead>
                    break;
            }
        }
    }

}
  800450:	e037883a 	mov	sp,fp
  800454:	dfc00117 	ldw	ra,4(sp)
  800458:	df000017 	ldw	fp,0(sp)
  80045c:	dec00204 	addi	sp,sp,8
  800460:	f800283a 	ret

00800464 <Chap9_ClearFeature>:

void Chap9_ClearFeature(void)
{
  800464:	defffb04 	addi	sp,sp,-20
  800468:	dfc00415 	stw	ra,16(sp)
  80046c:	df000315 	stw	fp,12(sp)
  800470:	df000304 	addi	fp,sp,12
    UCHAR   endp;
    UCHAR   bRecipient = ControlData.DeviceRequest.bmRequestType & USB_RECIPIENT;
  800474:	00802074 	movhi	r2,129
  800478:	109c7d04 	addi	r2,r2,29172
  80047c:	10800083 	ldbu	r2,2(r2)
  800480:	108007cc 	andi	r2,r2,31
  800484:	e0bffd85 	stb	r2,-10(fp)
    USHORT  wFeature = ControlData.DeviceRequest.wValue;
  800488:	00802074 	movhi	r2,129
  80048c:	109c7d04 	addi	r2,r2,29172
  800490:	1080010b 	ldhu	r2,4(r2)
  800494:	e0bffd0d 	sth	r2,-12(fp)

    if(bUSBCheck_Device_State.State_bits.DEVICE_ADDRESS_STATE)
  800498:	00802074 	movhi	r2,129
  80049c:	109c6404 	addi	r2,r2,29072
  8004a0:	10800003 	ldbu	r2,0(r2)
  8004a4:	1080008c 	andi	r2,r2,2
  8004a8:	10803fcc 	andi	r2,r2,255
  8004ac:	1005003a 	cmpeq	r2,r2,zero
  8004b0:	1000351e 	bne	r2,zero,800588 <Chap9_ClearFeature+0x124>
    {
        if( ControlData.DeviceRequest.wLength == 0 )
  8004b4:	00802074 	movhi	r2,129
  8004b8:	109c7d04 	addi	r2,r2,29172
  8004bc:	1080020b 	ldhu	r2,8(r2)
  8004c0:	10bfffcc 	andi	r2,r2,65535
  8004c4:	1004c03a 	cmpne	r2,r2,zero
  8004c8:	10006f1e 	bne	r2,zero,800688 <Chap9_ClearFeature+0x224>
        {
            switch(bRecipient)
  8004cc:	e0bffd83 	ldbu	r2,-10(fp)
  8004d0:	e0bfff15 	stw	r2,-4(fp)
  8004d4:	e0ffff17 	ldw	r3,-4(fp)
  8004d8:	1805003a 	cmpeq	r2,r3,zero
  8004dc:	1000041e 	bne	r2,zero,8004f0 <Chap9_ClearFeature+0x8c>
  8004e0:	e0ffff17 	ldw	r3,-4(fp)
  8004e4:	188000a0 	cmpeqi	r2,r3,2
  8004e8:	1000101e 	bne	r2,zero,80052c <Chap9_ClearFeature+0xc8>
  8004ec:	00002406 	br	800580 <Chap9_ClearFeature+0x11c>
            {
            case USB_RECIPIENT_DEVICE:
                        if(wFeature == USB_FEATURE_REMOTE_WAKEUP)
  8004f0:	e0bffd0b 	ldhu	r2,-12(fp)
  8004f4:	10800058 	cmpnei	r2,r2,1
  8004f8:	10000a1e 	bne	r2,zero,800524 <Chap9_ClearFeature+0xc0>
                        {
                        bD13flags.bits.remote_wakeup = 0;
  8004fc:	01002074 	movhi	r4,129
  800500:	211c5b04 	addi	r4,r4,29036
  800504:	20c00017 	ldw	r3,0(r4)
  800508:	00bffbc4 	movi	r2,-17
  80050c:	1884703a 	and	r2,r3,r2
  800510:	20800015 	stw	r2,0(r4)
                        Chap9_SingleTransmitEP0(0, 0);
  800514:	0009883a 	mov	r4,zero
  800518:	000b883a 	mov	r5,zero
  80051c:	080136c0 	call	80136c <Chap9_SingleTransmitEP0>
  800520:	00005906 	br	800688 <Chap9_ClearFeature+0x224>
                        }
                        else
                            Chap9_StallEP0InControlWrite();
  800524:	08012a40 	call	8012a4 <Chap9_StallEP0InControlWrite>

                        break;
  800528:	00005706 	br	800688 <Chap9_ClearFeature+0x224>



            case USB_RECIPIENT_ENDPOINT:

                        if(wFeature == USB_FEATURE_ENDPOINT_STALL)
  80052c:	e0bffd0b 	ldhu	r2,-12(fp)
  800530:	1004c03a 	cmpne	r2,r2,zero
  800534:	1000101e 	bne	r2,zero,800578 <Chap9_ClearFeature+0x114>
                        {
                            if( ControlData.DeviceRequest.wIndex == 0x00 )
  800538:	00802074 	movhi	r2,129
  80053c:	109c7d04 	addi	r2,r2,29172
  800540:	1080018b 	ldhu	r2,6(r2)
  800544:	10bfffcc 	andi	r2,r2,65535
  800548:	1004c03a 	cmpne	r2,r2,zero
  80054c:	1000081e 	bne	r2,zero,800570 <Chap9_ClearFeature+0x10c>
                            {
                                endp = 0;
  800550:	e03ffdc5 	stb	zero,-9(fp)
                                Hal4D13_SetEndpointStatus(endp, 0);
  800554:	e13ffdc3 	ldbu	r4,-9(fp)
  800558:	000b883a 	mov	r5,zero
  80055c:	08025a00 	call	8025a0 <Hal4D13_SetEndpointStatus>

                                Chap9_SingleTransmitEP0(0, 0);
  800560:	0009883a 	mov	r4,zero
  800564:	000b883a 	mov	r5,zero
  800568:	080136c0 	call	80136c <Chap9_SingleTransmitEP0>
  80056c:	00004606 	br	800688 <Chap9_ClearFeature+0x224>
                            }
                            else
                            {
                                Chap9_StallEP0InControlWrite();
  800570:	08012a40 	call	8012a4 <Chap9_StallEP0InControlWrite>
                                break;
  800574:	00004406 	br	800688 <Chap9_ClearFeature+0x224>
                            }

                        }

                        else
                            Chap9_StallEP0InControlWrite();
  800578:	08012a40 	call	8012a4 <Chap9_StallEP0InControlWrite>

                        break;
  80057c:	00004206 	br	800688 <Chap9_ClearFeature+0x224>


            default:
                        Chap9_StallEP0InControlWrite();
  800580:	08012a40 	call	8012a4 <Chap9_StallEP0InControlWrite>
  800584:	00004006 	br	800688 <Chap9_ClearFeature+0x224>
    }

    else
    {

        if( ControlData.DeviceRequest.wLength == 0 )
  800588:	00802074 	movhi	r2,129
  80058c:	109c7d04 	addi	r2,r2,29172
  800590:	1080020b 	ldhu	r2,8(r2)
  800594:	10bfffcc 	andi	r2,r2,65535
  800598:	1004c03a 	cmpne	r2,r2,zero
  80059c:	10003a1e 	bne	r2,zero,800688 <Chap9_ClearFeature+0x224>
        {
            switch(bRecipient)
  8005a0:	e0bffd83 	ldbu	r2,-10(fp)
  8005a4:	e0bffe15 	stw	r2,-8(fp)
  8005a8:	e0fffe17 	ldw	r3,-8(fp)
  8005ac:	1805003a 	cmpeq	r2,r3,zero
  8005b0:	1000041e 	bne	r2,zero,8005c4 <Chap9_ClearFeature+0x160>
  8005b4:	e0fffe17 	ldw	r3,-8(fp)
  8005b8:	188000a0 	cmpeqi	r2,r3,2
  8005bc:	1000101e 	bne	r2,zero,800600 <Chap9_ClearFeature+0x19c>
  8005c0:	00003006 	br	800684 <Chap9_ClearFeature+0x220>
            {
            case USB_RECIPIENT_DEVICE:
                if(wFeature == USB_FEATURE_REMOTE_WAKEUP)
  8005c4:	e0bffd0b 	ldhu	r2,-12(fp)
  8005c8:	10800058 	cmpnei	r2,r2,1
  8005cc:	10000a1e 	bne	r2,zero,8005f8 <Chap9_ClearFeature+0x194>
                {
                    bD13flags.bits.remote_wakeup = 0;
  8005d0:	01002074 	movhi	r4,129
  8005d4:	211c5b04 	addi	r4,r4,29036
  8005d8:	20c00017 	ldw	r3,0(r4)
  8005dc:	00bffbc4 	movi	r2,-17
  8005e0:	1884703a 	and	r2,r3,r2
  8005e4:	20800015 	stw	r2,0(r4)
                    Chap9_SingleTransmitEP0(0, 0);
  8005e8:	0009883a 	mov	r4,zero
  8005ec:	000b883a 	mov	r5,zero
  8005f0:	080136c0 	call	80136c <Chap9_SingleTransmitEP0>
  8005f4:	00002406 	br	800688 <Chap9_ClearFeature+0x224>
                }
                else
                {
                    Chap9_StallEP0InControlWrite();
  8005f8:	08012a40 	call	8012a4 <Chap9_StallEP0InControlWrite>
                }

                break;
  8005fc:	00002206 	br	800688 <Chap9_ClearFeature+0x224>

                case USB_RECIPIENT_ENDPOINT:

                if(wFeature == USB_FEATURE_ENDPOINT_STALL)
  800600:	e0bffd0b 	ldhu	r2,-12(fp)
  800604:	1004c03a 	cmpne	r2,r2,zero
  800608:	10001c1e 	bne	r2,zero,80067c <Chap9_ClearFeature+0x218>
                {
                    if( ControlData.DeviceRequest.wIndex == 0x00 )
  80060c:	00802074 	movhi	r2,129
  800610:	109c7d04 	addi	r2,r2,29172
  800614:	1080018b 	ldhu	r2,6(r2)
  800618:	10bfffcc 	andi	r2,r2,65535
  80061c:	1004c03a 	cmpne	r2,r2,zero
  800620:	1000031e 	bne	r2,zero,800630 <Chap9_ClearFeature+0x1cc>
                            endp = -1;
  800624:	00bfffc4 	movi	r2,-1
  800628:	e0bffdc5 	stb	r2,-9(fp)
  80062c:	00000506 	br	800644 <Chap9_ClearFeature+0x1e0>
                    else
                        endp = (UCHAR)(ControlData.DeviceRequest.wIndex & MAX_ENDPOINTS);
  800630:	00802074 	movhi	r2,129
  800634:	109c7d04 	addi	r2,r2,29172
  800638:	1080018b 	ldhu	r2,6(r2)
  80063c:	108003cc 	andi	r2,r2,15
  800640:	e0bffdc5 	stb	r2,-9(fp)

                    Hal4D13_SetEndpointStatus(endp+1, 0);
  800644:	e0bffdc3 	ldbu	r2,-9(fp)
  800648:	10800044 	addi	r2,r2,1
  80064c:	11003fcc 	andi	r4,r2,255
  800650:	000b883a 	mov	r5,zero
  800654:	08025a00 	call	8025a0 <Hal4D13_SetEndpointStatus>
                    Hal4D13_SetEndpointStatus(endp+1, 0);
  800658:	e0bffdc3 	ldbu	r2,-9(fp)
  80065c:	10800044 	addi	r2,r2,1
  800660:	11003fcc 	andi	r4,r2,255
  800664:	000b883a 	mov	r5,zero
  800668:	08025a00 	call	8025a0 <Hal4D13_SetEndpointStatus>

                    Chap9_SingleTransmitEP0(0, 0);
  80066c:	0009883a 	mov	r4,zero
  800670:	000b883a 	mov	r5,zero
  800674:	080136c0 	call	80136c <Chap9_SingleTransmitEP0>
  800678:	00000306 	br	800688 <Chap9_ClearFeature+0x224>
                }
                else
                {
                    Chap9_StallEP0InControlWrite();
  80067c:	08012a40 	call	8012a4 <Chap9_StallEP0InControlWrite>
                }
                break;
  800680:	00000106 	br	800688 <Chap9_ClearFeature+0x224>

            default:
                    Chap9_StallEP0InControlWrite();
  800684:	08012a40 	call	8012a4 <Chap9_StallEP0InControlWrite>
                    break;
            }
      }
    }

}
  800688:	e037883a 	mov	sp,fp
  80068c:	dfc00117 	ldw	ra,4(sp)
  800690:	df000017 	ldw	fp,0(sp)
  800694:	dec00204 	addi	sp,sp,8
  800698:	f800283a 	ret

0080069c <Chap9_SetFeature>:

void Chap9_SetFeature(void)
{
  80069c:	defffb04 	addi	sp,sp,-20
  8006a0:	dfc00415 	stw	ra,16(sp)
  8006a4:	df000315 	stw	fp,12(sp)
  8006a8:	df000304 	addi	fp,sp,12
  UCHAR   endp = 0;
  8006ac:	e03ffdc5 	stb	zero,-9(fp)
    UCHAR   bRecipient = ControlData.DeviceRequest.bmRequestType & USB_RECIPIENT;
  8006b0:	00802074 	movhi	r2,129
  8006b4:	109c7d04 	addi	r2,r2,29172
  8006b8:	10800083 	ldbu	r2,2(r2)
  8006bc:	108007cc 	andi	r2,r2,31
  8006c0:	e0bffd85 	stb	r2,-10(fp)
    USHORT  wFeature = ControlData.DeviceRequest.wValue;
  8006c4:	00802074 	movhi	r2,129
  8006c8:	109c7d04 	addi	r2,r2,29172
  8006cc:	1080010b 	ldhu	r2,4(r2)
  8006d0:	e0bffd0d 	sth	r2,-12(fp)
  

    if(bUSBCheck_Device_State.State_bits.DEVICE_ADDRESS_STATE)
  8006d4:	00802074 	movhi	r2,129
  8006d8:	109c6404 	addi	r2,r2,29072
  8006dc:	10800003 	ldbu	r2,0(r2)
  8006e0:	1080008c 	andi	r2,r2,2
  8006e4:	10803fcc 	andi	r2,r2,255
  8006e8:	1005003a 	cmpeq	r2,r2,zero
  8006ec:	10002f1e 	bne	r2,zero,8007ac <Chap9_SetFeature+0x110>
    {
        switch(bRecipient)
  8006f0:	e0bffd83 	ldbu	r2,-10(fp)
  8006f4:	e0bfff15 	stw	r2,-4(fp)
  8006f8:	e0ffff17 	ldw	r3,-4(fp)
  8006fc:	1805003a 	cmpeq	r2,r3,zero
  800700:	1000041e 	bne	r2,zero,800714 <Chap9_SetFeature+0x78>
  800704:	e0ffff17 	ldw	r3,-4(fp)
  800708:	188000a0 	cmpeqi	r2,r3,2
  80070c:	10000f1e 	bne	r2,zero,80074c <Chap9_SetFeature+0xb0>
  800710:	00002406 	br	8007a4 <Chap9_SetFeature+0x108>
        {
        case USB_RECIPIENT_DEVICE:
            if(wFeature == USB_FEATURE_REMOTE_WAKEUP)
  800714:	e0bffd0b 	ldhu	r2,-12(fp)
  800718:	10800058 	cmpnei	r2,r2,1
  80071c:	1000091e 	bne	r2,zero,800744 <Chap9_SetFeature+0xa8>
            {
                bD13flags.bits.remote_wakeup = 1;
  800720:	00802074 	movhi	r2,129
  800724:	109c5b04 	addi	r2,r2,29036
  800728:	10c00017 	ldw	r3,0(r2)
  80072c:	18c00414 	ori	r3,r3,16
  800730:	10c00015 	stw	r3,0(r2)
                Chap9_SingleTransmitEP0(0, 0);
  800734:	0009883a 	mov	r4,zero
  800738:	000b883a 	mov	r5,zero
  80073c:	080136c0 	call	80136c <Chap9_SingleTransmitEP0>
  800740:	00005b06 	br	8008b0 <Chap9_SetFeature+0x214>
            }
            else
            {
                Chap9_StallEP0InControlWrite();
  800744:	08012a40 	call	8012a4 <Chap9_StallEP0InControlWrite>
            }
            break;
  800748:	00005906 	br	8008b0 <Chap9_SetFeature+0x214>

        case USB_RECIPIENT_ENDPOINT:
            if( wFeature == USB_FEATURE_ENDPOINT_STALL)
  80074c:	e0bffd0b 	ldhu	r2,-12(fp)
  800750:	1004c03a 	cmpne	r2,r2,zero
  800754:	1000111e 	bne	r2,zero,80079c <Chap9_SetFeature+0x100>
            {
                if( ControlData.DeviceRequest.wIndex == 0x00 )
  800758:	00802074 	movhi	r2,129
  80075c:	109c7d04 	addi	r2,r2,29172
  800760:	1080018b 	ldhu	r2,6(r2)
  800764:	10bfffcc 	andi	r2,r2,65535
  800768:	1004c03a 	cmpne	r2,r2,zero
  80076c:	1000021e 	bne	r2,zero,800778 <Chap9_SetFeature+0xdc>
                    endp = -1;
  800770:	00bfffc4 	movi	r2,-1
  800774:	e0bffdc5 	stb	r2,-9(fp)

                Hal4D13_SetEndpointStatus(endp+1, D13REG_EPSTS_STALL);
  800778:	e0bffdc3 	ldbu	r2,-9(fp)
  80077c:	10800044 	addi	r2,r2,1
  800780:	11003fcc 	andi	r4,r2,255
  800784:	01402004 	movi	r5,128
  800788:	08025a00 	call	8025a0 <Hal4D13_SetEndpointStatus>
                Chap9_SingleTransmitEP0(0, 0);
  80078c:	0009883a 	mov	r4,zero
  800790:	000b883a 	mov	r5,zero
  800794:	080136c0 	call	80136c <Chap9_SingleTransmitEP0>
  800798:	00004506 	br	8008b0 <Chap9_SetFeature+0x214>

            }
            else
                Chap9_StallEP0InControlWrite();
  80079c:	08012a40 	call	8012a4 <Chap9_StallEP0InControlWrite>

            break;
  8007a0:	00004306 	br	8008b0 <Chap9_SetFeature+0x214>
        default:
            Chap9_StallEP0InControlWrite();
  8007a4:	08012a40 	call	8012a4 <Chap9_StallEP0InControlWrite>
  8007a8:	00004106 	br	8008b0 <Chap9_SetFeature+0x214>
    }


    else
    {
        if( ControlData.DeviceRequest.wLength == 0 )
  8007ac:	00802074 	movhi	r2,129
  8007b0:	109c7d04 	addi	r2,r2,29172
  8007b4:	1080020b 	ldhu	r2,8(r2)
  8007b8:	10bfffcc 	andi	r2,r2,65535
  8007bc:	1004c03a 	cmpne	r2,r2,zero
  8007c0:	10003b1e 	bne	r2,zero,8008b0 <Chap9_SetFeature+0x214>
        {
            switch(bRecipient)
  8007c4:	e0bffd83 	ldbu	r2,-10(fp)
  8007c8:	e0bffe15 	stw	r2,-8(fp)
  8007cc:	e0fffe17 	ldw	r3,-8(fp)
  8007d0:	1805003a 	cmpeq	r2,r3,zero
  8007d4:	1000041e 	bne	r2,zero,8007e8 <Chap9_SetFeature+0x14c>
  8007d8:	e0fffe17 	ldw	r3,-8(fp)
  8007dc:	188000a0 	cmpeqi	r2,r3,2
  8007e0:	10000f1e 	bne	r2,zero,800820 <Chap9_SetFeature+0x184>
  8007e4:	00003106 	br	8008ac <Chap9_SetFeature+0x210>
            {
            case USB_RECIPIENT_DEVICE:
                if(wFeature == USB_FEATURE_REMOTE_WAKEUP)
  8007e8:	e0bffd0b 	ldhu	r2,-12(fp)
  8007ec:	10800058 	cmpnei	r2,r2,1
  8007f0:	1000091e 	bne	r2,zero,800818 <Chap9_SetFeature+0x17c>
                {
                    bD13flags.bits.remote_wakeup = 1;
  8007f4:	00802074 	movhi	r2,129
  8007f8:	109c5b04 	addi	r2,r2,29036
  8007fc:	10c00017 	ldw	r3,0(r2)
  800800:	18c00414 	ori	r3,r3,16
  800804:	10c00015 	stw	r3,0(r2)
                    Chap9_SingleTransmitEP0(0, 0);
  800808:	0009883a 	mov	r4,zero
  80080c:	000b883a 	mov	r5,zero
  800810:	080136c0 	call	80136c <Chap9_SingleTransmitEP0>
  800814:	00002606 	br	8008b0 <Chap9_SetFeature+0x214>
                }
                else
                {
                    Chap9_StallEP0InControlWrite();
  800818:	08012a40 	call	8012a4 <Chap9_StallEP0InControlWrite>
                }
                break;
  80081c:	00002406 	br	8008b0 <Chap9_SetFeature+0x214>
            case USB_RECIPIENT_ENDPOINT:
                if( wFeature == USB_FEATURE_ENDPOINT_STALL)
  800820:	e0bffd0b 	ldhu	r2,-12(fp)
  800824:	1004c03a 	cmpne	r2,r2,zero
  800828:	1000171e 	bne	r2,zero,800888 <Chap9_SetFeature+0x1ec>
                {
                    if( ControlData.DeviceRequest.wIndex == 0x00 )
  80082c:	00802074 	movhi	r2,129
  800830:	109c7d04 	addi	r2,r2,29172
  800834:	1080018b 	ldhu	r2,6(r2)
  800838:	10bfffcc 	andi	r2,r2,65535
  80083c:	1004c03a 	cmpne	r2,r2,zero
  800840:	1000031e 	bne	r2,zero,800850 <Chap9_SetFeature+0x1b4>
                        endp = -1;
  800844:	00bfffc4 	movi	r2,-1
  800848:	e0bffdc5 	stb	r2,-9(fp)
  80084c:	00000506 	br	800864 <Chap9_SetFeature+0x1c8>
                    else
                        endp = (UCHAR)(ControlData.DeviceRequest.wIndex & MAX_ENDPOINTS);
  800850:	00802074 	movhi	r2,129
  800854:	109c7d04 	addi	r2,r2,29172
  800858:	1080018b 	ldhu	r2,6(r2)
  80085c:	108003cc 	andi	r2,r2,15
  800860:	e0bffdc5 	stb	r2,-9(fp)

                    Hal4D13_SetEndpointStatus(endp+1, D13REG_EPSTS_STALL);
  800864:	e0bffdc3 	ldbu	r2,-9(fp)
  800868:	10800044 	addi	r2,r2,1
  80086c:	11003fcc 	andi	r4,r2,255
  800870:	01402004 	movi	r5,128
  800874:	08025a00 	call	8025a0 <Hal4D13_SetEndpointStatus>

                    Chap9_SingleTransmitEP0(0, 0);
  800878:	0009883a 	mov	r4,zero
  80087c:	000b883a 	mov	r5,zero
  800880:	080136c0 	call	80136c <Chap9_SingleTransmitEP0>
  800884:	00000a06 	br	8008b0 <Chap9_SetFeature+0x214>

                }
                else
                {
                    Hal4D13_SetEndpointStatus(endp+1, 0);
  800888:	e0bffdc3 	ldbu	r2,-9(fp)
  80088c:	10800044 	addi	r2,r2,1
  800890:	11003fcc 	andi	r4,r2,255
  800894:	000b883a 	mov	r5,zero
  800898:	08025a00 	call	8025a0 <Hal4D13_SetEndpointStatus>
                    Chap9_SingleTransmitEP0(0, 0);
  80089c:	0009883a 	mov	r4,zero
  8008a0:	000b883a 	mov	r5,zero
  8008a4:	080136c0 	call	80136c <Chap9_SingleTransmitEP0>
                }
                break;
  8008a8:	00000106 	br	8008b0 <Chap9_SetFeature+0x214>
            default:
                Chap9_StallEP0InControlWrite();
  8008ac:	08012a40 	call	8012a4 <Chap9_StallEP0InControlWrite>
        }
    }



}
  8008b0:	e037883a 	mov	sp,fp
  8008b4:	dfc00117 	ldw	ra,4(sp)
  8008b8:	df000017 	ldw	fp,0(sp)
  8008bc:	dec00204 	addi	sp,sp,8
  8008c0:	f800283a 	ret

008008c4 <Chap9_SetAddress>:

void Chap9_SetAddress(void)
{
  8008c4:	defffd04 	addi	sp,sp,-12
  8008c8:	dfc00215 	stw	ra,8(sp)
  8008cc:	df000115 	stw	fp,4(sp)
  8008d0:	df000104 	addi	fp,sp,4

    UCHAR   j;

    {
        disable_irq();
  8008d4:	08055a80 	call	8055a8 <disable_irq>
        if(!ControlData.Abort)
  8008d8:	00802074 	movhi	r2,129
  8008dc:	109c7d04 	addi	r2,r2,29172
  8008e0:	10800003 	ldbu	r2,0(r2)
  8008e4:	10803fcc 	andi	r2,r2,255
  8008e8:	1004c03a 	cmpne	r2,r2,zero
  8008ec:	1000791e 	bne	r2,zero,800ad4 <Chap9_SetAddress+0x210>
        {
            if(bUSBCheck_Device_State.State_bits.DEVICE_DEFAULT_STATE)
  8008f0:	00802074 	movhi	r2,129
  8008f4:	109c6404 	addi	r2,r2,29072
  8008f8:	10800003 	ldbu	r2,0(r2)
  8008fc:	1080004c 	andi	r2,r2,1
  800900:	10803fcc 	andi	r2,r2,255
  800904:	1005003a 	cmpeq	r2,r2,zero
  800908:	1000231e 	bne	r2,zero,800998 <Chap9_SetAddress+0xd4>
            {
                if((ControlData.DeviceRequest.wValue & DEVICE_ADDRESS_MASK) != 0 )
  80090c:	00802074 	movhi	r2,129
  800910:	109c7d04 	addi	r2,r2,29172
  800914:	1080010b 	ldhu	r2,4(r2)
  800918:	10bfffcc 	andi	r2,r2,65535
  80091c:	10801fcc 	andi	r2,r2,127
  800920:	1005003a 	cmpeq	r2,r2,zero
  800924:	1000161e 	bne	r2,zero,800980 <Chap9_SetAddress+0xbc>
                {
                    bUSBCheck_Device_State.State_bits.DEVICE_DEFAULT_STATE = 0;
  800928:	01002074 	movhi	r4,129
  80092c:	211c6404 	addi	r4,r4,29072
  800930:	20c00003 	ldbu	r3,0(r4)
  800934:	00bfff84 	movi	r2,-2
  800938:	1884703a 	and	r2,r3,r2
  80093c:	20800005 	stb	r2,0(r4)
                    Hal4D13_SetAddressEnable((UCHAR)(ControlData.DeviceRequest.wValue &
  800940:	00802074 	movhi	r2,129
  800944:	109c7d04 	addi	r2,r2,29172
  800948:	1080010b 	ldhu	r2,4(r2)
  80094c:	10803fcc 	andi	r2,r2,255
  800950:	11001fcc 	andi	r4,r2,127
  800954:	01400044 	movi	r5,1
  800958:	0801d140 	call	801d14 <Hal4D13_SetAddressEnable>
                                            DEVICE_ADDRESS_MASK), 1);
                    bUSBCheck_Device_State.State_bits.DEVICE_ADDRESS_STATE = 1;
  80095c:	00c02074 	movhi	r3,129
  800960:	18dc6404 	addi	r3,r3,29072
  800964:	18800003 	ldbu	r2,0(r3)
  800968:	10800094 	ori	r2,r2,2
  80096c:	18800005 	stb	r2,0(r3)
                    Chap9_SingleTransmitEP0(0, 0);
  800970:	0009883a 	mov	r4,zero
  800974:	000b883a 	mov	r5,zero
  800978:	080136c0 	call	80136c <Chap9_SingleTransmitEP0>
  80097c:	00005506 	br	800ad4 <Chap9_SetAddress+0x210>

                }

                else
                    bUSBCheck_Device_State.State_bits.DEVICE_DEFAULT_STATE = 1;
  800980:	00c02074 	movhi	r3,129
  800984:	18dc6404 	addi	r3,r3,29072
  800988:	18800003 	ldbu	r2,0(r3)
  80098c:	10800054 	ori	r2,r2,1
  800990:	18800005 	stb	r2,0(r3)
  800994:	00004f06 	br	800ad4 <Chap9_SetAddress+0x210>
            }

            else if(bUSBCheck_Device_State.State_bits.DEVICE_ADDRESS_STATE)
  800998:	00802074 	movhi	r2,129
  80099c:	109c6404 	addi	r2,r2,29072
  8009a0:	10800003 	ldbu	r2,0(r2)
  8009a4:	1080008c 	andi	r2,r2,2
  8009a8:	10803fcc 	andi	r2,r2,255
  8009ac:	1005003a 	cmpeq	r2,r2,zero
  8009b0:	1000331e 	bne	r2,zero,800a80 <Chap9_SetAddress+0x1bc>
            {
                if((ControlData.DeviceRequest.wValue & DEVICE_ADDRESS_MASK) == 0 )
  8009b4:	00802074 	movhi	r2,129
  8009b8:	109c7d04 	addi	r2,r2,29172
  8009bc:	1080010b 	ldhu	r2,4(r2)
  8009c0:	10bfffcc 	andi	r2,r2,65535
  8009c4:	10801fcc 	andi	r2,r2,127
  8009c8:	1004c03a 	cmpne	r2,r2,zero
  8009cc:	1000161e 	bne	r2,zero,800a28 <Chap9_SetAddress+0x164>
                {
                    Hal4D13_SetAddressEnable((UCHAR)(ControlData.DeviceRequest.wValue &
  8009d0:	00802074 	movhi	r2,129
  8009d4:	109c7d04 	addi	r2,r2,29172
  8009d8:	1080010b 	ldhu	r2,4(r2)
  8009dc:	10803fcc 	andi	r2,r2,255
  8009e0:	11001fcc 	andi	r4,r2,127
  8009e4:	01400044 	movi	r5,1
  8009e8:	0801d140 	call	801d14 <Hal4D13_SetAddressEnable>
                                            DEVICE_ADDRESS_MASK), 1);
                    bUSBCheck_Device_State.State_bits.DEVICE_DEFAULT_STATE = 1;
  8009ec:	00c02074 	movhi	r3,129
  8009f0:	18dc6404 	addi	r3,r3,29072
  8009f4:	18800003 	ldbu	r2,0(r3)
  8009f8:	10800054 	ori	r2,r2,1
  8009fc:	18800005 	stb	r2,0(r3)
                    bUSBCheck_Device_State.State_bits.DEVICE_ADDRESS_STATE = 0;
  800a00:	01002074 	movhi	r4,129
  800a04:	211c6404 	addi	r4,r4,29072
  800a08:	20c00003 	ldbu	r3,0(r4)
  800a0c:	00bfff44 	movi	r2,-3
  800a10:	1884703a 	and	r2,r3,r2
  800a14:	20800005 	stb	r2,0(r4)
                    Chap9_SingleTransmitEP0(0, 0);
  800a18:	0009883a 	mov	r4,zero
  800a1c:	000b883a 	mov	r5,zero
  800a20:	080136c0 	call	80136c <Chap9_SingleTransmitEP0>
  800a24:	00002b06 	br	800ad4 <Chap9_SetAddress+0x210>

                }

                else
                {
                    bUSBCheck_Device_State.State_bits.DEVICE_DEFAULT_STATE = 0;
  800a28:	01002074 	movhi	r4,129
  800a2c:	211c6404 	addi	r4,r4,29072
  800a30:	20c00003 	ldbu	r3,0(r4)
  800a34:	00bfff84 	movi	r2,-2
  800a38:	1884703a 	and	r2,r3,r2
  800a3c:	20800005 	stb	r2,0(r4)
                    Hal4D13_SetAddressEnable((UCHAR)(ControlData.DeviceRequest.wValue &
  800a40:	00802074 	movhi	r2,129
  800a44:	109c7d04 	addi	r2,r2,29172
  800a48:	1080010b 	ldhu	r2,4(r2)
  800a4c:	10803fcc 	andi	r2,r2,255
  800a50:	11001fcc 	andi	r4,r2,127
  800a54:	01400044 	movi	r5,1
  800a58:	0801d140 	call	801d14 <Hal4D13_SetAddressEnable>
                                            DEVICE_ADDRESS_MASK), 1);
                    bUSBCheck_Device_State.State_bits.DEVICE_ADDRESS_STATE = 1;
  800a5c:	00c02074 	movhi	r3,129
  800a60:	18dc6404 	addi	r3,r3,29072
  800a64:	18800003 	ldbu	r2,0(r3)
  800a68:	10800094 	ori	r2,r2,2
  800a6c:	18800005 	stb	r2,0(r3)
                    Chap9_SingleTransmitEP0(0, 0);
  800a70:	0009883a 	mov	r4,zero
  800a74:	000b883a 	mov	r5,zero
  800a78:	080136c0 	call	80136c <Chap9_SingleTransmitEP0>
  800a7c:	00001506 	br	800ad4 <Chap9_SetAddress+0x210>
            }

            else
            {

                bUSBCheck_Device_State.State_bits.DEVICE_CONFIGURATION_STATE = 0;
  800a80:	01002074 	movhi	r4,129
  800a84:	211c6404 	addi	r4,r4,29072
  800a88:	20c00003 	ldbu	r3,0(r4)
  800a8c:	00bffec4 	movi	r2,-5
  800a90:	1884703a 	and	r2,r3,r2
  800a94:	20800005 	stb	r2,0(r4)
                bUSBCheck_Device_State.State_bits.DEVICE_ADDRESS_STATE = 0;
  800a98:	01002074 	movhi	r4,129
  800a9c:	211c6404 	addi	r4,r4,29072
  800aa0:	20c00003 	ldbu	r3,0(r4)
  800aa4:	00bfff44 	movi	r2,-3
  800aa8:	1884703a 	and	r2,r3,r2
  800aac:	20800005 	stb	r2,0(r4)
                bUSBCheck_Device_State.State_bits.DEVICE_DEFAULT_STATE = 1;
  800ab0:	00c02074 	movhi	r3,129
  800ab4:	18dc6404 	addi	r3,r3,29072
  800ab8:	18800003 	ldbu	r2,0(r3)
  800abc:	10800054 	ori	r2,r2,1
  800ac0:	18800005 	stb	r2,0(r3)
                j = DEV_BEHAVIOUR_NOT_SPECIFIED;
  800ac4:	e03fff05 	stb	zero,-4(fp)
                Chap9_SingleTransmitEP0(&j, 0);
  800ac8:	e13fff04 	addi	r4,fp,-4
  800acc:	000b883a 	mov	r5,zero
  800ad0:	080136c0 	call	80136c <Chap9_SingleTransmitEP0>
            }

        }
        enable_irq();
  800ad4:	08055f80 	call	8055f8 <enable_irq>

    }
    printf("Addr %x\n",Hal4D13_GetAddress());
  800ad8:	0801cc80 	call	801cc8 <Hal4D13_GetAddress>
  800adc:	11403fcc 	andi	r5,r2,255
  800ae0:	01002074 	movhi	r4,129
  800ae4:	2109e404 	addi	r4,r4,10128
  800ae8:	08063e00 	call	8063e0 <printf>
}
  800aec:	e037883a 	mov	sp,fp
  800af0:	dfc00117 	ldw	ra,4(sp)
  800af4:	df000017 	ldw	fp,0(sp)
  800af8:	dec00204 	addi	sp,sp,8
  800afc:	f800283a 	ret

00800b00 <Chap9_GetDescriptor>:


void Chap9_GetDescriptor(void)
{
  800b00:	defffb04 	addi	sp,sp,-20
  800b04:	dfc00415 	stw	ra,16(sp)
  800b08:	df000315 	stw	fp,12(sp)
  800b0c:	df000304 	addi	fp,sp,12
    UCHAR   bDescriptor =      MSB(ControlData.DeviceRequest.wValue);
  800b10:	00802074 	movhi	r2,129
  800b14:	109c7d04 	addi	r2,r2,29172
  800b18:	1080010b 	ldhu	r2,4(r2)
  800b1c:	10bfffcc 	andi	r2,r2,65535
  800b20:	1004d23a 	srli	r2,r2,8
  800b24:	1007883a 	mov	r3,r2
  800b28:	00bfffc4 	movi	r2,-1
  800b2c:	1884703a 	and	r2,r3,r2
  800b30:	e0bffd85 	stb	r2,-10(fp)
    UCHAR   bDescriptorIndex = LSB(ControlData.DeviceRequest.wValue);
  800b34:	00802074 	movhi	r2,129
  800b38:	109c7d04 	addi	r2,r2,29172
  800b3c:	1080010b 	ldhu	r2,4(r2)
  800b40:	1007883a 	mov	r3,r2
  800b44:	00bfffc4 	movi	r2,-1
  800b48:	1884703a 	and	r2,r3,r2
  800b4c:	e0bffd45 	stb	r2,-11(fp)
    UCHAR	bmRequestType = ControlData.DeviceRequest.bmRequestType;
  800b50:	00802074 	movhi	r2,129
  800b54:	109c7d04 	addi	r2,r2,29172
  800b58:	10800083 	ldbu	r2,2(r2)
  800b5c:	e0bffd05 	stb	r2,-12(fp)

    switch(bDescriptor)
  800b60:	e0bffd83 	ldbu	r2,-10(fp)
  800b64:	e0bfff15 	stw	r2,-4(fp)
  800b68:	e0ffff17 	ldw	r3,-4(fp)
  800b6c:	188008e8 	cmpgeui	r2,r3,35
  800b70:	1000861e 	bne	r2,zero,800d8c <Chap9_GetDescriptor+0x28c>
  800b74:	e13fff17 	ldw	r4,-4(fp)
  800b78:	e13fff17 	ldw	r4,-4(fp)
  800b7c:	2105883a 	add	r2,r4,r4
  800b80:	1087883a 	add	r3,r2,r2
  800b84:	00802034 	movhi	r2,128
  800b88:	1082e604 	addi	r2,r2,2968
  800b8c:	1885883a 	add	r2,r3,r2
  800b90:	10800017 	ldw	r2,0(r2)
  800b94:	1000683a 	jmp	r2
  800b98:	00800d8c 	andi	r2,zero,54
  800b9c:	00800c24 	muli	r2,zero,48
  800ba0:	00800c38 	rdprs	r2,zero,48
  800ba4:	00800c4c 	andi	r2,zero,49
  800ba8:	00800d6c 	andhi	r2,zero,53
  800bac:	00800d6c 	andhi	r2,zero,53
  800bb0:	00800d6c 	andhi	r2,zero,53
  800bb4:	00800d8c 	andi	r2,zero,54
  800bb8:	00800d8c 	andi	r2,zero,54
  800bbc:	00800d8c 	andi	r2,zero,54
  800bc0:	00800d8c 	andi	r2,zero,54
  800bc4:	00800d8c 	andi	r2,zero,54
  800bc8:	00800d8c 	andi	r2,zero,54
  800bcc:	00800d8c 	andi	r2,zero,54
  800bd0:	00800d8c 	andi	r2,zero,54
  800bd4:	00800d8c 	andi	r2,zero,54
  800bd8:	00800d8c 	andi	r2,zero,54
  800bdc:	00800d8c 	andi	r2,zero,54
  800be0:	00800d8c 	andi	r2,zero,54
  800be4:	00800d8c 	andi	r2,zero,54
  800be8:	00800d8c 	andi	r2,zero,54
  800bec:	00800d8c 	andi	r2,zero,54
  800bf0:	00800d8c 	andi	r2,zero,54
  800bf4:	00800d8c 	andi	r2,zero,54
  800bf8:	00800d8c 	andi	r2,zero,54
  800bfc:	00800d8c 	andi	r2,zero,54
  800c00:	00800d8c 	andi	r2,zero,54
  800c04:	00800d8c 	andi	r2,zero,54
  800c08:	00800d8c 	andi	r2,zero,54
  800c0c:	00800d8c 	andi	r2,zero,54
  800c10:	00800d8c 	andi	r2,zero,54
  800c14:	00800d8c 	andi	r2,zero,54
  800c18:	00800d8c 	andi	r2,zero,54
  800c1c:	00800d8c 	andi	r2,zero,54
  800c20:	00800d6c 	andhi	r2,zero,53
    {
    	case USB_DEVICE_DESCRIPTOR_TYPE:{//1

			Chap9_BurstTransmitEP0( (PUCHAR)&DeviceDescr , sizeof(USB_DEVICE_DESCRIPTOR));
  800c24:	01002074 	movhi	r4,129
  800c28:	210d6e04 	addi	r4,r4,13752
  800c2c:	01400484 	movi	r5,18
  800c30:	08014080 	call	801408 <Chap9_BurstTransmitEP0>
			break;}
  800c34:	00005606 	br	800d90 <Chap9_GetDescriptor+0x290>
		case USB_CONFIGURATION_DESCRIPTOR_TYPE:{//2
			Chap9_BurstTransmitEP0((PUCHAR)&ConfigDescr_a, sizeof(USB_CONFIGURATION_DESCRIPTOR_a));
  800c38:	01002074 	movhi	r4,129
  800c3c:	210d7284 	addi	r4,r4,13770
  800c40:	01400884 	movi	r5,34
  800c44:	08014080 	call	801408 <Chap9_BurstTransmitEP0>
			break;}
  800c48:	00005106 	br	800d90 <Chap9_GetDescriptor+0x290>
		case USB_STRING_DESCRIPTOR_TYPE://3
			switch(bDescriptorIndex)
  800c4c:	e0bffd43 	ldbu	r2,-11(fp)
  800c50:	e0bffe15 	stw	r2,-8(fp)
  800c54:	e0fffe17 	ldw	r3,-8(fp)
  800c58:	188001a8 	cmpgeui	r2,r3,6
  800c5c:	10003e1e 	bne	r2,zero,800d58 <Chap9_GetDescriptor+0x258>
  800c60:	e13ffe17 	ldw	r4,-8(fp)
  800c64:	e13ffe17 	ldw	r4,-8(fp)
  800c68:	2105883a 	add	r2,r4,r4
  800c6c:	1087883a 	add	r3,r2,r2
  800c70:	00802034 	movhi	r2,128
  800c74:	10832104 	addi	r2,r2,3204
  800c78:	1885883a 	add	r2,r3,r2
  800c7c:	10800017 	ldw	r2,0(r2)
  800c80:	1000683a 	jmp	r2
  800c84:	00800c9c 	xori	r2,zero,50
  800c88:	00800cb8 	rdprs	r2,zero,50
  800c8c:	00800cd8 	cmpnei	r2,zero,51
  800c90:	00800cf8 	rdprs	r2,zero,51
  800c94:	00800d18 	cmpnei	r2,zero,52
  800c98:	00800d38 	rdprs	r2,zero,52
			{
				case STR_INDEX_LANGUAGE:
					printf("\n str1     \n");
  800c9c:	01002074 	movhi	r4,129
  800ca0:	2109e704 	addi	r4,r4,10140
  800ca4:	080651c0 	call	80651c <puts>
					Chap9_BurstTransmitEP0((PUCHAR)&strLanguage, sizeof(USB_STRING_LANGUAGE_DESCRIPTOR));
  800ca8:	d1200004 	addi	r4,gp,-32768
  800cac:	01400104 	movi	r5,4
  800cb0:	08014080 	call	801408 <Chap9_BurstTransmitEP0>
					break;
  800cb4:	00003606 	br	800d90 <Chap9_GetDescriptor+0x290>
				case STR_INDEX_MANUFACTURER:
					printf("\n str2     \n");
  800cb8:	01002074 	movhi	r4,129
  800cbc:	2109ea04 	addi	r4,r4,10152
  800cc0:	080651c0 	call	80651c <puts>
					Chap9_BurstTransmitEP0((PUCHAR)&strManufacturer, sizeof(USB_STRING_MANUFACTURER_DESCRIPTOR));
  800cc4:	01002074 	movhi	r4,129
  800cc8:	210dc744 	addi	r4,r4,14109
  800ccc:	01400e04 	movi	r5,56
  800cd0:	08014080 	call	801408 <Chap9_BurstTransmitEP0>
					break;
  800cd4:	00002e06 	br	800d90 <Chap9_GetDescriptor+0x290>
				case STR_INDEX_PRODUCT:
					printf("\n str3     \n");
  800cd8:	01002074 	movhi	r4,129
  800cdc:	2109ed04 	addi	r4,r4,10164
  800ce0:	080651c0 	call	80651c <puts>
					Chap9_BurstTransmitEP0((PUCHAR)&strProduct, sizeof(USB_STRING_PRODUCT_DESCRIPTOR));
  800ce4:	01002074 	movhi	r4,129
  800ce8:	210db6c4 	addi	r4,r4,14043
  800cec:	01401084 	movi	r5,66
  800cf0:	08014080 	call	801408 <Chap9_BurstTransmitEP0>
					break;
  800cf4:	00002606 	br	800d90 <Chap9_GetDescriptor+0x290>
				case STR_INDEX_SERIALNUMBER:
					printf("\n str4     \n");
  800cf8:	01002074 	movhi	r4,129
  800cfc:	2109f004 	addi	r4,r4,10176
  800d00:	080651c0 	call	80651c <puts>
					Chap9_BurstTransmitEP0((PUCHAR)&strSerialNum, sizeof(USB_STRING_SERIALNUMBER_DESCRIPTOR));
  800d04:	01002074 	movhi	r4,129
  800d08:	210db044 	addi	r4,r4,14017
  800d0c:	01400684 	movi	r5,26
  800d10:	08014080 	call	801408 <Chap9_BurstTransmitEP0>
					break;
  800d14:	00001e06 	br	800d90 <Chap9_GetDescriptor+0x290>
				case STR_INDEX_CONFIGURATION:
					printf("\n str5     \n");
  800d18:	01002074 	movhi	r4,129
  800d1c:	2109f304 	addi	r4,r4,10188
  800d20:	080651c0 	call	80651c <puts>
					Chap9_BurstTransmitEP0((PUCHAR)&strConfiguration, sizeof(USB_STRING_CONFIGURATION_DESCRIPTOR) );
  800d24:	01002074 	movhi	r4,129
  800d28:	210dabc4 	addi	r4,r4,13999
  800d2c:	01400484 	movi	r5,18
  800d30:	08014080 	call	801408 <Chap9_BurstTransmitEP0>
					break;
  800d34:	00001606 	br	800d90 <Chap9_GetDescriptor+0x290>
				case STR_INDEX_INTERFACE:
					printf("\n str6     \n");
  800d38:	01002074 	movhi	r4,129
  800d3c:	2109f604 	addi	r4,r4,10200
  800d40:	080651c0 	call	80651c <puts>
					Chap9_BurstTransmitEP0((PUCHAR)&strInterface, sizeof(USB_STRING_INTERFACE_DESCRIPTOR) );
  800d44:	01002074 	movhi	r4,129
  800d48:	210da5c4 	addi	r4,r4,13975
  800d4c:	01400604 	movi	r5,24
  800d50:	08014080 	call	801408 <Chap9_BurstTransmitEP0>
					break;
  800d54:	00000e06 	br	800d90 <Chap9_GetDescriptor+0x290>
				default:
					printf("\n Unknown String \n");
  800d58:	01002074 	movhi	r4,129
  800d5c:	2109f904 	addi	r4,r4,10212
  800d60:	080651c0 	call	80651c <puts>
					Chap9_StallEP0InControlRead();
  800d64:	08013080 	call	801308 <Chap9_StallEP0InControlRead>
					break;
			}
			break;
  800d68:	00000906 	br	800d90 <Chap9_GetDescriptor+0x290>
		case USB_ENDPOINT_DESCRIPTOR_TYPE:
		case USB_POWER_DESCRIPTOR_TYPE:
		case USB_HID_DESCRIPTOR_TYPE:
			//bmRequestType will be 0x81 for HID related descriptor requests.
			//For some reason this is not characterized as a class request
			if(bmRequestType == 0x81){
  800d6c:	e0bffd03 	ldbu	r2,-12(fp)
  800d70:	10802058 	cmpnei	r2,r2,129
  800d74:	1000061e 	bne	r2,zero,800d90 <Chap9_GetDescriptor+0x290>
				Chap9_BurstTransmitEP0((PUCHAR)&REPORT_DESCRIPTOR2, sizeof(REPORT_DESCRIPTOR2) );
  800d78:	01002074 	movhi	r4,129
  800d7c:	210d8f44 	addi	r4,r4,13885
  800d80:	01400b44 	movi	r5,45
  800d84:	08014080 	call	801408 <Chap9_BurstTransmitEP0>
			}
			break;
  800d88:	00000106 	br	800d90 <Chap9_GetDescriptor+0x290>
		default:
			Chap9_StallEP0InControlRead();
  800d8c:	08013080 	call	801308 <Chap9_StallEP0InControlRead>
			break;
		}
}
  800d90:	e037883a 	mov	sp,fp
  800d94:	dfc00117 	ldw	ra,4(sp)
  800d98:	df000017 	ldw	fp,0(sp)
  800d9c:	dec00204 	addi	sp,sp,8
  800da0:	f800283a 	ret

00800da4 <Chap9_GetConfiguration>:

void Chap9_GetConfiguration(void)
{
  800da4:	defffd04 	addi	sp,sp,-12
  800da8:	dfc00215 	stw	ra,8(sp)
  800dac:	df000115 	stw	fp,4(sp)
  800db0:	df000104 	addi	fp,sp,4
    UCHAR   c = bD13flags.bits.configuration;
  800db4:	00802074 	movhi	r2,129
  800db8:	109c5b04 	addi	r2,r2,29036
  800dbc:	10800017 	ldw	r2,0(r2)
  800dc0:	1004d0fa 	srli	r2,r2,3
  800dc4:	1080004c 	andi	r2,r2,1
  800dc8:	e0bfff05 	stb	r2,-4(fp)
    UCHAR   j;

    if(bUSBCheck_Device_State.State_bits.DEVICE_ADDRESS_STATE)
  800dcc:	00802074 	movhi	r2,129
  800dd0:	109c6404 	addi	r2,r2,29072
  800dd4:	10800003 	ldbu	r2,0(r2)
  800dd8:	1080008c 	andi	r2,r2,2
  800ddc:	10803fcc 	andi	r2,r2,255
  800de0:	1005003a 	cmpeq	r2,r2,zero
  800de4:	1000051e 	bne	r2,zero,800dfc <Chap9_GetConfiguration+0x58>
    {
        j = 0;
  800de8:	e03fff45 	stb	zero,-3(fp)
        Chap9_SingleTransmitEP0(&j, 1);
  800dec:	e13fff44 	addi	r4,fp,-3
  800df0:	01400044 	movi	r5,1
  800df4:	080136c0 	call	80136c <Chap9_SingleTransmitEP0>
  800df8:	00001506 	br	800e50 <Chap9_GetConfiguration+0xac>
    }

    else
    {
        if (ControlData.DeviceRequest.wValue == 0 && ControlData.DeviceRequest.wIndex == 0 && ControlData.DeviceRequest.wLength == 1)
  800dfc:	00802074 	movhi	r2,129
  800e00:	109c7d04 	addi	r2,r2,29172
  800e04:	1080010b 	ldhu	r2,4(r2)
  800e08:	10bfffcc 	andi	r2,r2,65535
  800e0c:	1004c03a 	cmpne	r2,r2,zero
  800e10:	10000f1e 	bne	r2,zero,800e50 <Chap9_GetConfiguration+0xac>
  800e14:	00802074 	movhi	r2,129
  800e18:	109c7d04 	addi	r2,r2,29172
  800e1c:	1080018b 	ldhu	r2,6(r2)
  800e20:	10bfffcc 	andi	r2,r2,65535
  800e24:	1004c03a 	cmpne	r2,r2,zero
  800e28:	1000091e 	bne	r2,zero,800e50 <Chap9_GetConfiguration+0xac>
  800e2c:	00802074 	movhi	r2,129
  800e30:	109c7d04 	addi	r2,r2,29172
  800e34:	1080020b 	ldhu	r2,8(r2)
  800e38:	10bfffcc 	andi	r2,r2,65535
  800e3c:	10800058 	cmpnei	r2,r2,1
  800e40:	1000031e 	bne	r2,zero,800e50 <Chap9_GetConfiguration+0xac>
        {
        	Chap9_SingleTransmitEP0(&c, 1);
  800e44:	e13fff04 	addi	r4,fp,-4
  800e48:	01400044 	movi	r5,1
  800e4c:	080136c0 	call	80136c <Chap9_SingleTransmitEP0>
        }
    }

}
  800e50:	e037883a 	mov	sp,fp
  800e54:	dfc00117 	ldw	ra,4(sp)
  800e58:	df000017 	ldw	fp,0(sp)
  800e5c:	dec00204 	addi	sp,sp,8
  800e60:	f800283a 	ret

00800e64 <Chap9_SetConfiguration>:

void Chap9_SetConfiguration(void)
{
  800e64:	defffe04 	addi	sp,sp,-8
  800e68:	dfc00115 	stw	ra,4(sp)
  800e6c:	df000015 	stw	fp,0(sp)
  800e70:	d839883a 	mov	fp,sp
  
    if(bUSBCheck_Device_State.State_bits.DEVICE_ADDRESS_STATE)
  800e74:	00802074 	movhi	r2,129
  800e78:	109c6404 	addi	r2,r2,29072
  800e7c:	10800003 	ldbu	r2,0(r2)
  800e80:	1080008c 	andi	r2,r2,2
  800e84:	10803fcc 	andi	r2,r2,255
  800e88:	1005003a 	cmpeq	r2,r2,zero
  800e8c:	10003d1e 	bne	r2,zero,800f84 <Chap9_SetConfiguration+0x120>
    {
        if(ControlData.DeviceRequest.wIndex == 0 && ControlData.DeviceRequest.wLength == 0)
  800e90:	00802074 	movhi	r2,129
  800e94:	109c7d04 	addi	r2,r2,29172
  800e98:	1080018b 	ldhu	r2,6(r2)
  800e9c:	10bfffcc 	andi	r2,r2,65535
  800ea0:	1004c03a 	cmpne	r2,r2,zero
  800ea4:	10006d1e 	bne	r2,zero,80105c <Chap9_SetConfiguration+0x1f8>
  800ea8:	00802074 	movhi	r2,129
  800eac:	109c7d04 	addi	r2,r2,29172
  800eb0:	1080020b 	ldhu	r2,8(r2)
  800eb4:	10bfffcc 	andi	r2,r2,65535
  800eb8:	1004c03a 	cmpne	r2,r2,zero
  800ebc:	1000671e 	bne	r2,zero,80105c <Chap9_SetConfiguration+0x1f8>
        {
            if (ControlData.DeviceRequest.wValue == 0)
  800ec0:	00802074 	movhi	r2,129
  800ec4:	109c7d04 	addi	r2,r2,29172
  800ec8:	1080010b 	ldhu	r2,4(r2)
  800ecc:	10bfffcc 	andi	r2,r2,65535
  800ed0:	1004c03a 	cmpne	r2,r2,zero
  800ed4:	10000f1e 	bne	r2,zero,800f14 <Chap9_SetConfiguration+0xb0>
            {
                /* put device in unconfigured state */
                bD13flags.bits.configuration = 0;
  800ed8:	01002074 	movhi	r4,129
  800edc:	211c5b04 	addi	r4,r4,29036
  800ee0:	20c00017 	ldw	r3,0(r4)
  800ee4:	00bffdc4 	movi	r2,-9
  800ee8:	1884703a 	and	r2,r3,r2
  800eec:	20800015 	stw	r2,0(r4)
                bUSBCheck_Device_State.State_bits.DEVICE_ADDRESS_STATE = 1;
  800ef0:	00c02074 	movhi	r3,129
  800ef4:	18dc6404 	addi	r3,r3,29072
  800ef8:	18800003 	ldbu	r2,0(r3)
  800efc:	10800094 	ori	r2,r2,2
  800f00:	18800005 	stb	r2,0(r3)
                Chap9_SingleTransmitEP0(0, 0);
  800f04:	0009883a 	mov	r4,zero
  800f08:	000b883a 	mov	r5,zero
  800f0c:	080136c0 	call	80136c <Chap9_SingleTransmitEP0>
  800f10:	00005206 	br	80105c <Chap9_SetConfiguration+0x1f8>
            }
            else if (ControlData.DeviceRequest.wValue == 1)
  800f14:	00802074 	movhi	r2,129
  800f18:	109c7d04 	addi	r2,r2,29172
  800f1c:	1080010b 	ldhu	r2,4(r2)
  800f20:	10bfffcc 	andi	r2,r2,65535
  800f24:	10800058 	cmpnei	r2,r2,1
  800f28:	1000141e 	bne	r2,zero,800f7c <Chap9_SetConfiguration+0x118>
            {
                /* Configure device */
                bD13flags.bits.configuration = 1;
  800f2c:	00c02074 	movhi	r3,129
  800f30:	18dc5b04 	addi	r3,r3,29036
  800f34:	18800017 	ldw	r2,0(r3)
  800f38:	10800214 	ori	r2,r2,8
  800f3c:	18800015 	stw	r2,0(r3)
                bUSBCheck_Device_State.State_bits.DEVICE_ADDRESS_STATE = 0;
  800f40:	01002074 	movhi	r4,129
  800f44:	211c6404 	addi	r4,r4,29072
  800f48:	20c00003 	ldbu	r3,0(r4)
  800f4c:	00bfff44 	movi	r2,-3
  800f50:	1884703a 	and	r2,r3,r2
  800f54:	20800005 	stb	r2,0(r4)
                bUSBCheck_Device_State.State_bits.DEVICE_CONFIGURATION_STATE = 1;
  800f58:	00c02074 	movhi	r3,129
  800f5c:	18dc6404 	addi	r3,r3,29072
  800f60:	18800003 	ldbu	r2,0(r3)
  800f64:	10800114 	ori	r2,r2,4
  800f68:	18800005 	stb	r2,0(r3)
                Chap9_SingleTransmitEP0(0, 0);
  800f6c:	0009883a 	mov	r4,zero
  800f70:	000b883a 	mov	r5,zero
  800f74:	080136c0 	call	80136c <Chap9_SingleTransmitEP0>
  800f78:	00003806 	br	80105c <Chap9_SetConfiguration+0x1f8>
            }

            else
                Chap9_StallEP0InControlWrite();
  800f7c:	08012a40 	call	8012a4 <Chap9_StallEP0InControlWrite>
  800f80:	00003606 	br	80105c <Chap9_SetConfiguration+0x1f8>
        }
    }

    else
    {
        if (ControlData.DeviceRequest.wValue == 0)
  800f84:	00802074 	movhi	r2,129
  800f88:	109c7d04 	addi	r2,r2,29172
  800f8c:	1080010b 	ldhu	r2,4(r2)
  800f90:	10bfffcc 	andi	r2,r2,65535
  800f94:	1004c03a 	cmpne	r2,r2,zero
  800f98:	1000151e 	bne	r2,zero,800ff0 <Chap9_SetConfiguration+0x18c>
        {
            /* put device in unconfigured state */
            bD13flags.bits.configuration = 0;
  800f9c:	01002074 	movhi	r4,129
  800fa0:	211c5b04 	addi	r4,r4,29036
  800fa4:	20c00017 	ldw	r3,0(r4)
  800fa8:	00bffdc4 	movi	r2,-9
  800fac:	1884703a 	and	r2,r3,r2
  800fb0:	20800015 	stw	r2,0(r4)
            bUSBCheck_Device_State.State_bits.DEVICE_ADDRESS_STATE = 1;
  800fb4:	00c02074 	movhi	r3,129
  800fb8:	18dc6404 	addi	r3,r3,29072
  800fbc:	18800003 	ldbu	r2,0(r3)
  800fc0:	10800094 	ori	r2,r2,2
  800fc4:	18800005 	stb	r2,0(r3)
            bUSBCheck_Device_State.State_bits.DEVICE_CONFIGURATION_STATE = 0;
  800fc8:	01002074 	movhi	r4,129
  800fcc:	211c6404 	addi	r4,r4,29072
  800fd0:	20c00003 	ldbu	r3,0(r4)
  800fd4:	00bffec4 	movi	r2,-5
  800fd8:	1884703a 	and	r2,r3,r2
  800fdc:	20800005 	stb	r2,0(r4)
            Chap9_SingleTransmitEP0(0, 0);
  800fe0:	0009883a 	mov	r4,zero
  800fe4:	000b883a 	mov	r5,zero
  800fe8:	080136c0 	call	80136c <Chap9_SingleTransmitEP0>
  800fec:	00001b06 	br	80105c <Chap9_SetConfiguration+0x1f8>

        }

        else if (ControlData.DeviceRequest.wValue == 1)
  800ff0:	00802074 	movhi	r2,129
  800ff4:	109c7d04 	addi	r2,r2,29172
  800ff8:	1080010b 	ldhu	r2,4(r2)
  800ffc:	10bfffcc 	andi	r2,r2,65535
  801000:	10800058 	cmpnei	r2,r2,1
  801004:	1000141e 	bne	r2,zero,801058 <Chap9_SetConfiguration+0x1f4>
        {
            /* Configure device */
            bD13flags.bits.configuration = 1;
  801008:	00c02074 	movhi	r3,129
  80100c:	18dc5b04 	addi	r3,r3,29036
  801010:	18800017 	ldw	r2,0(r3)
  801014:	10800214 	ori	r2,r2,8
  801018:	18800015 	stw	r2,0(r3)
            bUSBCheck_Device_State.State_bits.DEVICE_ADDRESS_STATE = 0;
  80101c:	01002074 	movhi	r4,129
  801020:	211c6404 	addi	r4,r4,29072
  801024:	20c00003 	ldbu	r3,0(r4)
  801028:	00bfff44 	movi	r2,-3
  80102c:	1884703a 	and	r2,r3,r2
  801030:	20800005 	stb	r2,0(r4)
            bUSBCheck_Device_State.State_bits.DEVICE_CONFIGURATION_STATE = 1;
  801034:	00c02074 	movhi	r3,129
  801038:	18dc6404 	addi	r3,r3,29072
  80103c:	18800003 	ldbu	r2,0(r3)
  801040:	10800114 	ori	r2,r2,4
  801044:	18800005 	stb	r2,0(r3)
            Chap9_SingleTransmitEP0(0, 0);
  801048:	0009883a 	mov	r4,zero
  80104c:	000b883a 	mov	r5,zero
  801050:	080136c0 	call	80136c <Chap9_SingleTransmitEP0>
  801054:	00000106 	br	80105c <Chap9_SetConfiguration+0x1f8>
        }
        else
            Chap9_StallEP0InControlWrite();
  801058:	08012a40 	call	8012a4 <Chap9_StallEP0InControlWrite>
    }

}
  80105c:	e037883a 	mov	sp,fp
  801060:	dfc00117 	ldw	ra,4(sp)
  801064:	df000017 	ldw	fp,0(sp)
  801068:	dec00204 	addi	sp,sp,8
  80106c:	f800283a 	ret

00801070 <Chap9_GetInterface>:

void Chap9_GetInterface(void)
{
  801070:	defffe04 	addi	sp,sp,-8
  801074:	dfc00115 	stw	ra,4(sp)
  801078:	df000015 	stw	fp,0(sp)
  80107c:	d839883a 	mov	fp,sp

    if(bUSBCheck_Device_State.State_bits.DEVICE_ADDRESS_STATE)
  801080:	00802074 	movhi	r2,129
  801084:	109c6404 	addi	r2,r2,29072
  801088:	10800003 	ldbu	r2,0(r2)
  80108c:	1080008c 	andi	r2,r2,2
  801090:	10803fcc 	andi	r2,r2,255
  801094:	1005003a 	cmpeq	r2,r2,zero
  801098:	1000021e 	bne	r2,zero,8010a4 <Chap9_GetInterface+0x34>
        Chap9_StallEP0InControlRead();
  80109c:	08013080 	call	801308 <Chap9_StallEP0InControlRead>
  8010a0:	00001706 	br	801100 <Chap9_GetInterface+0x90>

    else
    {

        if ((ControlData.DeviceRequest.wValue == 0 && ControlData.DeviceRequest.wIndex == 0 && ControlData.DeviceRequest.wLength == 1))
  8010a4:	00802074 	movhi	r2,129
  8010a8:	109c7d04 	addi	r2,r2,29172
  8010ac:	1080010b 	ldhu	r2,4(r2)
  8010b0:	10bfffcc 	andi	r2,r2,65535
  8010b4:	1004c03a 	cmpne	r2,r2,zero
  8010b8:	1000101e 	bne	r2,zero,8010fc <Chap9_GetInterface+0x8c>
  8010bc:	00802074 	movhi	r2,129
  8010c0:	109c7d04 	addi	r2,r2,29172
  8010c4:	1080018b 	ldhu	r2,6(r2)
  8010c8:	10bfffcc 	andi	r2,r2,65535
  8010cc:	1004c03a 	cmpne	r2,r2,zero
  8010d0:	10000a1e 	bne	r2,zero,8010fc <Chap9_GetInterface+0x8c>
  8010d4:	00802074 	movhi	r2,129
  8010d8:	109c7d04 	addi	r2,r2,29172
  8010dc:	1080020b 	ldhu	r2,8(r2)
  8010e0:	10bfffcc 	andi	r2,r2,65535
  8010e4:	10800058 	cmpnei	r2,r2,1
  8010e8:	1000041e 	bne	r2,zero,8010fc <Chap9_GetInterface+0x8c>
            Chap9_SingleTransmitEP0(&ALTERNATIVE_SETTING, 1);      //txdat
  8010ec:	d1278b04 	addi	r4,gp,-25044
  8010f0:	01400044 	movi	r5,1
  8010f4:	080136c0 	call	80136c <Chap9_SingleTransmitEP0>
        Chap9_StallEP0InControlRead();

    else
    {

        if ((ControlData.DeviceRequest.wValue == 0 && ControlData.DeviceRequest.wIndex == 0 && ControlData.DeviceRequest.wLength == 1))
  8010f8:	00000106 	br	801100 <Chap9_GetInterface+0x90>
            Chap9_SingleTransmitEP0(&ALTERNATIVE_SETTING, 1);      //txdat
        else
            Chap9_StallEP0InControlRead();
  8010fc:	08013080 	call	801308 <Chap9_StallEP0InControlRead>
    }

}
  801100:	e037883a 	mov	sp,fp
  801104:	dfc00117 	ldw	ra,4(sp)
  801108:	df000017 	ldw	fp,0(sp)
  80110c:	dec00204 	addi	sp,sp,8
  801110:	f800283a 	ret

00801114 <Chap9_SetInterface>:

void Chap9_SetInterface(void)
{
  801114:	defffd04 	addi	sp,sp,-12
  801118:	dfc00215 	stw	ra,8(sp)
  80111c:	df000115 	stw	fp,4(sp)
  801120:	df000104 	addi	fp,sp,4
    UCHAR   dir = ControlData.DeviceRequest.bmRequestType & USB_REQUEST_DIR_MASK;
  801124:	00802074 	movhi	r2,129
  801128:	109c7d04 	addi	r2,r2,29172
  80112c:	10c00083 	ldbu	r3,2(r2)
  801130:	00bfe004 	movi	r2,-128
  801134:	1884703a 	and	r2,r3,r2
  801138:	e0bfff05 	stb	r2,-4(fp)

    if(dir)
  80113c:	e0bfff03 	ldbu	r2,-4(fp)
  801140:	1005003a 	cmpeq	r2,r2,zero
  801144:	1000011e 	bne	r2,zero,80114c <Chap9_SetInterface+0x38>
        Chap9_StallEP0InControlRead();
  801148:	08013080 	call	801308 <Chap9_StallEP0InControlRead>


    if(bUSBCheck_Device_State.State_bits.DEVICE_ADDRESS_STATE)
  80114c:	00802074 	movhi	r2,129
  801150:	109c6404 	addi	r2,r2,29072
  801154:	10800003 	ldbu	r2,0(r2)
  801158:	1080008c 	andi	r2,r2,2
  80115c:	10803fcc 	andi	r2,r2,255
  801160:	1005003a 	cmpeq	r2,r2,zero
  801164:	1000021e 	bne	r2,zero,801170 <Chap9_SetInterface+0x5c>
        Chap9_StallEP0InControlRead();
  801168:	08013080 	call	801308 <Chap9_StallEP0InControlRead>
  80116c:	00002406 	br	801200 <Chap9_SetInterface+0xec>


    else
    {

        if (ControlData.DeviceRequest.wValue == 0 && ControlData.DeviceRequest.wIndex == 0)
  801170:	00802074 	movhi	r2,129
  801174:	109c7d04 	addi	r2,r2,29172
  801178:	1080010b 	ldhu	r2,4(r2)
  80117c:	10bfffcc 	andi	r2,r2,65535
  801180:	1004c03a 	cmpne	r2,r2,zero
  801184:	10000b1e 	bne	r2,zero,8011b4 <Chap9_SetInterface+0xa0>
  801188:	00802074 	movhi	r2,129
  80118c:	109c7d04 	addi	r2,r2,29172
  801190:	1080018b 	ldhu	r2,6(r2)
  801194:	10bfffcc 	andi	r2,r2,65535
  801198:	1004c03a 	cmpne	r2,r2,zero
  80119c:	1000051e 	bne	r2,zero,8011b4 <Chap9_SetInterface+0xa0>
        {
            ALTERNATIVE_SETTING = 0;
  8011a0:	d0278b05 	stb	zero,-25044(gp)
            Chap9_SingleTransmitEP0(0,0);
  8011a4:	0009883a 	mov	r4,zero
  8011a8:	000b883a 	mov	r5,zero
  8011ac:	080136c0 	call	80136c <Chap9_SingleTransmitEP0>


    else
    {

        if (ControlData.DeviceRequest.wValue == 0 && ControlData.DeviceRequest.wIndex == 0)
  8011b0:	00001306 	br	801200 <Chap9_SetInterface+0xec>
        {
            ALTERNATIVE_SETTING = 0;
            Chap9_SingleTransmitEP0(0,0);
        }

        else if (ControlData.DeviceRequest.wValue == 1 && ControlData.DeviceRequest.wIndex == 0)
  8011b4:	00802074 	movhi	r2,129
  8011b8:	109c7d04 	addi	r2,r2,29172
  8011bc:	1080010b 	ldhu	r2,4(r2)
  8011c0:	10bfffcc 	andi	r2,r2,65535
  8011c4:	10800058 	cmpnei	r2,r2,1
  8011c8:	10000c1e 	bne	r2,zero,8011fc <Chap9_SetInterface+0xe8>
  8011cc:	00802074 	movhi	r2,129
  8011d0:	109c7d04 	addi	r2,r2,29172
  8011d4:	1080018b 	ldhu	r2,6(r2)
  8011d8:	10bfffcc 	andi	r2,r2,65535
  8011dc:	1004c03a 	cmpne	r2,r2,zero
  8011e0:	1000061e 	bne	r2,zero,8011fc <Chap9_SetInterface+0xe8>
        {
            ALTERNATIVE_SETTING = 1;
  8011e4:	00800044 	movi	r2,1
  8011e8:	d0a78b05 	stb	r2,-25044(gp)
            Chap9_SingleTransmitEP0(0,0);
  8011ec:	0009883a 	mov	r4,zero
  8011f0:	000b883a 	mov	r5,zero
  8011f4:	080136c0 	call	80136c <Chap9_SingleTransmitEP0>
        {
            ALTERNATIVE_SETTING = 0;
            Chap9_SingleTransmitEP0(0,0);
        }

        else if (ControlData.DeviceRequest.wValue == 1 && ControlData.DeviceRequest.wIndex == 0)
  8011f8:	00000106 	br	801200 <Chap9_SetInterface+0xec>
            ALTERNATIVE_SETTING = 1;
            Chap9_SingleTransmitEP0(0,0);
        }
        else
        {
            Chap9_StallEP0InControlWrite();
  8011fc:	08012a40 	call	8012a4 <Chap9_StallEP0InControlWrite>
        }
    }

}
  801200:	e037883a 	mov	sp,fp
  801204:	dfc00117 	ldw	ra,4(sp)
  801208:	df000017 	ldw	fp,0(sp)
  80120c:	dec00204 	addi	sp,sp,8
  801210:	f800283a 	ret

00801214 <Chap9_StallEP0>:
// *************************************************************************
// Chap9 support functions
// *************************************************************************

void Chap9_StallEP0(void)
{
  801214:	defffd04 	addi	sp,sp,-12
  801218:	dfc00215 	stw	ra,8(sp)
  80121c:	df000115 	stw	fp,4(sp)
  801220:	df000104 	addi	fp,sp,4
    UCHAR dir;
    dir = ControlData.DeviceRequest.bmRequestType & USB_REQUEST_DIR_MASK;
  801224:	00802074 	movhi	r2,129
  801228:	109c7d04 	addi	r2,r2,29172
  80122c:	10c00083 	ldbu	r3,2(r2)
  801230:	00bfe004 	movi	r2,-128
  801234:	1884703a 	and	r2,r3,r2
  801238:	e0bfff05 	stb	r2,-4(fp)
    if(dir)
  80123c:	e0bfff03 	ldbu	r2,-4(fp)
  801240:	1005003a 	cmpeq	r2,r2,zero
  801244:	1000021e 	bne	r2,zero,801250 <Chap9_StallEP0+0x3c>
    {
        Hal4D13_StallEP0InControlRead();
  801248:	0802b7c0 	call	802b7c <Hal4D13_StallEP0InControlRead>
  80124c:	00000106 	br	801254 <Chap9_StallEP0+0x40>
    }
    else
    {
        Hal4D13_StallEP0InControlWrite();
  801250:	0802b400 	call	802b40 <Hal4D13_StallEP0InControlWrite>
    }

    RaiseIRQL();
  801254:	08055a80 	call	8055a8 <disable_irq>
    if(!ControlData.Abort)
  801258:	00802074 	movhi	r2,129
  80125c:	109c7d04 	addi	r2,r2,29172
  801260:	10800003 	ldbu	r2,0(r2)
  801264:	10803fcc 	andi	r2,r2,255
  801268:	1004c03a 	cmpne	r2,r2,zero
  80126c:	1000071e 	bne	r2,zero,80128c <Chap9_StallEP0+0x78>
    {
        bD13flags.bits.DCP_state = USBFSM4DCP_STALL;
  801270:	01002074 	movhi	r4,129
  801274:	211c5b04 	addi	r4,r4,29036
  801278:	20c00017 	ldw	r3,0(r4)
  80127c:	00bc3fc4 	movi	r2,-3841
  801280:	1884703a 	and	r2,r3,r2
  801284:	1081c014 	ori	r2,r2,1792
  801288:	20800015 	stw	r2,0(r4)

    }
    LowerIRQL();
  80128c:	08055f80 	call	8055f8 <enable_irq>
}
  801290:	e037883a 	mov	sp,fp
  801294:	dfc00117 	ldw	ra,4(sp)
  801298:	df000017 	ldw	fp,0(sp)
  80129c:	dec00204 	addi	sp,sp,8
  8012a0:	f800283a 	ret

008012a4 <Chap9_StallEP0InControlWrite>:
void Chap9_StallEP0InControlWrite(void)
{
  8012a4:	defffe04 	addi	sp,sp,-8
  8012a8:	dfc00115 	stw	ra,4(sp)
  8012ac:	df000015 	stw	fp,0(sp)
  8012b0:	d839883a 	mov	fp,sp
    Hal4D13_StallEP0InControlWrite();
  8012b4:	0802b400 	call	802b40 <Hal4D13_StallEP0InControlWrite>

    RaiseIRQL();
  8012b8:	08055a80 	call	8055a8 <disable_irq>
    if(!ControlData.Abort)
  8012bc:	00802074 	movhi	r2,129
  8012c0:	109c7d04 	addi	r2,r2,29172
  8012c4:	10800003 	ldbu	r2,0(r2)
  8012c8:	10803fcc 	andi	r2,r2,255
  8012cc:	1004c03a 	cmpne	r2,r2,zero
  8012d0:	1000071e 	bne	r2,zero,8012f0 <Chap9_StallEP0InControlWrite+0x4c>
    {
        bD13flags.bits.DCP_state = USBFSM4DCP_STALL;
  8012d4:	01002074 	movhi	r4,129
  8012d8:	211c5b04 	addi	r4,r4,29036
  8012dc:	20c00017 	ldw	r3,0(r4)
  8012e0:	00bc3fc4 	movi	r2,-3841
  8012e4:	1884703a 	and	r2,r3,r2
  8012e8:	1081c014 	ori	r2,r2,1792
  8012ec:	20800015 	stw	r2,0(r4)

    }
    LowerIRQL();
  8012f0:	08055f80 	call	8055f8 <enable_irq>
}
  8012f4:	e037883a 	mov	sp,fp
  8012f8:	dfc00117 	ldw	ra,4(sp)
  8012fc:	df000017 	ldw	fp,0(sp)
  801300:	dec00204 	addi	sp,sp,8
  801304:	f800283a 	ret

00801308 <Chap9_StallEP0InControlRead>:

void Chap9_StallEP0InControlRead(void)
{
  801308:	defffe04 	addi	sp,sp,-8
  80130c:	dfc00115 	stw	ra,4(sp)
  801310:	df000015 	stw	fp,0(sp)
  801314:	d839883a 	mov	fp,sp
    Hal4D13_StallEP0InControlRead();
  801318:	0802b7c0 	call	802b7c <Hal4D13_StallEP0InControlRead>
    RaiseIRQL();
  80131c:	08055a80 	call	8055a8 <disable_irq>
    if(!ControlData.Abort)
  801320:	00802074 	movhi	r2,129
  801324:	109c7d04 	addi	r2,r2,29172
  801328:	10800003 	ldbu	r2,0(r2)
  80132c:	10803fcc 	andi	r2,r2,255
  801330:	1004c03a 	cmpne	r2,r2,zero
  801334:	1000071e 	bne	r2,zero,801354 <Chap9_StallEP0InControlRead+0x4c>
    {
        bD13flags.bits.DCP_state = USBFSM4DCP_STALL;
  801338:	01002074 	movhi	r4,129
  80133c:	211c5b04 	addi	r4,r4,29036
  801340:	20c00017 	ldw	r3,0(r4)
  801344:	00bc3fc4 	movi	r2,-3841
  801348:	1884703a 	and	r2,r3,r2
  80134c:	1081c014 	ori	r2,r2,1792
  801350:	20800015 	stw	r2,0(r4)

    }
    LowerIRQL();
  801354:	08055f80 	call	8055f8 <enable_irq>
}
  801358:	e037883a 	mov	sp,fp
  80135c:	dfc00117 	ldw	ra,4(sp)
  801360:	df000017 	ldw	fp,0(sp)
  801364:	dec00204 	addi	sp,sp,8
  801368:	f800283a 	ret

0080136c <Chap9_SingleTransmitEP0>:

void Chap9_SingleTransmitEP0(PUCHAR buf, USHORT len)
{
  80136c:	defffc04 	addi	sp,sp,-16
  801370:	dfc00315 	stw	ra,12(sp)
  801374:	df000215 	stw	fp,8(sp)
  801378:	df000204 	addi	fp,sp,8
  80137c:	e13ffe15 	stw	r4,-8(fp)
  801380:	e17fff0d 	sth	r5,-4(fp)

    Hal4D13_SingleTransmitEP0(buf, len);
  801384:	e17fff0b 	ldhu	r5,-4(fp)
  801388:	e13ffe17 	ldw	r4,-8(fp)
  80138c:	08029900 	call	802990 <Hal4D13_SingleTransmitEP0>

    RaiseIRQL();
  801390:	08055a80 	call	8055a8 <disable_irq>
    if(!ControlData.Abort)
  801394:	00802074 	movhi	r2,129
  801398:	109c7d04 	addi	r2,r2,29172
  80139c:	10800003 	ldbu	r2,0(r2)
  8013a0:	10803fcc 	andi	r2,r2,255
  8013a4:	1004c03a 	cmpne	r2,r2,zero
  8013a8:	1000111e 	bne	r2,zero,8013f0 <Chap9_SingleTransmitEP0+0x84>
    {
        ControlData.wLength = ControlData.wCount = len;
  8013ac:	00c02074 	movhi	r3,129
  8013b0:	18dc7d04 	addi	r3,r3,29172
  8013b4:	e0bfff0b 	ldhu	r2,-4(fp)
  8013b8:	1880030d 	sth	r2,12(r3)
  8013bc:	00802074 	movhi	r2,129
  8013c0:	109c7d04 	addi	r2,r2,29172
  8013c4:	10c0030b 	ldhu	r3,12(r2)
  8013c8:	00802074 	movhi	r2,129
  8013cc:	109c7d04 	addi	r2,r2,29172
  8013d0:	10c0028d 	sth	r3,10(r2)
        bD13flags.bits.DCP_state = USBFSM4DCP_HANDSHAKE;
  8013d4:	01002074 	movhi	r4,129
  8013d8:	211c5b04 	addi	r4,r4,29036
  8013dc:	20c00017 	ldw	r3,0(r4)
  8013e0:	00bc3fc4 	movi	r2,-3841
  8013e4:	1884703a 	and	r2,r3,r2
  8013e8:	10810014 	ori	r2,r2,1024
  8013ec:	20800015 	stw	r2,0(r4)

    }
    LowerIRQL();
  8013f0:	08055f80 	call	8055f8 <enable_irq>
}
  8013f4:	e037883a 	mov	sp,fp
  8013f8:	dfc00117 	ldw	ra,4(sp)
  8013fc:	df000017 	ldw	fp,0(sp)
  801400:	dec00204 	addi	sp,sp,8
  801404:	f800283a 	ret

00801408 <Chap9_BurstTransmitEP0>:

void Chap9_BurstTransmitEP0(PUCHAR pData, USHORT len)
{
  801408:	defffc04 	addi	sp,sp,-16
  80140c:	dfc00315 	stw	ra,12(sp)
  801410:	df000215 	stw	fp,8(sp)
  801414:	df000204 	addi	fp,sp,8
  801418:	e13ffe15 	stw	r4,-8(fp)
  80141c:	e17fff0d 	sth	r5,-4(fp)
    ControlData.wCount = 0;
  801420:	00802074 	movhi	r2,129
  801424:	109c7d04 	addi	r2,r2,29172
  801428:	1000030d 	sth	zero,12(r2)
    if(ControlData.wLength > len)
  80142c:	00802074 	movhi	r2,129
  801430:	109c7d04 	addi	r2,r2,29172
  801434:	1080028b 	ldhu	r2,10(r2)
  801438:	10ffffcc 	andi	r3,r2,65535
  80143c:	e0bfff0b 	ldhu	r2,-4(fp)
  801440:	10c0042e 	bgeu	r2,r3,801454 <Chap9_BurstTransmitEP0+0x4c>
        ControlData.wLength = len;
  801444:	00c02074 	movhi	r3,129
  801448:	18dc7d04 	addi	r3,r3,29172
  80144c:	e0bfff0b 	ldhu	r2,-4(fp)
  801450:	1880028d 	sth	r2,10(r3)

    ControlData.Addr.pData = pData;
  801454:	00c02074 	movhi	r3,129
  801458:	18dc7d04 	addi	r3,r3,29172
  80145c:	e0bffe17 	ldw	r2,-8(fp)
  801460:	18800415 	stw	r2,16(r3)

        if( ControlData.wLength >= EP0_PACKET_SIZE)
  801464:	00802074 	movhi	r2,129
  801468:	109c7d04 	addi	r2,r2,29172
  80146c:	1080028b 	ldhu	r2,10(r2)
  801470:	10bfffcc 	andi	r2,r2,65535
  801474:	10801030 	cmpltui	r2,r2,64
  801478:	10001c1e 	bne	r2,zero,8014ec <Chap9_BurstTransmitEP0+0xe4>
        {
            Hal4D13_WriteEndpoint(EPINDEX4EP0_CONTROL_IN, pData, EP0_PACKET_SIZE);
  80147c:	01000044 	movi	r4,1
  801480:	e17ffe17 	ldw	r5,-8(fp)
  801484:	01801004 	movi	r6,64
  801488:	08021a40 	call	8021a4 <Hal4D13_WriteEndpoint>

            RaiseIRQL();
  80148c:	08055a80 	call	8055a8 <disable_irq>
            if(!ControlData.Abort)
  801490:	00802074 	movhi	r2,129
  801494:	109c7d04 	addi	r2,r2,29172
  801498:	10800003 	ldbu	r2,0(r2)
  80149c:	10803fcc 	andi	r2,r2,255
  8014a0:	1004c03a 	cmpne	r2,r2,zero
  8014a4:	10000f1e 	bne	r2,zero,8014e4 <Chap9_BurstTransmitEP0+0xdc>
            {
                ControlData.wCount += EP0_PACKET_SIZE;
  8014a8:	00802074 	movhi	r2,129
  8014ac:	109c7d04 	addi	r2,r2,29172
  8014b0:	1080030b 	ldhu	r2,12(r2)
  8014b4:	10801004 	addi	r2,r2,64
  8014b8:	1007883a 	mov	r3,r2
  8014bc:	00802074 	movhi	r2,129
  8014c0:	109c7d04 	addi	r2,r2,29172
  8014c4:	10c0030d 	sth	r3,12(r2)
                bD13flags.bits.DCP_state = USBFSM4DCP_DATAIN;
  8014c8:	01002074 	movhi	r4,129
  8014cc:	211c5b04 	addi	r4,r4,29036
  8014d0:	20c00017 	ldw	r3,0(r4)
  8014d4:	00bc3fc4 	movi	r2,-3841
  8014d8:	1884703a 	and	r2,r3,r2
  8014dc:	10804014 	ori	r2,r2,256
  8014e0:	20800015 	stw	r2,0(r4)

            }
            LowerIRQL();
  8014e4:	08055f80 	call	8055f8 <enable_irq>
  8014e8:	00002106 	br	801570 <Chap9_BurstTransmitEP0+0x168>
        }
        else
        {
            Hal4D13_WriteEndpoint(EPINDEX4EP0_CONTROL_IN, pData, ControlData.wLength);
  8014ec:	00802074 	movhi	r2,129
  8014f0:	109c7d04 	addi	r2,r2,29172
  8014f4:	1080028b 	ldhu	r2,10(r2)
  8014f8:	11bfffcc 	andi	r6,r2,65535
  8014fc:	01000044 	movi	r4,1
  801500:	e17ffe17 	ldw	r5,-8(fp)
  801504:	08021a40 	call	8021a4 <Hal4D13_WriteEndpoint>

            RaiseIRQL();
  801508:	08055a80 	call	8055a8 <disable_irq>
            if(!ControlData.Abort)
  80150c:	00802074 	movhi	r2,129
  801510:	109c7d04 	addi	r2,r2,29172
  801514:	10800003 	ldbu	r2,0(r2)
  801518:	10803fcc 	andi	r2,r2,255
  80151c:	1004c03a 	cmpne	r2,r2,zero
  801520:	1000121e 	bne	r2,zero,80156c <Chap9_BurstTransmitEP0+0x164>
            {
                ControlData.wCount += ControlData.wLength;
  801524:	00802074 	movhi	r2,129
  801528:	109c7d04 	addi	r2,r2,29172
  80152c:	10c0030b 	ldhu	r3,12(r2)
  801530:	00802074 	movhi	r2,129
  801534:	109c7d04 	addi	r2,r2,29172
  801538:	1080028b 	ldhu	r2,10(r2)
  80153c:	1885883a 	add	r2,r3,r2
  801540:	1007883a 	mov	r3,r2
  801544:	00802074 	movhi	r2,129
  801548:	109c7d04 	addi	r2,r2,29172
  80154c:	10c0030d 	sth	r3,12(r2)
                bD13flags.bits.DCP_state = USBFSM4DCP_HANDSHAKE;
  801550:	01002074 	movhi	r4,129
  801554:	211c5b04 	addi	r4,r4,29036
  801558:	20c00017 	ldw	r3,0(r4)
  80155c:	00bc3fc4 	movi	r2,-3841
  801560:	1884703a 	and	r2,r3,r2
  801564:	10810014 	ori	r2,r2,1024
  801568:	20800015 	stw	r2,0(r4)

            }
            LowerIRQL();
  80156c:	08055f80 	call	8055f8 <enable_irq>
        }
}
  801570:	e037883a 	mov	sp,fp
  801574:	dfc00117 	ldw	ra,4(sp)
  801578:	df000017 	ldw	fp,0(sp)
  80157c:	dec00204 	addi	sp,sp,8
  801580:	f800283a 	ret

00801584 <D13Bus_ControlEntry>:
// *************************************************************************
// Subroutines
// *************************************************************************

void D13Bus_ControlEntry(void)
{
  801584:	defffe04 	addi	sp,sp,-8
  801588:	dfc00115 	stw	ra,4(sp)
  80158c:	df000015 	stw	fp,0(sp)
  801590:	d839883a 	mov	fp,sp
    // No support now, just stall it.
    D13Bus_StallEP0();
  801594:	080190c0 	call	80190c <D13Bus_StallEP0>
}
  801598:	e037883a 	mov	sp,fp
  80159c:	dfc00117 	ldw	ra,4(sp)
  8015a0:	df000017 	ldw	fp,0(sp)
  8015a4:	dec00204 	addi	sp,sp,8
  8015a8:	f800283a 	ret

008015ac <reserved>:

void reserved(void)
{
  8015ac:	defffe04 	addi	sp,sp,-8
  8015b0:	dfc00115 	stw	ra,4(sp)
  8015b4:	df000015 	stw	fp,0(sp)
  8015b8:	d839883a 	mov	fp,sp
    // Undefined commands, stall them
    D13Bus_StallEP0();
  8015bc:	080190c0 	call	80190c <D13Bus_StallEP0>
}
  8015c0:	e037883a 	mov	sp,fp
  8015c4:	dfc00117 	ldw	ra,4(sp)
  8015c8:	df000017 	ldw	fp,0(sp)
  8015cc:	dec00204 	addi	sp,sp,8
  8015d0:	f800283a 	ret

008015d4 <read_write_register>:

void read_write_register(void)
{
  8015d4:	defffd04 	addi	sp,sp,-12
  8015d8:	dfc00215 	stw	ra,8(sp)
  8015dc:	df000115 	stw	fp,4(sp)
  8015e0:	df000104 	addi	fp,sp,4
    unsigned char i;

    if(ControlData.DeviceRequest.bmRequestType & (unsigned char)USB_ENDPOINT_DIRECTION_MASK)
  8015e4:	00802074 	movhi	r2,129
  8015e8:	109c7d04 	addi	r2,r2,29172
  8015ec:	10800083 	ldbu	r2,2(r2)
  8015f0:	10803fcc 	andi	r2,r2,255
  8015f4:	1080201c 	xori	r2,r2,128
  8015f8:	10bfe004 	addi	r2,r2,-128
  8015fc:	1004403a 	cmpge	r2,r2,zero
  801600:	10002e1e 	bne	r2,zero,8016bc <read_write_register+0xe8>
    {
        if(bD13flags.bits.verbose)
  801604:	00802074 	movhi	r2,129
  801608:	109c5b04 	addi	r2,r2,29036
  80160c:	10800017 	ldw	r2,0(r2)
  801610:	1080402c 	andhi	r2,r2,256
  801614:	1005003a 	cmpeq	r2,r2,zero
  801618:	10000f1e 	bne	r2,zero,801658 <read_write_register+0x84>
        {
            printf("Read Registers: Offset = 0x%x, Length = 0x%x, Index = 0x%x.\n",
  80161c:	00802074 	movhi	r2,129
  801620:	109c7d04 	addi	r2,r2,29172
  801624:	1080010b 	ldhu	r2,4(r2)
  801628:	117fffcc 	andi	r5,r2,65535
  80162c:	00802074 	movhi	r2,129
  801630:	109c7d04 	addi	r2,r2,29172
  801634:	1080020b 	ldhu	r2,8(r2)
  801638:	11bfffcc 	andi	r6,r2,65535
  80163c:	00802074 	movhi	r2,129
  801640:	109c7d04 	addi	r2,r2,29172
  801644:	1080018b 	ldhu	r2,6(r2)
  801648:	11ffffcc 	andi	r7,r2,65535
  80164c:	01002074 	movhi	r4,129
  801650:	2109fe04 	addi	r4,r4,10232
  801654:	08063e00 	call	8063e0 <printf>
                ControlData.DeviceRequest.wValue,
                ControlData.DeviceRequest.wLength,
                ControlData.DeviceRequest.wIndex);
        }

        if(ControlData.DeviceRequest.wIndex == GET_FIRMWARE_VERSION &&
  801658:	00802074 	movhi	r2,129
  80165c:	109c7d04 	addi	r2,r2,29172
  801660:	1080018b 	ldhu	r2,6(r2)
  801664:	10bfffcc 	andi	r2,r2,65535
  801668:	10811c98 	cmpnei	r2,r2,1138
  80166c:	10000e1e 	bne	r2,zero,8016a8 <read_write_register+0xd4>
  801670:	00802074 	movhi	r2,129
  801674:	109c7d04 	addi	r2,r2,29172
  801678:	1080010b 	ldhu	r2,4(r2)
  80167c:	10bfffcc 	andi	r2,r2,65535
  801680:	1004c03a 	cmpne	r2,r2,zero
  801684:	1000081e 	bne	r2,zero,8016a8 <read_write_register+0xd4>
  801688:	00802074 	movhi	r2,129
  80168c:	109c7d04 	addi	r2,r2,29172
  801690:	1080020b 	ldhu	r2,8(r2)
  801694:	10bfffcc 	andi	r2,r2,65535
  801698:	10800058 	cmpnei	r2,r2,1
  80169c:	1000021e 	bne	r2,zero,8016a8 <read_write_register+0xd4>
            ControlData.DeviceRequest.wValue == 0 &&
            ControlData.DeviceRequest.wLength == 1)
            {
                get_firmware_version();
  8016a0:	08018d40 	call	8018d4 <get_firmware_version>
                ControlData.DeviceRequest.wValue,
                ControlData.DeviceRequest.wLength,
                ControlData.DeviceRequest.wIndex);
        }

        if(ControlData.DeviceRequest.wIndex == GET_FIRMWARE_VERSION &&
  8016a4:	00004a06 	br	8017d0 <read_write_register+0x1fc>
            {
                get_firmware_version();
            }
        else
        {
            Chap9_StallEP0();
  8016a8:	08012140 	call	801214 <Chap9_StallEP0>
            printf("stall: get firmware version\n");
  8016ac:	01002074 	movhi	r4,129
  8016b0:	210a0e04 	addi	r4,r4,10296
  8016b4:	080651c0 	call	80651c <puts>
  8016b8:	00004506 	br	8017d0 <read_write_register+0x1fc>
        }

    }
    else
    {
        if(bD13flags.bits.verbose)
  8016bc:	00802074 	movhi	r2,129
  8016c0:	109c5b04 	addi	r2,r2,29036
  8016c4:	10800017 	ldw	r2,0(r2)
  8016c8:	1080402c 	andhi	r2,r2,256
  8016cc:	1005003a 	cmpeq	r2,r2,zero
  8016d0:	10002a1e 	bne	r2,zero,80177c <read_write_register+0x1a8>
        {

            printf("Write Registers: Offset = 0x%x, Length = 0x%x, Index = 0x%x.\n",
  8016d4:	00802074 	movhi	r2,129
  8016d8:	109c7d04 	addi	r2,r2,29172
  8016dc:	1080010b 	ldhu	r2,4(r2)
  8016e0:	117fffcc 	andi	r5,r2,65535
  8016e4:	00802074 	movhi	r2,129
  8016e8:	109c7d04 	addi	r2,r2,29172
  8016ec:	1080020b 	ldhu	r2,8(r2)
  8016f0:	11bfffcc 	andi	r6,r2,65535
  8016f4:	00802074 	movhi	r2,129
  8016f8:	109c7d04 	addi	r2,r2,29172
  8016fc:	1080018b 	ldhu	r2,6(r2)
  801700:	11ffffcc 	andi	r7,r2,65535
  801704:	01002074 	movhi	r4,129
  801708:	210a1504 	addi	r4,r4,10324
  80170c:	08063e00 	call	8063e0 <printf>
                ControlData.DeviceRequest.wValue,
                ControlData.DeviceRequest.wLength,
                ControlData.DeviceRequest.wIndex);

            printf("Data: ");
  801710:	01002074 	movhi	r4,129
  801714:	210a2504 	addi	r4,r4,10388
  801718:	08063e00 	call	8063e0 <printf>
            for(i = 0; i < ControlData.DeviceRequest.wLength; i ++)
  80171c:	e03fff05 	stb	zero,-4(fp)
  801720:	00000d06 	br	801758 <read_write_register+0x184>
                printf("0x%x, ", *((ControlData.dataBuffer)+i));
  801724:	e0bfff03 	ldbu	r2,-4(fp)
  801728:	1007883a 	mov	r3,r2
  80172c:	00802074 	movhi	r2,129
  801730:	109c8204 	addi	r2,r2,29192
  801734:	1885883a 	add	r2,r3,r2
  801738:	10800003 	ldbu	r2,0(r2)
  80173c:	11403fcc 	andi	r5,r2,255
  801740:	01002074 	movhi	r4,129
  801744:	210a2704 	addi	r4,r4,10396
  801748:	08063e00 	call	8063e0 <printf>
                ControlData.DeviceRequest.wValue,
                ControlData.DeviceRequest.wLength,
                ControlData.DeviceRequest.wIndex);

            printf("Data: ");
            for(i = 0; i < ControlData.DeviceRequest.wLength; i ++)
  80174c:	e0bfff03 	ldbu	r2,-4(fp)
  801750:	10800044 	addi	r2,r2,1
  801754:	e0bfff05 	stb	r2,-4(fp)
  801758:	e0ffff03 	ldbu	r3,-4(fp)
  80175c:	00802074 	movhi	r2,129
  801760:	109c7d04 	addi	r2,r2,29172
  801764:	1080020b 	ldhu	r2,8(r2)
  801768:	18ffffcc 	andi	r3,r3,65535
  80176c:	10bfffcc 	andi	r2,r2,65535
  801770:	18bfec36 	bltu	r3,r2,801724 <read_write_register+0x150>
                printf("0x%x, ", *((ControlData.dataBuffer)+i));
            printf("\n");
  801774:	01000284 	movi	r4,10
  801778:	08064580 	call	806458 <putchar>
        }

        if(ControlData.DeviceRequest.wIndex == SETUP_DMA_REQUEST &&
  80177c:	00802074 	movhi	r2,129
  801780:	109c7d04 	addi	r2,r2,29172
  801784:	1080018b 	ldhu	r2,6(r2)
  801788:	10bfffcc 	andi	r2,r2,65535
  80178c:	10811c58 	cmpnei	r2,r2,1137
  801790:	10000f1e 	bne	r2,zero,8017d0 <read_write_register+0x1fc>
  801794:	00802074 	movhi	r2,129
  801798:	109c7d04 	addi	r2,r2,29172
  80179c:	1080010b 	ldhu	r2,4(r2)
  8017a0:	10bfffcc 	andi	r2,r2,65535
  8017a4:	1004c03a 	cmpne	r2,r2,zero
  8017a8:	1000091e 	bne	r2,zero,8017d0 <read_write_register+0x1fc>
  8017ac:	00802074 	movhi	r2,129
  8017b0:	109c7d04 	addi	r2,r2,29172
  8017b4:	1080020b 	ldhu	r2,8(r2)
  8017b8:	10bfffcc 	andi	r2,r2,65535
  8017bc:	10800198 	cmpnei	r2,r2,6
  8017c0:	1000031e 	bne	r2,zero,8017d0 <read_write_register+0x1fc>
            ControlData.DeviceRequest.wValue == 0 &&
            ControlData.DeviceRequest.wLength == 6)
            {
                RaiseIRQL();
  8017c4:	08055a80 	call	8055a8 <disable_irq>
                setup_dma_request();
  8017c8:	08017e40 	call	8017e4 <setup_dma_request>
                LowerIRQL();
  8017cc:	08055f80 	call	8055f8 <enable_irq>
            }

    }
}
  8017d0:	e037883a 	mov	sp,fp
  8017d4:	dfc00117 	ldw	ra,4(sp)
  8017d8:	df000017 	ldw	fp,0(sp)
  8017dc:	dec00204 	addi	sp,sp,8
  8017e0:	f800283a 	ret

008017e4 <setup_dma_request>:

void setup_dma_request()
{
  8017e4:	defffe04 	addi	sp,sp,-8
  8017e8:	dfc00115 	stw	ra,4(sp)
  8017ec:	df000015 	stw	fp,0(sp)
  8017f0:	d839883a 	mov	fp,sp
    memcpy((unsigned char *)&ioRequest + ControlData.DeviceRequest.wValue,
  8017f4:	00802074 	movhi	r2,129
  8017f8:	109c7d04 	addi	r2,r2,29172
  8017fc:	1080010b 	ldhu	r2,4(r2)
  801800:	10bfffcc 	andi	r2,r2,65535
  801804:	1007883a 	mov	r3,r2
  801808:	00802074 	movhi	r2,129
  80180c:	109c5f04 	addi	r2,r2,29052
  801810:	1887883a 	add	r3,r3,r2
  801814:	00802074 	movhi	r2,129
  801818:	109c7d04 	addi	r2,r2,29172
  80181c:	1080020b 	ldhu	r2,8(r2)
  801820:	11bfffcc 	andi	r6,r2,65535
  801824:	00802074 	movhi	r2,129
  801828:	109c8204 	addi	r2,r2,29192
  80182c:	1809883a 	mov	r4,r3
  801830:	100b883a 	mov	r5,r2
  801834:	08063400 	call	806340 <memcpy>
        ControlData.dataBuffer,
        ControlData.DeviceRequest.wLength);

    ioRequest.uSize = SWAP(ioRequest.uSize);
  801838:	00802074 	movhi	r2,129
  80183c:	109c5f04 	addi	r2,r2,29052
  801840:	10c0010b 	ldhu	r3,4(r2)
  801844:	00802074 	movhi	r2,129
  801848:	109c5f04 	addi	r2,r2,29052
  80184c:	10c0010d 	sth	r3,4(r2)
    ioRequest.uAddressL = SWAP(ioRequest.uAddressL);
  801850:	00802074 	movhi	r2,129
  801854:	109c5f04 	addi	r2,r2,29052
  801858:	10c0000b 	ldhu	r3,0(r2)
  80185c:	00802074 	movhi	r2,129
  801860:	109c5f04 	addi	r2,r2,29052
  801864:	10c0000d 	sth	r3,0(r2)
    printf("Setup Data: addL, addH, uSize =%x, %x, %x \n", \
  801868:	00802074 	movhi	r2,129
  80186c:	109c5f04 	addi	r2,r2,29052
  801870:	1080000b 	ldhu	r2,0(r2)
  801874:	117fffcc 	andi	r5,r2,65535
  801878:	00802074 	movhi	r2,129
  80187c:	109c5f04 	addi	r2,r2,29052
  801880:	10800083 	ldbu	r2,2(r2)
  801884:	11803fcc 	andi	r6,r2,255
  801888:	00802074 	movhi	r2,129
  80188c:	109c5f04 	addi	r2,r2,29052
  801890:	1080010b 	ldhu	r2,4(r2)
  801894:	11ffffcc 	andi	r7,r2,65535
  801898:	01002074 	movhi	r4,129
  80189c:	210a2904 	addi	r4,r4,10404
  8018a0:	08063e00 	call	8063e0 <printf>
        Chap9_StallEP0();
        printf("stall: ioRequest.uSize > DMA_BUFFER_SIZE.\n");
    }
    else
    {
        RaiseIRQL();
  8018a4:	08055a80 	call	8055a8 <disable_irq>
        bD13flags.bits.setup_dma = 1;
  8018a8:	00c02074 	movhi	r3,129
  8018ac:	18dc5b04 	addi	r3,r3,29036
  8018b0:	18800017 	ldw	r2,0(r3)
  8018b4:	10800074 	orhi	r2,r2,1
  8018b8:	18800015 	stw	r2,0(r3)
        LowerIRQL();
  8018bc:	08055f80 	call	8055f8 <enable_irq>
    }
}
  8018c0:	e037883a 	mov	sp,fp
  8018c4:	dfc00117 	ldw	ra,4(sp)
  8018c8:	df000017 	ldw	fp,0(sp)
  8018cc:	dec00204 	addi	sp,sp,8
  8018d0:	f800283a 	ret

008018d4 <get_firmware_version>:

void get_firmware_version()
{
  8018d4:	defffd04 	addi	sp,sp,-12
  8018d8:	dfc00215 	stw	ra,8(sp)
  8018dc:	df000115 	stw	fp,4(sp)
  8018e0:	df000104 	addi	fp,sp,4
    unsigned char i;

    i = 0x01; 
  8018e4:	00800044 	movi	r2,1
  8018e8:	e0bfff05 	stb	r2,-4(fp)
    D13Bus_SingleTransmitEP0(&i, 1);
  8018ec:	e13fff04 	addi	r4,fp,-4
  8018f0:	01400044 	movi	r5,1
  8018f4:	08019340 	call	801934 <D13Bus_SingleTransmitEP0>
}
  8018f8:	e037883a 	mov	sp,fp
  8018fc:	dfc00117 	ldw	ra,4(sp)
  801900:	df000017 	ldw	fp,0(sp)
  801904:	dec00204 	addi	sp,sp,8
  801908:	f800283a 	ret

0080190c <D13Bus_StallEP0>:
// *************************************************************************
// D13Bus support functions
// *************************************************************************

void D13Bus_StallEP0(void)
{
  80190c:	defffe04 	addi	sp,sp,-8
  801910:	dfc00115 	stw	ra,4(sp)
  801914:	df000015 	stw	fp,0(sp)
  801918:	d839883a 	mov	fp,sp
    Chap9_StallEP0();
  80191c:	08012140 	call	801214 <Chap9_StallEP0>
}
  801920:	e037883a 	mov	sp,fp
  801924:	dfc00117 	ldw	ra,4(sp)
  801928:	df000017 	ldw	fp,0(sp)
  80192c:	dec00204 	addi	sp,sp,8
  801930:	f800283a 	ret

00801934 <D13Bus_SingleTransmitEP0>:

void D13Bus_SingleTransmitEP0(UCHAR * buf, UCHAR len)
{
  801934:	defffc04 	addi	sp,sp,-16
  801938:	dfc00315 	stw	ra,12(sp)
  80193c:	df000215 	stw	fp,8(sp)
  801940:	df000204 	addi	fp,sp,8
  801944:	e13ffe15 	stw	r4,-8(fp)
  801948:	e17fff05 	stb	r5,-4(fp)
    Hal4D13_SingleTransmitEP0(buf, len);
  80194c:	e17fff03 	ldbu	r5,-4(fp)
  801950:	e13ffe17 	ldw	r4,-8(fp)
  801954:	08029900 	call	802990 <Hal4D13_SingleTransmitEP0>

    RaiseIRQL();
  801958:	08055a80 	call	8055a8 <disable_irq>
    if(!ControlData.Abort)
  80195c:	00802074 	movhi	r2,129
  801960:	109c7d04 	addi	r2,r2,29172
  801964:	10800003 	ldbu	r2,0(r2)
  801968:	10803fcc 	andi	r2,r2,255
  80196c:	1004c03a 	cmpne	r2,r2,zero
  801970:	1000111e 	bne	r2,zero,8019b8 <D13Bus_SingleTransmitEP0+0x84>
    {
        ControlData.wLength = ControlData.wCount = len;
  801974:	e0ffff03 	ldbu	r3,-4(fp)
  801978:	00802074 	movhi	r2,129
  80197c:	109c7d04 	addi	r2,r2,29172
  801980:	10c0030d 	sth	r3,12(r2)
  801984:	00802074 	movhi	r2,129
  801988:	109c7d04 	addi	r2,r2,29172
  80198c:	10c0030b 	ldhu	r3,12(r2)
  801990:	00802074 	movhi	r2,129
  801994:	109c7d04 	addi	r2,r2,29172
  801998:	10c0028d 	sth	r3,10(r2)
        bD13flags.bits.DCP_state = USBFSM4DCP_HANDSHAKE;
  80199c:	01002074 	movhi	r4,129
  8019a0:	211c5b04 	addi	r4,r4,29036
  8019a4:	20c00017 	ldw	r3,0(r4)
  8019a8:	00bc3fc4 	movi	r2,-3841
  8019ac:	1884703a 	and	r2,r3,r2
  8019b0:	10810014 	ori	r2,r2,1024
  8019b4:	20800015 	stw	r2,0(r4)
    }
    LowerIRQL();
  8019b8:	08055f80 	call	8055f8 <enable_irq>

}
  8019bc:	e037883a 	mov	sp,fp
  8019c0:	dfc00117 	ldw	ra,4(sp)
  8019c4:	df000017 	ldw	fp,0(sp)
  8019c8:	dec00204 	addi	sp,sp,8
  8019cc:	f800283a 	ret

008019d0 <D13Bus_BurstTransmitEP0>:

void D13Bus_BurstTransmitEP0(UCHAR * pData, USHORT len)
{
  8019d0:	defffc04 	addi	sp,sp,-16
  8019d4:	dfc00315 	stw	ra,12(sp)
  8019d8:	df000215 	stw	fp,8(sp)
  8019dc:	df000204 	addi	fp,sp,8
  8019e0:	e13ffe15 	stw	r4,-8(fp)
  8019e4:	e17fff0d 	sth	r5,-4(fp)
    ControlData.wCount = 0;
  8019e8:	00802074 	movhi	r2,129
  8019ec:	109c7d04 	addi	r2,r2,29172
  8019f0:	1000030d 	sth	zero,12(r2)
    if(ControlData.wLength > len)
  8019f4:	00802074 	movhi	r2,129
  8019f8:	109c7d04 	addi	r2,r2,29172
  8019fc:	1080028b 	ldhu	r2,10(r2)
  801a00:	10ffffcc 	andi	r3,r2,65535
  801a04:	e0bfff0b 	ldhu	r2,-4(fp)
  801a08:	10c0042e 	bgeu	r2,r3,801a1c <D13Bus_BurstTransmitEP0+0x4c>
        ControlData.wLength = len;
  801a0c:	00c02074 	movhi	r3,129
  801a10:	18dc7d04 	addi	r3,r3,29172
  801a14:	e0bfff0b 	ldhu	r2,-4(fp)
  801a18:	1880028d 	sth	r2,10(r3)

    ControlData.Addr.pData = pData;
  801a1c:	00c02074 	movhi	r3,129
  801a20:	18dc7d04 	addi	r3,r3,29172
  801a24:	e0bffe17 	ldw	r2,-8(fp)
  801a28:	18800415 	stw	r2,16(r3)
    if( ControlData.wLength >= EP0_PACKET_SIZE)
  801a2c:	00802074 	movhi	r2,129
  801a30:	109c7d04 	addi	r2,r2,29172
  801a34:	1080028b 	ldhu	r2,10(r2)
  801a38:	10bfffcc 	andi	r2,r2,65535
  801a3c:	10801030 	cmpltui	r2,r2,64
  801a40:	10001e1e 	bne	r2,zero,801abc <D13Bus_BurstTransmitEP0+0xec>
    {
        Hal4D13_WriteEndpoint(EPINDEX4EP0_CONTROL_IN, ControlData.Addr.pData, EP0_PACKET_SIZE);
  801a44:	00802074 	movhi	r2,129
  801a48:	109c7d04 	addi	r2,r2,29172
  801a4c:	11400417 	ldw	r5,16(r2)
  801a50:	01000044 	movi	r4,1
  801a54:	01801004 	movi	r6,64
  801a58:	08021a40 	call	8021a4 <Hal4D13_WriteEndpoint>
        RaiseIRQL();
  801a5c:	08055a80 	call	8055a8 <disable_irq>
        if(!ControlData.Abort)
  801a60:	00802074 	movhi	r2,129
  801a64:	109c7d04 	addi	r2,r2,29172
  801a68:	10800003 	ldbu	r2,0(r2)
  801a6c:	10803fcc 	andi	r2,r2,255
  801a70:	1004c03a 	cmpne	r2,r2,zero
  801a74:	10000f1e 	bne	r2,zero,801ab4 <D13Bus_BurstTransmitEP0+0xe4>
        {
            ControlData.wCount += EP0_PACKET_SIZE;
  801a78:	00802074 	movhi	r2,129
  801a7c:	109c7d04 	addi	r2,r2,29172
  801a80:	1080030b 	ldhu	r2,12(r2)
  801a84:	10801004 	addi	r2,r2,64
  801a88:	1007883a 	mov	r3,r2
  801a8c:	00802074 	movhi	r2,129
  801a90:	109c7d04 	addi	r2,r2,29172
  801a94:	10c0030d 	sth	r3,12(r2)
            bD13flags.bits.DCP_state = USBFSM4DCP_DATAIN;
  801a98:	01002074 	movhi	r4,129
  801a9c:	211c5b04 	addi	r4,r4,29036
  801aa0:	20c00017 	ldw	r3,0(r4)
  801aa4:	00bc3fc4 	movi	r2,-3841
  801aa8:	1884703a 	and	r2,r3,r2
  801aac:	10804014 	ori	r2,r2,256
  801ab0:	20800015 	stw	r2,0(r4)
        }

        LowerIRQL();
  801ab4:	08055f80 	call	8055f8 <enable_irq>
  801ab8:	00002106 	br	801b40 <D13Bus_BurstTransmitEP0+0x170>

    }
    else
    {
        Hal4D13_WriteEndpoint(EPINDEX4EP0_CONTROL_IN, pData, ControlData.wLength);
  801abc:	00802074 	movhi	r2,129
  801ac0:	109c7d04 	addi	r2,r2,29172
  801ac4:	1080028b 	ldhu	r2,10(r2)
  801ac8:	11bfffcc 	andi	r6,r2,65535
  801acc:	01000044 	movi	r4,1
  801ad0:	e17ffe17 	ldw	r5,-8(fp)
  801ad4:	08021a40 	call	8021a4 <Hal4D13_WriteEndpoint>
        RaiseIRQL();
  801ad8:	08055a80 	call	8055a8 <disable_irq>
        if(!ControlData.Abort)
  801adc:	00802074 	movhi	r2,129
  801ae0:	109c7d04 	addi	r2,r2,29172
  801ae4:	10800003 	ldbu	r2,0(r2)
  801ae8:	10803fcc 	andi	r2,r2,255
  801aec:	1004c03a 	cmpne	r2,r2,zero
  801af0:	1000121e 	bne	r2,zero,801b3c <D13Bus_BurstTransmitEP0+0x16c>
        {
            ControlData.wCount += ControlData.wLength;
  801af4:	00802074 	movhi	r2,129
  801af8:	109c7d04 	addi	r2,r2,29172
  801afc:	10c0030b 	ldhu	r3,12(r2)
  801b00:	00802074 	movhi	r2,129
  801b04:	109c7d04 	addi	r2,r2,29172
  801b08:	1080028b 	ldhu	r2,10(r2)
  801b0c:	1885883a 	add	r2,r3,r2
  801b10:	1007883a 	mov	r3,r2
  801b14:	00802074 	movhi	r2,129
  801b18:	109c7d04 	addi	r2,r2,29172
  801b1c:	10c0030d 	sth	r3,12(r2)
            bD13flags.bits.DCP_state = USBFSM4DCP_DATAIN;
  801b20:	01002074 	movhi	r4,129
  801b24:	211c5b04 	addi	r4,r4,29036
  801b28:	20c00017 	ldw	r3,0(r4)
  801b2c:	00bc3fc4 	movi	r2,-3841
  801b30:	1884703a 	and	r2,r3,r2
  801b34:	10804014 	ori	r2,r2,256
  801b38:	20800015 	stw	r2,0(r4)
        }
        LowerIRQL();
  801b3c:	08055f80 	call	8055f8 <enable_irq>
    }
}
  801b40:	e037883a 	mov	sp,fp
  801b44:	dfc00117 	ldw	ra,4(sp)
  801b48:	df000017 	ldw	fp,0(sp)
  801b4c:	dec00204 	addi	sp,sp,8
  801b50:	f800283a 	ret

00801b54 <Hal4D13_AcquireD13>:
// Subroutines -- 1
// ************************************************************************
*/

void Hal4D13_AcquireD13(unsigned char g_host_IRQ_num, void *usb_isr)
{
  801b54:	defffc04 	addi	sp,sp,-16
  801b58:	dfc00315 	stw	ra,12(sp)
  801b5c:	df000215 	stw	fp,8(sp)
  801b60:	df000204 	addi	fp,sp,8
  801b64:	e17fff15 	stw	r5,-4(fp)
  801b68:	e13ffe05 	stb	r4,-8(fp)
	alt_irq_register (USB_0_IRQ, NULL, usb_isr);
  801b6c:	e1bfff17 	ldw	r6,-4(fp)
  801b70:	01000084 	movi	r4,2
  801b74:	000b883a 	mov	r5,zero
  801b78:	080f9540 	call	80f954 <alt_irq_register>
}
  801b7c:	e037883a 	mov	sp,fp
  801b80:	dfc00117 	ldw	ra,4(sp)
  801b84:	df000017 	ldw	fp,0(sp)
  801b88:	dec00204 	addi	sp,sp,8
  801b8c:	f800283a 	ret

00801b90 <Hal4D13_ResetDevice>:

void Hal4D13_ResetDevice(void)
{
  801b90:	deffff04 	addi	sp,sp,-4
  801b94:	df000015 	stw	fp,0(sp)
  801b98:	d839883a 	mov	fp,sp
  IOWR(USB_0_BASE,D13_COMMAND_PORT,D13CMD_DEV_RESET);
  801b9c:	00c04474 	movhi	r3,273
  801ba0:	18e40b04 	addi	r3,r3,-28628
  801ba4:	00803d84 	movi	r2,246
  801ba8:	18800035 	stwio	r2,0(r3)
}
  801bac:	e037883a 	mov	sp,fp
  801bb0:	df000017 	ldw	fp,0(sp)
  801bb4:	dec00104 	addi	sp,sp,4
  801bb8:	f800283a 	ret

00801bbc <Hal4D13_GetDevConfig>:

USHORT Hal4D13_GetDevConfig(void)
{
  801bbc:	defffe04 	addi	sp,sp,-8
  801bc0:	df000115 	stw	fp,4(sp)
  801bc4:	df000104 	addi	fp,sp,4
  USHORT i; 
  IOWR(USB_0_BASE,D13_COMMAND_PORT,D13CMD_DEV_RD_CNFG);
  801bc8:	00c04474 	movhi	r3,273
  801bcc:	18e40b04 	addi	r3,r3,-28628
  801bd0:	00802ec4 	movi	r2,187
  801bd4:	18800035 	stwio	r2,0(r3)
  i = IORD(USB_0_BASE,D13_DATA_PORT);
  801bd8:	00804474 	movhi	r2,273
  801bdc:	10a40a04 	addi	r2,r2,-28632
  801be0:	10800037 	ldwio	r2,0(r2)
  801be4:	e0bfff0d 	sth	r2,-4(fp)
  return i;
  801be8:	e0bfff0b 	ldhu	r2,-4(fp)
}
  801bec:	e037883a 	mov	sp,fp
  801bf0:	df000017 	ldw	fp,0(sp)
  801bf4:	dec00104 	addi	sp,sp,4
  801bf8:	f800283a 	ret

00801bfc <Hal4D13_SetDevConfig>:

void Hal4D13_SetDevConfig(USHORT wDevCnfg)
{
  801bfc:	defffe04 	addi	sp,sp,-8
  801c00:	df000115 	stw	fp,4(sp)
  801c04:	df000104 	addi	fp,sp,4
  801c08:	e13fff0d 	sth	r4,-4(fp)
  IOWR(USB_0_BASE,D13_COMMAND_PORT,D13CMD_DEV_WR_CNFG);
  801c0c:	00c04474 	movhi	r3,273
  801c10:	18e40b04 	addi	r3,r3,-28628
  801c14:	00802e84 	movi	r2,186
  801c18:	18800035 	stwio	r2,0(r3)
  IOWR(USB_0_BASE,D13_DATA_PORT, wDevCnfg);
  801c1c:	e0ffff0b 	ldhu	r3,-4(fp)
  801c20:	00804474 	movhi	r2,273
  801c24:	10a40a04 	addi	r2,r2,-28632
  801c28:	10c00035 	stwio	r3,0(r2)
}
  801c2c:	e037883a 	mov	sp,fp
  801c30:	df000017 	ldw	fp,0(sp)
  801c34:	dec00104 	addi	sp,sp,4
  801c38:	f800283a 	ret

00801c3c <Hal4D13_SetMode>:

void Hal4D13_SetMode(UCHAR bMode)
{
  801c3c:	defffe04 	addi	sp,sp,-8
  801c40:	df000115 	stw	fp,4(sp)
  801c44:	df000104 	addi	fp,sp,4
  801c48:	e13fff05 	stb	r4,-4(fp)
  IOWR(USB_0_BASE,D13_COMMAND_PORT, D13CMD_DEV_WR_MODE);
  801c4c:	00c04474 	movhi	r3,273
  801c50:	18e40b04 	addi	r3,r3,-28628
  801c54:	00802e04 	movi	r2,184
  801c58:	18800035 	stwio	r2,0(r3)
  IOWR(USB_0_BASE,D13_DATA_PORT, bMode);
  801c5c:	e0ffff03 	ldbu	r3,-4(fp)
  801c60:	00804474 	movhi	r2,273
  801c64:	10a40a04 	addi	r2,r2,-28632
  801c68:	10c00035 	stwio	r3,0(r2)
}
  801c6c:	e037883a 	mov	sp,fp
  801c70:	df000017 	ldw	fp,0(sp)
  801c74:	dec00104 	addi	sp,sp,4
  801c78:	f800283a 	ret

00801c7c <Hal4D13_GetMode>:

UCHAR Hal4D13_GetMode(void)
{
  801c7c:	defffe04 	addi	sp,sp,-8
  801c80:	df000115 	stw	fp,4(sp)
  801c84:	df000104 	addi	fp,sp,4
    UCHAR c;   
  IOWR(USB_0_BASE,D13_COMMAND_PORT, D13CMD_DEV_RD_MODE);
  801c88:	00c04474 	movhi	r3,273
  801c8c:	18e40b04 	addi	r3,r3,-28628
  801c90:	00802e44 	movi	r2,185
  801c94:	18800035 	stwio	r2,0(r3)
  c = (UCHAR)(IORD(USB_0_BASE,D13_DATA_PORT) & 0x0ff);
  801c98:	00804474 	movhi	r2,273
  801c9c:	10a40a04 	addi	r2,r2,-28632
  801ca0:	10800037 	ldwio	r2,0(r2)
  801ca4:	1007883a 	mov	r3,r2
  801ca8:	00bfffc4 	movi	r2,-1
  801cac:	1884703a 	and	r2,r3,r2
  801cb0:	e0bfff05 	stb	r2,-4(fp)
    return c;
  801cb4:	e0bfff03 	ldbu	r2,-4(fp)
}
  801cb8:	e037883a 	mov	sp,fp
  801cbc:	df000017 	ldw	fp,0(sp)
  801cc0:	dec00104 	addi	sp,sp,4
  801cc4:	f800283a 	ret

00801cc8 <Hal4D13_GetAddress>:

UCHAR Hal4D13_GetAddress(void)
{
  801cc8:	defffe04 	addi	sp,sp,-8
  801ccc:	df000115 	stw	fp,4(sp)
  801cd0:	df000104 	addi	fp,sp,4
    UCHAR c; 
    IOWR(USB_0_BASE,D13_COMMAND_PORT, D13CMD_DEV_RD_ADDR);
  801cd4:	00c04474 	movhi	r3,273
  801cd8:	18e40b04 	addi	r3,r3,-28628
  801cdc:	00802dc4 	movi	r2,183
  801ce0:	18800035 	stwio	r2,0(r3)
    c = (UCHAR)(IORD(USB_0_BASE,D13_DATA_PORT) & 0x0ff);
  801ce4:	00804474 	movhi	r2,273
  801ce8:	10a40a04 	addi	r2,r2,-28632
  801cec:	10800037 	ldwio	r2,0(r2)
  801cf0:	1007883a 	mov	r3,r2
  801cf4:	00bfffc4 	movi	r2,-1
  801cf8:	1884703a 	and	r2,r3,r2
  801cfc:	e0bfff05 	stb	r2,-4(fp)
    return c;
  801d00:	e0bfff03 	ldbu	r2,-4(fp)
}
  801d04:	e037883a 	mov	sp,fp
  801d08:	df000017 	ldw	fp,0(sp)
  801d0c:	dec00104 	addi	sp,sp,4
  801d10:	f800283a 	ret

00801d14 <Hal4D13_SetAddressEnable>:

void Hal4D13_SetAddressEnable(UCHAR bAddress, UCHAR bEnable)
{
  801d14:	defffd04 	addi	sp,sp,-12
  801d18:	df000215 	stw	fp,8(sp)
  801d1c:	df000204 	addi	fp,sp,8
  801d20:	e13ffe05 	stb	r4,-8(fp)
  801d24:	e17fff05 	stb	r5,-4(fp)
  IOWR(USB_0_BASE,D13_COMMAND_PORT, D13CMD_DEV_WR_ADDR);
  801d28:	00c04474 	movhi	r3,273
  801d2c:	18e40b04 	addi	r3,r3,-28628
  801d30:	00802d84 	movi	r2,182
  801d34:	18800035 	stwio	r2,0(r3)
  if(bEnable)
  801d38:	e0bfff03 	ldbu	r2,-4(fp)
  801d3c:	1005003a 	cmpeq	r2,r2,zero
  801d40:	1000051e 	bne	r2,zero,801d58 <Hal4D13_SetAddressEnable+0x44>
  bAddress |= D13REG_DEVADDR_EN;
  801d44:	e0bffe03 	ldbu	r2,-8(fp)
  801d48:	00ffe004 	movi	r3,-128
  801d4c:	10c4b03a 	or	r2,r2,r3
  801d50:	e0bffe05 	stb	r2,-8(fp)
  801d54:	00000306 	br	801d64 <Hal4D13_SetAddressEnable+0x50>
  else
  bAddress &= D13REG_DEVADDR_MASK;
  801d58:	e0bffe03 	ldbu	r2,-8(fp)
  801d5c:	10801fcc 	andi	r2,r2,127
  801d60:	e0bffe05 	stb	r2,-8(fp)
  IOWR(USB_0_BASE,D13_DATA_PORT, bAddress);
  801d64:	e0fffe03 	ldbu	r3,-8(fp)
  801d68:	00804474 	movhi	r2,273
  801d6c:	10a40a04 	addi	r2,r2,-28632
  801d70:	10c00035 	stwio	r3,0(r2)
}
  801d74:	e037883a 	mov	sp,fp
  801d78:	df000017 	ldw	fp,0(sp)
  801d7c:	dec00104 	addi	sp,sp,4
  801d80:	f800283a 	ret

00801d84 <Hal4D13_SoftConnect>:

void Hal4D13_SoftConnect(UCHAR bEnable)
{
  801d84:	defffd04 	addi	sp,sp,-12
  801d88:	df000215 	stw	fp,8(sp)
  801d8c:	df000204 	addi	fp,sp,8
  801d90:	e13fff05 	stb	r4,-4(fp)
    UCHAR c;
  IOWR(USB_0_BASE,D13_COMMAND_PORT, D13CMD_DEV_RD_MODE);
  801d94:	00c04474 	movhi	r3,273
  801d98:	18e40b04 	addi	r3,r3,-28628
  801d9c:	00802e44 	movi	r2,185
  801da0:	18800035 	stwio	r2,0(r3)
  c = (UCHAR)(IORD(USB_0_BASE,D13_DATA_PORT) & 0x0ff);
  801da4:	00804474 	movhi	r2,273
  801da8:	10a40a04 	addi	r2,r2,-28632
  801dac:	10800037 	ldwio	r2,0(r2)
  801db0:	1007883a 	mov	r3,r2
  801db4:	00bfffc4 	movi	r2,-1
  801db8:	1884703a 	and	r2,r3,r2
  801dbc:	e0bffe05 	stb	r2,-8(fp)
  if(bEnable)
  801dc0:	e0bfff03 	ldbu	r2,-4(fp)
  801dc4:	1005003a 	cmpeq	r2,r2,zero
  801dc8:	1000041e 	bne	r2,zero,801ddc <Hal4D13_SoftConnect+0x58>
  c |= D13REG_MODE_SOFTCONNECT;
  801dcc:	e0bffe03 	ldbu	r2,-8(fp)
  801dd0:	10800054 	ori	r2,r2,1
  801dd4:	e0bffe05 	stb	r2,-8(fp)
  801dd8:	00000406 	br	801dec <Hal4D13_SoftConnect+0x68>
  else
  c &= ~D13REG_MODE_SOFTCONNECT;  
  801ddc:	e0bffe03 	ldbu	r2,-8(fp)
  801de0:	00ffff84 	movi	r3,-2
  801de4:	10c4703a 	and	r2,r2,r3
  801de8:	e0bffe05 	stb	r2,-8(fp)
    IOWR(USB_0_BASE,D13_COMMAND_PORT, D13CMD_DEV_WR_MODE);
  801dec:	00c04474 	movhi	r3,273
  801df0:	18e40b04 	addi	r3,r3,-28628
  801df4:	00802e04 	movi	r2,184
  801df8:	18800035 	stwio	r2,0(r3)
  IOWR(USB_0_BASE,D13_DATA_PORT, c);
  801dfc:	e0fffe03 	ldbu	r3,-8(fp)
  801e00:	00804474 	movhi	r2,273
  801e04:	10a40a04 	addi	r2,r2,-28632
  801e08:	10c00035 	stwio	r3,0(r2)
}
  801e0c:	e037883a 	mov	sp,fp
  801e10:	df000017 	ldw	fp,0(sp)
  801e14:	dec00104 	addi	sp,sp,4
  801e18:	f800283a 	ret

00801e1c <Hal4D13_AcknowledgeSETUP>:

void Hal4D13_AcknowledgeSETUP(void)
{
  801e1c:	deffff04 	addi	sp,sp,-4
  801e20:	df000015 	stw	fp,0(sp)
  801e24:	d839883a 	mov	fp,sp
  IOWR(USB_0_BASE,D13_COMMAND_PORT, D13CMD_ACK_SETUP);
  801e28:	00c04474 	movhi	r3,273
  801e2c:	18e40b04 	addi	r3,r3,-28628
  801e30:	00803d04 	movi	r2,244
  801e34:	18800035 	stwio	r2,0(r3)
}
  801e38:	e037883a 	mov	sp,fp
  801e3c:	df000017 	ldw	fp,0(sp)
  801e40:	dec00104 	addi	sp,sp,4
  801e44:	f800283a 	ret

00801e48 <Hal4D13_ClearBuffer>:

void Hal4D13_ClearBuffer(UCHAR bEPIndex)
{
  801e48:	defffe04 	addi	sp,sp,-8
  801e4c:	df000115 	stw	fp,4(sp)
  801e50:	df000104 	addi	fp,sp,4
  801e54:	e13fff05 	stb	r4,-4(fp)
  /* Select Endpoint */
    IOWR(USB_0_BASE,D13_COMMAND_PORT, D13CMD_EP_CLEAR_BUF + bEPIndex);
  801e58:	e0bfff03 	ldbu	r2,-4(fp)
  801e5c:	10c01c04 	addi	r3,r2,112
  801e60:	00804474 	movhi	r2,273
  801e64:	10a40b04 	addi	r2,r2,-28628
  801e68:	10c00035 	stwio	r3,0(r2)
}
  801e6c:	e037883a 	mov	sp,fp
  801e70:	df000017 	ldw	fp,0(sp)
  801e74:	dec00104 	addi	sp,sp,4
  801e78:	f800283a 	ret

00801e7c <Hal4D13_ValidBuffer>:

void Hal4D13_ValidBuffer(UCHAR bEPIndex)
{
  801e7c:	defffe04 	addi	sp,sp,-8
  801e80:	df000115 	stw	fp,4(sp)
  801e84:	df000104 	addi	fp,sp,4
  801e88:	e13fff05 	stb	r4,-4(fp)
    IOWR(USB_0_BASE,D13_COMMAND_PORT, D13CMD_EP_VALID_BUF + bEPIndex);
  801e8c:	e0bfff03 	ldbu	r2,-4(fp)
  801e90:	10c01804 	addi	r3,r2,96
  801e94:	00804474 	movhi	r2,273
  801e98:	10a40b04 	addi	r2,r2,-28628
  801e9c:	10c00035 	stwio	r3,0(r2)
}
  801ea0:	e037883a 	mov	sp,fp
  801ea4:	df000017 	ldw	fp,0(sp)
  801ea8:	dec00104 	addi	sp,sp,4
  801eac:	f800283a 	ret

00801eb0 <Hal4D13_ReadEndpoint>:

USHORT Hal4D13_ReadEndpoint(UCHAR bEPIndex, UCHAR *buf, USHORT len)
{
  801eb0:	defffa04 	addi	sp,sp,-24
  801eb4:	df000515 	stw	fp,20(sp)
  801eb8:	df000504 	addi	fp,sp,20
  801ebc:	e17ffe15 	stw	r5,-8(fp)
  801ec0:	e13ffd05 	stb	r4,-12(fp)
  801ec4:	e1bfff0d 	sth	r6,-4(fp)
    USHORT i, j, c;
    IOWR(USB_0_BASE,D13_COMMAND_PORT, D13CMD_EP_RD_FIFO + bEPIndex);
  801ec8:	e0bffd03 	ldbu	r2,-12(fp)
  801ecc:	10c00404 	addi	r3,r2,16
  801ed0:	00804474 	movhi	r2,273
  801ed4:	10a40b04 	addi	r2,r2,-28628
  801ed8:	10c00035 	stwio	r3,0(r2)
    /* read Buffer */
    j = IORD(USB_0_BASE,D13_DATA_PORT);
  801edc:	00804474 	movhi	r2,273
  801ee0:	10a40a04 	addi	r2,r2,-28632
  801ee4:	10800037 	ldwio	r2,0(r2)
  801ee8:	e0bffb8d 	sth	r2,-18(fp)
    if(j > len)
  801eec:	e0fffb8b 	ldhu	r3,-18(fp)
  801ef0:	e0bfff0b 	ldhu	r2,-4(fp)
  801ef4:	10c0022e 	bgeu	r2,r3,801f00 <Hal4D13_ReadEndpoint+0x50>
        j = len;
  801ef8:	e0bfff0b 	ldhu	r2,-4(fp)
  801efc:	e0bffb8d 	sth	r2,-18(fp)
    i=0;
  801f00:	e03ffc0d 	sth	zero,-16(fp)
    while (i<j)//<<
  801f04:	00001c06 	br	801f78 <Hal4D13_ReadEndpoint+0xc8>
    //for(i=0; i<j; i=i+2, buf++ )
    {
        c = IORD(USB_0_BASE,D13_DATA_PORT);
  801f08:	00804474 	movhi	r2,273
  801f0c:	10a40a04 	addi	r2,r2,-28632
  801f10:	10800037 	ldwio	r2,0(r2)
  801f14:	e0bffb0d 	sth	r2,-20(fp)
        *buf = (UCHAR)c;
  801f18:	e0bffb0b 	ldhu	r2,-20(fp)
  801f1c:	1007883a 	mov	r3,r2
  801f20:	e0bffe17 	ldw	r2,-8(fp)
  801f24:	10c00005 	stb	r3,0(r2)
        i++;//<<
  801f28:	e0bffc0b 	ldhu	r2,-16(fp)
  801f2c:	10800044 	addi	r2,r2,1
  801f30:	e0bffc0d 	sth	r2,-16(fp)
        if (i >= j) break; //<<
  801f34:	e0fffc0b 	ldhu	r3,-16(fp)
  801f38:	e0bffb8b 	ldhu	r2,-18(fp)
  801f3c:	1880112e 	bgeu	r3,r2,801f84 <Hal4D13_ReadEndpoint+0xd4>
        buf++;
  801f40:	e0bffe17 	ldw	r2,-8(fp)
  801f44:	10800044 	addi	r2,r2,1
  801f48:	e0bffe15 	stw	r2,-8(fp)
        *buf = (UCHAR)(c>>8);
  801f4c:	e0bffb0b 	ldhu	r2,-20(fp)
  801f50:	1004d23a 	srli	r2,r2,8
  801f54:	1007883a 	mov	r3,r2
  801f58:	e0bffe17 	ldw	r2,-8(fp)
  801f5c:	10c00005 	stb	r3,0(r2)
        i++;//<<
  801f60:	e0bffc0b 	ldhu	r2,-16(fp)
  801f64:	10800044 	addi	r2,r2,1
  801f68:	e0bffc0d 	sth	r2,-16(fp)
         buf++;
  801f6c:	e0bffe17 	ldw	r2,-8(fp)
  801f70:	10800044 	addi	r2,r2,1
  801f74:	e0bffe15 	stw	r2,-8(fp)
    /* read Buffer */
    j = IORD(USB_0_BASE,D13_DATA_PORT);
    if(j > len)
        j = len;
    i=0;
    while (i<j)//<<
  801f78:	e0fffc0b 	ldhu	r3,-16(fp)
  801f7c:	e0bffb8b 	ldhu	r2,-18(fp)
  801f80:	18bfe136 	bltu	r3,r2,801f08 <Hal4D13_ReadEndpoint+0x58>
        *buf = (UCHAR)(c>>8);
        i++;//<<
         buf++;
    }
    /* Clear Buffer */
    IOWR(USB_0_BASE,D13_COMMAND_PORT, D13CMD_EP_CLEAR_BUF+bEPIndex);
  801f84:	e0bffd03 	ldbu	r2,-12(fp)
  801f88:	10c01c04 	addi	r3,r2,112
  801f8c:	00804474 	movhi	r2,273
  801f90:	10a40b04 	addi	r2,r2,-28628
  801f94:	10c00035 	stwio	r3,0(r2)
    return j;
  801f98:	e0bffb8b 	ldhu	r2,-18(fp)

}
  801f9c:	e037883a 	mov	sp,fp
  801fa0:	df000017 	ldw	fp,0(sp)
  801fa4:	dec00104 	addi	sp,sp,4
  801fa8:	f800283a 	ret

00801fac <Hal4D13_ReadBulkEndpoint>:

USHORT Hal4D13_ReadBulkEndpoint(UCHAR bEPIndex, UCHAR * buf, USHORT len)
{
  801fac:	defffa04 	addi	sp,sp,-24
  801fb0:	df000515 	stw	fp,20(sp)
  801fb4:	df000504 	addi	fp,sp,20
  801fb8:	e17ffe15 	stw	r5,-8(fp)
  801fbc:	e13ffd05 	stb	r4,-12(fp)
  801fc0:	e1bfff0d 	sth	r6,-4(fp)
    USHORT i, j, c;
    IOWR(USB_0_BASE,D13_COMMAND_PORT, D13CMD_EP_RD_FIFO + bEPIndex);
  801fc4:	e0bffd03 	ldbu	r2,-12(fp)
  801fc8:	10c00404 	addi	r3,r2,16
  801fcc:	00804474 	movhi	r2,273
  801fd0:	10a40b04 	addi	r2,r2,-28628
  801fd4:	10c00035 	stwio	r3,0(r2)
    j = IORD(USB_0_BASE,D13_DATA_PORT);
  801fd8:	00804474 	movhi	r2,273
  801fdc:	10a40a04 	addi	r2,r2,-28632
  801fe0:	10800037 	ldwio	r2,0(r2)
  801fe4:	e0bffb8d 	sth	r2,-18(fp)
    if(j > len)
  801fe8:	e0fffb8b 	ldhu	r3,-18(fp)
  801fec:	e0bfff0b 	ldhu	r2,-4(fp)
  801ff0:	10c0022e 	bgeu	r2,r3,801ffc <Hal4D13_ReadBulkEndpoint+0x50>
        j = len;
  801ff4:	e0bfff0b 	ldhu	r2,-4(fp)
  801ff8:	e0bffb8d 	sth	r2,-18(fp)
    i=0;
  801ffc:	e03ffc0d 	sth	zero,-16(fp)
    while (i<j) //<<
  802000:	00001c06 	br	802074 <Hal4D13_ReadBulkEndpoint+0xc8>
//  for(i=0; i<j; i=i+2, buf++ )
    {
        c = IORD(USB_0_BASE,D13_DATA_PORT);
  802004:	00804474 	movhi	r2,273
  802008:	10a40a04 	addi	r2,r2,-28632
  80200c:	10800037 	ldwio	r2,0(r2)
  802010:	e0bffb0d 	sth	r2,-20(fp)
        *buf = (UCHAR)c;
  802014:	e0bffb0b 	ldhu	r2,-20(fp)
  802018:	1007883a 	mov	r3,r2
  80201c:	e0bffe17 	ldw	r2,-8(fp)
  802020:	10c00005 	stb	r3,0(r2)
        i++;//<<
  802024:	e0bffc0b 	ldhu	r2,-16(fp)
  802028:	10800044 	addi	r2,r2,1
  80202c:	e0bffc0d 	sth	r2,-16(fp)
        if (i >= j) break; //<<
  802030:	e0fffc0b 	ldhu	r3,-16(fp)
  802034:	e0bffb8b 	ldhu	r2,-18(fp)
  802038:	1880112e 	bgeu	r3,r2,802080 <Hal4D13_ReadBulkEndpoint+0xd4>
        buf++;
  80203c:	e0bffe17 	ldw	r2,-8(fp)
  802040:	10800044 	addi	r2,r2,1
  802044:	e0bffe15 	stw	r2,-8(fp)
        *buf = (UCHAR)(c>>8);
  802048:	e0bffb0b 	ldhu	r2,-20(fp)
  80204c:	1004d23a 	srli	r2,r2,8
  802050:	1007883a 	mov	r3,r2
  802054:	e0bffe17 	ldw	r2,-8(fp)
  802058:	10c00005 	stb	r3,0(r2)
    
        i++;//<<
  80205c:	e0bffc0b 	ldhu	r2,-16(fp)
  802060:	10800044 	addi	r2,r2,1
  802064:	e0bffc0d 	sth	r2,-16(fp)
    buf++;
  802068:	e0bffe17 	ldw	r2,-8(fp)
  80206c:	10800044 	addi	r2,r2,1
  802070:	e0bffe15 	stw	r2,-8(fp)
    IOWR(USB_0_BASE,D13_COMMAND_PORT, D13CMD_EP_RD_FIFO + bEPIndex);
    j = IORD(USB_0_BASE,D13_DATA_PORT);
    if(j > len)
        j = len;
    i=0;
    while (i<j) //<<
  802074:	e0fffc0b 	ldhu	r3,-16(fp)
  802078:	e0bffb8b 	ldhu	r2,-18(fp)
  80207c:	18bfe136 	bltu	r3,r2,802004 <Hal4D13_ReadBulkEndpoint+0x58>
    
        i++;//<<
    buf++;
    }
    /* Clear Buffer */
    IOWR(USB_0_BASE,D13_COMMAND_PORT, D13CMD_EP_CLEAR_BUF+bEPIndex);
  802080:	e0bffd03 	ldbu	r2,-12(fp)
  802084:	10c01c04 	addi	r3,r2,112
  802088:	00804474 	movhi	r2,273
  80208c:	10a40b04 	addi	r2,r2,-28628
  802090:	10c00035 	stwio	r3,0(r2)

    return j;
  802094:	e0bffb8b 	ldhu	r2,-18(fp)
}
  802098:	e037883a 	mov	sp,fp
  80209c:	df000017 	ldw	fp,0(sp)
  8020a0:	dec00104 	addi	sp,sp,4
  8020a4:	f800283a 	ret

008020a8 <Hal4D13_ReadEndpointWOClearBuffer>:

USHORT Hal4D13_ReadEndpointWOClearBuffer(UCHAR bEPIndex, UCHAR * buf, USHORT len)
{
  8020a8:	defffa04 	addi	sp,sp,-24
  8020ac:	df000515 	stw	fp,20(sp)
  8020b0:	df000504 	addi	fp,sp,20
  8020b4:	e17ffe15 	stw	r5,-8(fp)
  8020b8:	e13ffd05 	stb	r4,-12(fp)
  8020bc:	e1bfff0d 	sth	r6,-4(fp)
    USHORT i, j,c;
    IOWR(USB_0_BASE,D13_COMMAND_PORT, D13CMD_EP_RD_FIFO + bEPIndex);
  8020c0:	e0bffd03 	ldbu	r2,-12(fp)
  8020c4:	10c00404 	addi	r3,r2,16
  8020c8:	00804474 	movhi	r2,273
  8020cc:	10a40b04 	addi	r2,r2,-28628
  8020d0:	10c00035 	stwio	r3,0(r2)
    /* read Buffer */
    j = IORD(USB_0_BASE,D13_DATA_PORT);
  8020d4:	00804474 	movhi	r2,273
  8020d8:	10a40a04 	addi	r2,r2,-28632
  8020dc:	10800037 	ldwio	r2,0(r2)
  8020e0:	e0bffb8d 	sth	r2,-18(fp)
    if(j > len)
  8020e4:	e0fffb8b 	ldhu	r3,-18(fp)
  8020e8:	e0bfff0b 	ldhu	r2,-4(fp)
  8020ec:	10c0022e 	bgeu	r2,r3,8020f8 <Hal4D13_ReadEndpointWOClearBuffer+0x50>
        j = len;
  8020f0:	e0bfff0b 	ldhu	r2,-4(fp)
  8020f4:	e0bffb8d 	sth	r2,-18(fp)
    i=0;
  8020f8:	e03ffc0d 	sth	zero,-16(fp)
    while (i<j) //<<    
  8020fc:	00001c06 	br	802170 <Hal4D13_ReadEndpointWOClearBuffer+0xc8>
   //for(i<j; i=i+2, buf++ )
    {
         c = IORD(USB_0_BASE,D13_DATA_PORT);
  802100:	00804474 	movhi	r2,273
  802104:	10a40a04 	addi	r2,r2,-28632
  802108:	10800037 	ldwio	r2,0(r2)
  80210c:	e0bffb0d 	sth	r2,-20(fp)
         *buf = (UCHAR)c;//printf("WOC= %02X ",*buf);//<<        
  802110:	e0bffb0b 	ldhu	r2,-20(fp)
  802114:	1007883a 	mov	r3,r2
  802118:	e0bffe17 	ldw	r2,-8(fp)
  80211c:	10c00005 	stb	r3,0(r2)
         i++;//<<
  802120:	e0bffc0b 	ldhu	r2,-16(fp)
  802124:	10800044 	addi	r2,r2,1
  802128:	e0bffc0d 	sth	r2,-16(fp)
         if (i >= j) break; //<<
  80212c:	e0fffc0b 	ldhu	r3,-16(fp)
  802130:	e0bffb8b 	ldhu	r2,-18(fp)
  802134:	1880112e 	bgeu	r3,r2,80217c <Hal4D13_ReadEndpointWOClearBuffer+0xd4>
         buf++;
  802138:	e0bffe17 	ldw	r2,-8(fp)
  80213c:	10800044 	addi	r2,r2,1
  802140:	e0bffe15 	stw	r2,-8(fp)
         *buf = (UCHAR)(c>>8); //printf("WOC= %02X ",*buf);//<<
  802144:	e0bffb0b 	ldhu	r2,-20(fp)
  802148:	1004d23a 	srli	r2,r2,8
  80214c:	1007883a 	mov	r3,r2
  802150:	e0bffe17 	ldw	r2,-8(fp)
  802154:	10c00005 	stb	r3,0(r2)
         i++;//<<
  802158:	e0bffc0b 	ldhu	r2,-16(fp)
  80215c:	10800044 	addi	r2,r2,1
  802160:	e0bffc0d 	sth	r2,-16(fp)
     buf++;
  802164:	e0bffe17 	ldw	r2,-8(fp)
  802168:	10800044 	addi	r2,r2,1
  80216c:	e0bffe15 	stw	r2,-8(fp)
    /* read Buffer */
    j = IORD(USB_0_BASE,D13_DATA_PORT);
    if(j > len)
        j = len;
    i=0;
    while (i<j) //<<    
  802170:	e0fffc0b 	ldhu	r3,-16(fp)
  802174:	e0bffb8b 	ldhu	r2,-18(fp)
  802178:	18bfe136 	bltu	r3,r2,802100 <Hal4D13_ReadEndpointWOClearBuffer+0x58>
         i++;//<<
     buf++;
    }
   // printf("\n",c);
    /* Clear Buffer */
    IOWR(USB_0_BASE,D13_COMMAND_PORT, D13CMD_EP_CLEAR_BUF+bEPIndex);
  80217c:	e0bffd03 	ldbu	r2,-12(fp)
  802180:	10c01c04 	addi	r3,r2,112
  802184:	00804474 	movhi	r2,273
  802188:	10a40b04 	addi	r2,r2,-28628
  80218c:	10c00035 	stwio	r3,0(r2)

    return j;
  802190:	e0bffb8b 	ldhu	r2,-18(fp)
}
  802194:	e037883a 	mov	sp,fp
  802198:	df000017 	ldw	fp,0(sp)
  80219c:	dec00104 	addi	sp,sp,4
  8021a0:	f800283a 	ret

008021a4 <Hal4D13_WriteEndpoint>:

USHORT Hal4D13_WriteEndpoint(UCHAR bEPIndex, UCHAR * buf, USHORT len)
{
  8021a4:	defffb04 	addi	sp,sp,-20
  8021a8:	df000415 	stw	fp,16(sp)
  8021ac:	df000404 	addi	fp,sp,16
  8021b0:	e17ffe15 	stw	r5,-8(fp)
  8021b4:	e13ffd05 	stb	r4,-12(fp)
  8021b8:	e1bfff0d 	sth	r6,-4(fp)
    USHORT i,c;
    /* Select Endpoint */
   
    IOWR(USB_0_BASE,D13_COMMAND_PORT, D13CMD_EP_WR_FIFO + bEPIndex);
  8021bc:	e0fffd03 	ldbu	r3,-12(fp)
  8021c0:	00804474 	movhi	r2,273
  8021c4:	10a40b04 	addi	r2,r2,-28628
  8021c8:	10c00035 	stwio	r3,0(r2)
    IOWR(USB_0_BASE,D13_DATA_PORT, len);
  8021cc:	e0ffff0b 	ldhu	r3,-4(fp)
  8021d0:	00804474 	movhi	r2,273
  8021d4:	10a40a04 	addi	r2,r2,-28632
  8021d8:	10c00035 	stwio	r3,0(r2)
    if (len==0) IOWR(USB_0_BASE,D13_DATA_PORT, 0);
  8021dc:	e0bfff0b 	ldhu	r2,-4(fp)
  8021e0:	1004c03a 	cmpne	r2,r2,zero
  8021e4:	1000031e 	bne	r2,zero,8021f4 <Hal4D13_WriteEndpoint+0x50>
  8021e8:	00804474 	movhi	r2,273
  8021ec:	10a40a04 	addi	r2,r2,-28632
  8021f0:	10000035 	stwio	zero,0(r2)
    /* Write Buffer */
  
    //for(i=0; i<len; i=i+2, buf++ )
  i=0;
  8021f4:	e03ffc8d 	sth	zero,-14(fp)
  while (i < len)
  8021f8:	00002706 	br	802298 <Hal4D13_WriteEndpoint+0xf4>
    {
        c = *buf;
  8021fc:	e0bffe17 	ldw	r2,-8(fp)
  802200:	10800003 	ldbu	r2,0(r2)
  802204:	10803fcc 	andi	r2,r2,255
  802208:	e0bffc0d 	sth	r2,-16(fp)
        buf++;i++;
  80220c:	e0bffe17 	ldw	r2,-8(fp)
  802210:	10800044 	addi	r2,r2,1
  802214:	e0bffe15 	stw	r2,-8(fp)
  802218:	e0bffc8b 	ldhu	r2,-14(fp)
  80221c:	10800044 	addi	r2,r2,1
  802220:	e0bffc8d 	sth	r2,-14(fp)
    if (i >=len) { IOWR(USB_0_BASE,D13_DATA_PORT, c); }//printf("w=%04x  ",c);break; }
  802224:	e0fffc8b 	ldhu	r3,-14(fp)
  802228:	e0bfff0b 	ldhu	r2,-4(fp)
  80222c:	18800436 	bltu	r3,r2,802240 <Hal4D13_WriteEndpoint+0x9c>
  802230:	e0fffc0b 	ldhu	r3,-16(fp)
  802234:	00804474 	movhi	r2,273
  802238:	10a40a04 	addi	r2,r2,-28632
  80223c:	10c00035 	stwio	r3,0(r2)
        c =(c & 0xff)+ (*buf<<8  & 0xff00);    
  802240:	e0bffc0b 	ldhu	r2,-16(fp)
  802244:	10803fcc 	andi	r2,r2,255
  802248:	1009883a 	mov	r4,r2
  80224c:	e0bffe17 	ldw	r2,-8(fp)
  802250:	10800003 	ldbu	r2,0(r2)
  802254:	10803fcc 	andi	r2,r2,255
  802258:	1004923a 	slli	r2,r2,8
  80225c:	1007883a 	mov	r3,r2
  802260:	00bfc004 	movi	r2,-256
  802264:	1884703a 	and	r2,r3,r2
  802268:	2085883a 	add	r2,r4,r2
  80226c:	e0bffc0d 	sth	r2,-16(fp)
    buf++;i++;      
  802270:	e0bffe17 	ldw	r2,-8(fp)
  802274:	10800044 	addi	r2,r2,1
  802278:	e0bffe15 	stw	r2,-8(fp)
  80227c:	e0bffc8b 	ldhu	r2,-14(fp)
  802280:	10800044 	addi	r2,r2,1
  802284:	e0bffc8d 	sth	r2,-14(fp)
        IOWR(USB_0_BASE,D13_DATA_PORT, c);
  802288:	e0fffc0b 	ldhu	r3,-16(fp)
  80228c:	00804474 	movhi	r2,273
  802290:	10a40a04 	addi	r2,r2,-28632
  802294:	10c00035 	stwio	r3,0(r2)
    if (len==0) IOWR(USB_0_BASE,D13_DATA_PORT, 0);
    /* Write Buffer */
  
    //for(i=0; i<len; i=i+2, buf++ )
  i=0;
  while (i < len)
  802298:	e0fffc8b 	ldhu	r3,-14(fp)
  80229c:	e0bfff0b 	ldhu	r2,-4(fp)
  8022a0:	18bfd636 	bltu	r3,r2,8021fc <Hal4D13_WriteEndpoint+0x58>
//    printf("w=%04x  ",c);
    }
//  printf("\nlen=%d i=%d\n",len,i);
  
    /* Validate Buffer */
    IOWR(USB_0_BASE,D13_COMMAND_PORT, D13CMD_EP_VALID_BUF+bEPIndex);
  8022a4:	e0bffd03 	ldbu	r2,-12(fp)
  8022a8:	10c01804 	addi	r3,r2,96
  8022ac:	00804474 	movhi	r2,273
  8022b0:	10a40b04 	addi	r2,r2,-28628
  8022b4:	10c00035 	stwio	r3,0(r2)
 // printf("\n");
    return i;
  8022b8:	e0bffc8b 	ldhu	r2,-14(fp)
}
  8022bc:	e037883a 	mov	sp,fp
  8022c0:	df000017 	ldw	fp,0(sp)
  8022c4:	dec00104 	addi	sp,sp,4
  8022c8:	f800283a 	ret

008022cc <Hal4D13_WriteBulkEndpoint>:

USHORT Hal4D13_WriteBulkEndpoint(UCHAR bEPIndex, UCHAR * buf, USHORT len)
{
  8022cc:	defffb04 	addi	sp,sp,-20
  8022d0:	df000415 	stw	fp,16(sp)
  8022d4:	df000404 	addi	fp,sp,16
  8022d8:	e17ffe15 	stw	r5,-8(fp)
  8022dc:	e13ffd05 	stb	r4,-12(fp)
  8022e0:	e1bfff0d 	sth	r6,-4(fp)
    USHORT i, c;
    /* Select Endpoint */
    IOWR(USB_0_BASE,D13_COMMAND_PORT, D13CMD_EP_WR_FIFO + bEPIndex);
  8022e4:	e0fffd03 	ldbu	r3,-12(fp)
  8022e8:	00804474 	movhi	r2,273
  8022ec:	10a40b04 	addi	r2,r2,-28628
  8022f0:	10c00035 	stwio	r3,0(r2)
    IOWR(USB_0_BASE,D13_DATA_PORT, len);
  8022f4:	e0ffff0b 	ldhu	r3,-4(fp)
  8022f8:	00804474 	movhi	r2,273
  8022fc:	10a40a04 	addi	r2,r2,-28632
  802300:	10c00035 	stwio	r3,0(r2)
    if (len==0) IOWR(USB_0_BASE,D13_DATA_PORT, 0);
  802304:	e0bfff0b 	ldhu	r2,-4(fp)
  802308:	1004c03a 	cmpne	r2,r2,zero
  80230c:	1000031e 	bne	r2,zero,80231c <Hal4D13_WriteBulkEndpoint+0x50>
  802310:	00804474 	movhi	r2,273
  802314:	10a40a04 	addi	r2,r2,-28632
  802318:	10000035 	stwio	zero,0(r2)

    /* Write Buffer */
    for(i=0; i<len; i=i+2, buf++ )
  80231c:	e03ffc8d 	sth	zero,-14(fp)
  802320:	00001906 	br	802388 <Hal4D13_WriteBulkEndpoint+0xbc>
    {
        c = *buf;
  802324:	e0bffe17 	ldw	r2,-8(fp)
  802328:	10800003 	ldbu	r2,0(r2)
  80232c:	10803fcc 	andi	r2,r2,255
  802330:	e0bffc0d 	sth	r2,-16(fp)
        buf++;
  802334:	e0bffe17 	ldw	r2,-8(fp)
  802338:	10800044 	addi	r2,r2,1
  80233c:	e0bffe15 	stw	r2,-8(fp)
        c += (USHORT)(*buf << 8);
  802340:	e0bffe17 	ldw	r2,-8(fp)
  802344:	10800003 	ldbu	r2,0(r2)
  802348:	10803fcc 	andi	r2,r2,255
  80234c:	1004923a 	slli	r2,r2,8
  802350:	1007883a 	mov	r3,r2
  802354:	e0bffc0b 	ldhu	r2,-16(fp)
  802358:	10c5883a 	add	r2,r2,r3
  80235c:	e0bffc0d 	sth	r2,-16(fp)
        IOWR(USB_0_BASE,D13_DATA_PORT, c);
  802360:	e0fffc0b 	ldhu	r3,-16(fp)
  802364:	00804474 	movhi	r2,273
  802368:	10a40a04 	addi	r2,r2,-28632
  80236c:	10c00035 	stwio	r3,0(r2)
    IOWR(USB_0_BASE,D13_COMMAND_PORT, D13CMD_EP_WR_FIFO + bEPIndex);
    IOWR(USB_0_BASE,D13_DATA_PORT, len);
    if (len==0) IOWR(USB_0_BASE,D13_DATA_PORT, 0);

    /* Write Buffer */
    for(i=0; i<len; i=i+2, buf++ )
  802370:	e0bffc8b 	ldhu	r2,-14(fp)
  802374:	10800084 	addi	r2,r2,2
  802378:	e0bffc8d 	sth	r2,-14(fp)
  80237c:	e0bffe17 	ldw	r2,-8(fp)
  802380:	10800044 	addi	r2,r2,1
  802384:	e0bffe15 	stw	r2,-8(fp)
  802388:	e0fffc8b 	ldhu	r3,-14(fp)
  80238c:	e0bfff0b 	ldhu	r2,-4(fp)
  802390:	18bfe436 	bltu	r3,r2,802324 <Hal4D13_WriteBulkEndpoint+0x58>
        buf++;
        c += (USHORT)(*buf << 8);
        IOWR(USB_0_BASE,D13_DATA_PORT, c);
    }
    /* Validate Buffer */
    IOWR(USB_0_BASE,D13_COMMAND_PORT, D13CMD_EP_VALID_BUF+bEPIndex);
  802394:	e0bffd03 	ldbu	r2,-12(fp)
  802398:	10c01804 	addi	r3,r2,96
  80239c:	00804474 	movhi	r2,273
  8023a0:	10a40b04 	addi	r2,r2,-28628
  8023a4:	10c00035 	stwio	r3,0(r2)
    return len;
  8023a8:	e0bfff0b 	ldhu	r2,-4(fp)
}
  8023ac:	e037883a 	mov	sp,fp
  8023b0:	df000017 	ldw	fp,0(sp)
  8023b4:	dec00104 	addi	sp,sp,4
  8023b8:	f800283a 	ret

008023bc <Hal4D13_GetIntEnable>:

ULONG Hal4D13_GetIntEnable(void)
{
  8023bc:	defffe04 	addi	sp,sp,-8
  8023c0:	df000115 	stw	fp,4(sp)
  8023c4:	df000104 	addi	fp,sp,4
    ULONG i;
    IOWR(USB_0_BASE,D13_COMMAND_PORT,D13CMD_DEV_RD_INTEN);
  8023c8:	00c04474 	movhi	r3,273
  8023cc:	18e40b04 	addi	r3,r3,-28628
  8023d0:	008030c4 	movi	r2,195
  8023d4:	18800035 	stwio	r2,0(r3)
    i = IORD(USB_0_BASE,D13_DATA_PORT);
  8023d8:	00804474 	movhi	r2,273
  8023dc:	10a40a04 	addi	r2,r2,-28632
  8023e0:	10800037 	ldwio	r2,0(r2)
  8023e4:	e0bfff15 	stw	r2,-4(fp)
    i += (((ULONG)IORD(USB_0_BASE,D13_DATA_PORT)) << 16);
  8023e8:	00804474 	movhi	r2,273
  8023ec:	10a40a04 	addi	r2,r2,-28632
  8023f0:	10800037 	ldwio	r2,0(r2)
  8023f4:	1006943a 	slli	r3,r2,16
  8023f8:	e0bfff17 	ldw	r2,-4(fp)
  8023fc:	10c5883a 	add	r2,r2,r3
  802400:	e0bfff15 	stw	r2,-4(fp)
    return i;
  802404:	e0bfff17 	ldw	r2,-4(fp)
}
  802408:	e037883a 	mov	sp,fp
  80240c:	df000017 	ldw	fp,0(sp)
  802410:	dec00104 	addi	sp,sp,4
  802414:	f800283a 	ret

00802418 <Hal4D13_SetIntEnable>:

void Hal4D13_SetIntEnable(ULONG dIntEn)
{
  802418:	defffe04 	addi	sp,sp,-8
  80241c:	df000115 	stw	fp,4(sp)
  802420:	df000104 	addi	fp,sp,4
  802424:	e13fff15 	stw	r4,-4(fp)
    IOWR(USB_0_BASE,D13_COMMAND_PORT,D13CMD_DEV_WR_INTEN);
  802428:	00c04474 	movhi	r3,273
  80242c:	18e40b04 	addi	r3,r3,-28628
  802430:	00803084 	movi	r2,194
  802434:	18800035 	stwio	r2,0(r3)
    dIntEn = (dIntEn & 0x0FFFFFF);
  802438:	e0ffff17 	ldw	r3,-4(fp)
  80243c:	00804034 	movhi	r2,256
  802440:	10bfffc4 	addi	r2,r2,-1
  802444:	1884703a 	and	r2,r3,r2
  802448:	e0bfff15 	stw	r2,-4(fp)
    IOWR(USB_0_BASE,D13_DATA_PORT,(USHORT)dIntEn);
  80244c:	e0bfff17 	ldw	r2,-4(fp)
  802450:	10ffffcc 	andi	r3,r2,65535
  802454:	00804474 	movhi	r2,273
  802458:	10a40a04 	addi	r2,r2,-28632
  80245c:	10c00035 	stwio	r3,0(r2)
    IOWR(USB_0_BASE,D13_DATA_PORT,(USHORT)(dIntEn >> 16));
  802460:	e0bfff17 	ldw	r2,-4(fp)
  802464:	1004d43a 	srli	r2,r2,16
  802468:	10ffffcc 	andi	r3,r2,65535
  80246c:	00804474 	movhi	r2,273
  802470:	10a40a04 	addi	r2,r2,-28632
  802474:	10c00035 	stwio	r3,0(r2)
}
  802478:	e037883a 	mov	sp,fp
  80247c:	df000017 	ldw	fp,0(sp)
  802480:	dec00104 	addi	sp,sp,4
  802484:	f800283a 	ret

00802488 <Hal4D13_ReadInterruptRegister>:

ULONG Hal4D13_ReadInterruptRegister(void)
{
  802488:	defffd04 	addi	sp,sp,-12
  80248c:	df000215 	stw	fp,8(sp)
  802490:	df000204 	addi	fp,sp,8
    ULONG j,i = 0;
  802494:	e03ffe15 	stw	zero,-8(fp)
    IOWR(USB_0_BASE,D13_COMMAND_PORT, D13CMD_DEV_INT_SRC);
  802498:	00c04474 	movhi	r3,273
  80249c:	18e40b04 	addi	r3,r3,-28628
  8024a0:	00803004 	movi	r2,192
  8024a4:	18800035 	stwio	r2,0(r3)
    i = IORD(USB_0_BASE,D13_DATA_PORT);
  8024a8:	00804474 	movhi	r2,273
  8024ac:	10a40a04 	addi	r2,r2,-28632
  8024b0:	10800037 	ldwio	r2,0(r2)
  8024b4:	e0bffe15 	stw	r2,-8(fp)
    j = IORD(USB_0_BASE,D13_DATA_PORT);
  8024b8:	00804474 	movhi	r2,273
  8024bc:	10a40a04 	addi	r2,r2,-28632
  8024c0:	10800037 	ldwio	r2,0(r2)
  8024c4:	e0bfff15 	stw	r2,-4(fp)
    j = ((j<<16) & 0xffff0000 ) + (i & 0xffff);
  8024c8:	e0bfff17 	ldw	r2,-4(fp)
  8024cc:	1004943a 	slli	r2,r2,16
  8024d0:	10ffffec 	andhi	r3,r2,65535
  8024d4:	e0bffe17 	ldw	r2,-8(fp)
  8024d8:	10bfffcc 	andi	r2,r2,65535
  8024dc:	1885883a 	add	r2,r3,r2
  8024e0:	e0bfff15 	stw	r2,-4(fp)
    return i;
  8024e4:	e0bffe17 	ldw	r2,-8(fp)
}
  8024e8:	e037883a 	mov	sp,fp
  8024ec:	df000017 	ldw	fp,0(sp)
  8024f0:	dec00104 	addi	sp,sp,4
  8024f4:	f800283a 	ret

008024f8 <Hal4D13_GetEndpointStatusWInteruptClear>:

UCHAR Hal4D13_GetEndpointStatusWInteruptClear(UCHAR bEPIndex)
{
  8024f8:	defffd04 	addi	sp,sp,-12
  8024fc:	df000215 	stw	fp,8(sp)
  802500:	df000204 	addi	fp,sp,8
  802504:	e13fff05 	stb	r4,-4(fp)
    UCHAR c;
    IOWR(USB_0_BASE,D13_COMMAND_PORT, D13CMD_EP_RDSTS_CLRINT + bEPIndex);
  802508:	e0bfff03 	ldbu	r2,-4(fp)
  80250c:	10c01404 	addi	r3,r2,80
  802510:	00804474 	movhi	r2,273
  802514:	10a40b04 	addi	r2,r2,-28628
  802518:	10c00035 	stwio	r3,0(r2)
    c = (UCHAR)(IORD(USB_0_BASE,D13_DATA_PORT) & 0x0ff);
  80251c:	00804474 	movhi	r2,273
  802520:	10a40a04 	addi	r2,r2,-28632
  802524:	10800037 	ldwio	r2,0(r2)
  802528:	1007883a 	mov	r3,r2
  80252c:	00bfffc4 	movi	r2,-1
  802530:	1884703a 	and	r2,r3,r2
  802534:	e0bffe05 	stb	r2,-8(fp)
    return c;
  802538:	e0bffe03 	ldbu	r2,-8(fp)
}
  80253c:	e037883a 	mov	sp,fp
  802540:	df000017 	ldw	fp,0(sp)
  802544:	dec00104 	addi	sp,sp,4
  802548:	f800283a 	ret

0080254c <Hal4D13_GetEndpointStatusWOInteruptClear>:

UCHAR Hal4D13_GetEndpointStatusWOInteruptClear(UCHAR bEPIndex)
{
  80254c:	defffd04 	addi	sp,sp,-12
  802550:	df000215 	stw	fp,8(sp)
  802554:	df000204 	addi	fp,sp,8
  802558:	e13fff05 	stb	r4,-4(fp)
    UCHAR c;
    IOWR(USB_0_BASE,D13_COMMAND_PORT, D13CMD_EP_RDSTS + bEPIndex);
  80255c:	e0bfff03 	ldbu	r2,-4(fp)
  802560:	10c03404 	addi	r3,r2,208
  802564:	00804474 	movhi	r2,273
  802568:	10a40b04 	addi	r2,r2,-28628
  80256c:	10c00035 	stwio	r3,0(r2)
    c = (UCHAR)(IORD(USB_0_BASE,D13_DATA_PORT) &0x0ff);
  802570:	00804474 	movhi	r2,273
  802574:	10a40a04 	addi	r2,r2,-28632
  802578:	10800037 	ldwio	r2,0(r2)
  80257c:	1007883a 	mov	r3,r2
  802580:	00bfffc4 	movi	r2,-1
  802584:	1884703a 	and	r2,r3,r2
  802588:	e0bffe05 	stb	r2,-8(fp)
    return c;
  80258c:	e0bffe03 	ldbu	r2,-8(fp)
}
  802590:	e037883a 	mov	sp,fp
  802594:	df000017 	ldw	fp,0(sp)
  802598:	dec00104 	addi	sp,sp,4
  80259c:	f800283a 	ret

008025a0 <Hal4D13_SetEndpointStatus>:

void Hal4D13_SetEndpointStatus(UCHAR bEPIndex, UCHAR bStalled)
{
  8025a0:	defffd04 	addi	sp,sp,-12
  8025a4:	df000215 	stw	fp,8(sp)
  8025a8:	df000204 	addi	fp,sp,8
  8025ac:	e13ffe05 	stb	r4,-8(fp)
  8025b0:	e17fff05 	stb	r5,-4(fp)
    if(bStalled & 0x80)
  8025b4:	e0bfff03 	ldbu	r2,-4(fp)
  8025b8:	10803fcc 	andi	r2,r2,255
  8025bc:	1080201c 	xori	r2,r2,128
  8025c0:	10bfe004 	addi	r2,r2,-128
  8025c4:	1004403a 	cmpge	r2,r2,zero
  8025c8:	1000061e 	bne	r2,zero,8025e4 <Hal4D13_SetEndpointStatus+0x44>
    {
        IOWR(USB_0_BASE,D13_COMMAND_PORT, D13CMD_EP_WR_STS + bEPIndex);
  8025cc:	e0bffe03 	ldbu	r2,-8(fp)
  8025d0:	10c01004 	addi	r3,r2,64
  8025d4:	00804474 	movhi	r2,273
  8025d8:	10a40b04 	addi	r2,r2,-28628
  8025dc:	10c00035 	stwio	r3,0(r2)
  8025e0:	00000506 	br	8025f8 <Hal4D13_SetEndpointStatus+0x58>
    }
    else
    {
    // clear endpoint stall.
        IOWR(USB_0_BASE,D13_COMMAND_PORT, D13CMD_EP_CLR_STALL + bEPIndex);
  8025e4:	e0bffe03 	ldbu	r2,-8(fp)
  8025e8:	10c02004 	addi	r3,r2,128
  8025ec:	00804474 	movhi	r2,273
  8025f0:	10a40b04 	addi	r2,r2,-28628
  8025f4:	10c00035 	stwio	r3,0(r2)
    }
}
  8025f8:	e037883a 	mov	sp,fp
  8025fc:	df000017 	ldw	fp,0(sp)
  802600:	dec00104 	addi	sp,sp,4
  802604:	f800283a 	ret

00802608 <Hal4D13_SetDMAConfig>:

void Hal4D13_SetDMAConfig(USHORT wDMACnfg)
{
  802608:	defffe04 	addi	sp,sp,-8
  80260c:	df000115 	stw	fp,4(sp)
  802610:	df000104 	addi	fp,sp,4
  802614:	e13fff0d 	sth	r4,-4(fp)
    IOWR(USB_0_BASE,D13_COMMAND_PORT,D13CMD_DMA_WR_CNFG);
  802618:	00c04474 	movhi	r3,273
  80261c:	18e40b04 	addi	r3,r3,-28628
  802620:	00803c04 	movi	r2,240
  802624:	18800035 	stwio	r2,0(r3)
    IOWR(USB_0_BASE,D13_DATA_PORT, wDMACnfg);
  802628:	e0ffff0b 	ldhu	r3,-4(fp)
  80262c:	00804474 	movhi	r2,273
  802630:	10a40a04 	addi	r2,r2,-28632
  802634:	10c00035 	stwio	r3,0(r2)
}
  802638:	e037883a 	mov	sp,fp
  80263c:	df000017 	ldw	fp,0(sp)
  802640:	dec00104 	addi	sp,sp,4
  802644:	f800283a 	ret

00802648 <Hal4D13_GetDMAConfig>:

USHORT Hal4D13_GetDMAConfig(void)
{
  802648:	defffe04 	addi	sp,sp,-8
  80264c:	df000115 	stw	fp,4(sp)
  802650:	df000104 	addi	fp,sp,4
    USHORT i;
    IOWR(USB_0_BASE,D13_COMMAND_PORT,D13CMD_DMA_RD_CNFG);
  802654:	00c04474 	movhi	r3,273
  802658:	18e40b04 	addi	r3,r3,-28628
  80265c:	00803c44 	movi	r2,241
  802660:	18800035 	stwio	r2,0(r3)
    i = IORD(USB_0_BASE,D13_DATA_PORT);
  802664:	00804474 	movhi	r2,273
  802668:	10a40a04 	addi	r2,r2,-28632
  80266c:	10800037 	ldwio	r2,0(r2)
  802670:	e0bfff0d 	sth	r2,-4(fp)
    return i;
  802674:	e0bfff0b 	ldhu	r2,-4(fp)
}
  802678:	e037883a 	mov	sp,fp
  80267c:	df000017 	ldw	fp,0(sp)
  802680:	dec00104 	addi	sp,sp,4
  802684:	f800283a 	ret

00802688 <Hal4D13_SetDMACounter>:

void Hal4D13_SetDMACounter(USHORT wDMACounter)
{
  802688:	defffe04 	addi	sp,sp,-8
  80268c:	df000115 	stw	fp,4(sp)
  802690:	df000104 	addi	fp,sp,4
  802694:	e13fff0d 	sth	r4,-4(fp)
    IOWR(USB_0_BASE,D13_COMMAND_PORT,D13CMD_DMA_WR_COUNT);
  802698:	00c04474 	movhi	r3,273
  80269c:	18e40b04 	addi	r3,r3,-28628
  8026a0:	00803c84 	movi	r2,242
  8026a4:	18800035 	stwio	r2,0(r3)
    IOWR(USB_0_BASE,D13_DATA_PORT, wDMACounter);
  8026a8:	e0ffff0b 	ldhu	r3,-4(fp)
  8026ac:	00804474 	movhi	r2,273
  8026b0:	10a40a04 	addi	r2,r2,-28632
  8026b4:	10c00035 	stwio	r3,0(r2)
}
  8026b8:	e037883a 	mov	sp,fp
  8026bc:	df000017 	ldw	fp,0(sp)
  8026c0:	dec00104 	addi	sp,sp,4
  8026c4:	f800283a 	ret

008026c8 <Hal4D13_GetDMACounter>:

USHORT Hal4D13_GetDMACounter(void)
{
  8026c8:	defffe04 	addi	sp,sp,-8
  8026cc:	df000115 	stw	fp,4(sp)
  8026d0:	df000104 	addi	fp,sp,4
    USHORT i;
    IOWR(USB_0_BASE,D13_COMMAND_PORT,D13CMD_DMA_RD_COUNT);
  8026d4:	00c04474 	movhi	r3,273
  8026d8:	18e40b04 	addi	r3,r3,-28628
  8026dc:	00803cc4 	movi	r2,243
  8026e0:	18800035 	stwio	r2,0(r3)
    i = IORD(USB_0_BASE,D13_DATA_PORT);
  8026e4:	00804474 	movhi	r2,273
  8026e8:	10a40a04 	addi	r2,r2,-28632
  8026ec:	10800037 	ldwio	r2,0(r2)
  8026f0:	e0bfff0d 	sth	r2,-4(fp)
    return i;
  8026f4:	e0bfff0b 	ldhu	r2,-4(fp)
}
  8026f8:	e037883a 	mov	sp,fp
  8026fc:	df000017 	ldw	fp,0(sp)
  802700:	dec00104 	addi	sp,sp,4
  802704:	f800283a 	ret

00802708 <Hal4D13_GetDataFromChipRam>:

USHORT Hal4D13_GetDataFromChipRam(void)
{
  802708:	defffe04 	addi	sp,sp,-8
  80270c:	df000115 	stw	fp,4(sp)
  802710:	df000104 	addi	fp,sp,4
    USHORT i;
    IOWR(USB_0_BASE,D13_COMMAND_PORT,D13CMD_DEV_RD_RAM);
  802714:	00c04474 	movhi	r3,273
  802718:	18e40b04 	addi	r3,r3,-28628
  80271c:	00802cc4 	movi	r2,179
  802720:	18800035 	stwio	r2,0(r3)
    i = IORD(USB_0_BASE,D13_DATA_PORT);
  802724:	00804474 	movhi	r2,273
  802728:	10a40a04 	addi	r2,r2,-28632
  80272c:	10800037 	ldwio	r2,0(r2)
  802730:	e0bfff0d 	sth	r2,-4(fp)
    return i;
  802734:	e0bfff0b 	ldhu	r2,-4(fp)
}
  802738:	e037883a 	mov	sp,fp
  80273c:	df000017 	ldw	fp,0(sp)
  802740:	dec00104 	addi	sp,sp,4
  802744:	f800283a 	ret

00802748 <Hal4D13_SetDataToChipRam>:

void Hal4D13_SetDataToChipRam(USHORT wData)
{
  802748:	defffe04 	addi	sp,sp,-8
  80274c:	df000115 	stw	fp,4(sp)
  802750:	df000104 	addi	fp,sp,4
  802754:	e13fff0d 	sth	r4,-4(fp)
    IOWR(USB_0_BASE,D13_COMMAND_PORT,D13CMD_DEV_WR_RAM);
  802758:	00c04474 	movhi	r3,273
  80275c:	18e40b04 	addi	r3,r3,-28628
  802760:	00802c84 	movi	r2,178
  802764:	18800035 	stwio	r2,0(r3)
    IOWR(USB_0_BASE,D13_DATA_PORT, wData);
  802768:	e0ffff0b 	ldhu	r3,-4(fp)
  80276c:	00804474 	movhi	r2,273
  802770:	10a40a04 	addi	r2,r2,-28632
  802774:	10c00035 	stwio	r3,0(r2)
}
  802778:	e037883a 	mov	sp,fp
  80277c:	df000017 	ldw	fp,0(sp)
  802780:	dec00104 	addi	sp,sp,4
  802784:	f800283a 	ret

00802788 <Hal4D13_ReadCurrentFrameNumber>:

USHORT Hal4D13_ReadCurrentFrameNumber(void)
{
  802788:	defffe04 	addi	sp,sp,-8
  80278c:	df000115 	stw	fp,4(sp)
  802790:	df000104 	addi	fp,sp,4
    USHORT i;
    IOWR(USB_0_BASE,D13_COMMAND_PORT, D13CMD_RD_FRMNUM);
  802794:	00c04474 	movhi	r3,273
  802798:	18e40b04 	addi	r3,r3,-28628
  80279c:	00802d04 	movi	r2,180
  8027a0:	18800035 	stwio	r2,0(r3)
    i= IORD(USB_0_BASE,D13_DATA_PORT);
  8027a4:	00804474 	movhi	r2,273
  8027a8:	10a40a04 	addi	r2,r2,-28632
  8027ac:	10800037 	ldwio	r2,0(r2)
  8027b0:	e0bfff0d 	sth	r2,-4(fp)
    return i;
  8027b4:	e0bfff0b 	ldhu	r2,-4(fp)
}
  8027b8:	e037883a 	mov	sp,fp
  8027bc:	df000017 	ldw	fp,0(sp)
  8027c0:	dec00104 	addi	sp,sp,4
  8027c4:	f800283a 	ret

008027c8 <Hal4D13_LockDevice>:

void Hal4D13_LockDevice(UCHAR bTrue)
{
  8027c8:	defffd04 	addi	sp,sp,-12
  8027cc:	df000215 	stw	fp,8(sp)
  8027d0:	df000204 	addi	fp,sp,8
  8027d4:	e13fff05 	stb	r4,-4(fp)
    USHORT c;
    if(bTrue)
  8027d8:	e0bfff03 	ldbu	r2,-4(fp)
  8027dc:	1005003a 	cmpeq	r2,r2,zero
  8027e0:	1000021e 	bne	r2,zero,8027ec <Hal4D13_LockDevice+0x24>
        c = 0;
  8027e4:	e03ffe0d 	sth	zero,-8(fp)
  8027e8:	00000206 	br	8027f4 <Hal4D13_LockDevice+0x2c>
    else
        c = 0xAA37;
  8027ec:	00aa8dc4 	movi	r2,-21961
  8027f0:	e0bffe0d 	sth	r2,-8(fp)
    IOWR(USB_0_BASE,D13_COMMAND_PORT,D13CMD_DEV_LOCK );
  8027f4:	00c04474 	movhi	r3,273
  8027f8:	18e40b04 	addi	r3,r3,-28628
  8027fc:	00802c04 	movi	r2,176
  802800:	18800035 	stwio	r2,0(r3)
    IOWR(USB_0_BASE,D13_DATA_PORT,c);
  802804:	e0fffe0b 	ldhu	r3,-8(fp)
  802808:	00804474 	movhi	r2,273
  80280c:	10a40a04 	addi	r2,r2,-28632
  802810:	10c00035 	stwio	r3,0(r2)
}
  802814:	e037883a 	mov	sp,fp
  802818:	df000017 	ldw	fp,0(sp)
  80281c:	dec00104 	addi	sp,sp,4
  802820:	f800283a 	ret

00802824 <Hal4D13_ReadChipID>:

USHORT Hal4D13_ReadChipID(void)
{
  802824:	defffe04 	addi	sp,sp,-8
  802828:	df000115 	stw	fp,4(sp)
  80282c:	df000104 	addi	fp,sp,4
    USHORT i;
    IOWR(USB_0_BASE, D13_COMMAND_PORT, D13CMD_DEV_RD_CHIPID);
  802830:	00c04474 	movhi	r3,273
  802834:	18e40b04 	addi	r3,r3,-28628
  802838:	00802d44 	movi	r2,181
  80283c:	18800035 	stwio	r2,0(r3)
    i=IORD(USB_0_BASE, D13_DATA_PORT);
  802840:	00804474 	movhi	r2,273
  802844:	10a40a04 	addi	r2,r2,-28632
  802848:	10800037 	ldwio	r2,0(r2)
  80284c:	e0bfff0d 	sth	r2,-4(fp)
    return i;
  802850:	e0bfff0b 	ldhu	r2,-4(fp)
}
  802854:	e037883a 	mov	sp,fp
  802858:	df000017 	ldw	fp,0(sp)
  80285c:	dec00104 	addi	sp,sp,4
  802860:	f800283a 	ret

00802864 <Hal4D13_GetErrorCode>:

UCHAR Hal4D13_GetErrorCode(UCHAR bEPIndex)
{
  802864:	defffd04 	addi	sp,sp,-12
  802868:	df000215 	stw	fp,8(sp)
  80286c:	df000204 	addi	fp,sp,8
  802870:	e13fff05 	stb	r4,-4(fp)
    UCHAR   c;
    IOWR(USB_0_BASE,D13_COMMAND_PORT, D13CMD_EP_RD_ERR+bEPIndex);
  802874:	e0bfff03 	ldbu	r2,-4(fp)
  802878:	10c02804 	addi	r3,r2,160
  80287c:	00804474 	movhi	r2,273
  802880:	10a40b04 	addi	r2,r2,-28628
  802884:	10c00035 	stwio	r3,0(r2)
    c = (UCHAR)(IORD(USB_0_BASE,D13_DATA_PORT)&0x0ff);
  802888:	00804474 	movhi	r2,273
  80288c:	10a40a04 	addi	r2,r2,-28632
  802890:	10800037 	ldwio	r2,0(r2)
  802894:	1007883a 	mov	r3,r2
  802898:	00bfffc4 	movi	r2,-1
  80289c:	1884703a 	and	r2,r3,r2
  8028a0:	e0bffe05 	stb	r2,-8(fp)
    return c;
  8028a4:	e0bffe03 	ldbu	r2,-8(fp)
}
  8028a8:	e037883a 	mov	sp,fp
  8028ac:	df000017 	ldw	fp,0(sp)
  8028b0:	dec00104 	addi	sp,sp,4
  8028b4:	f800283a 	ret

008028b8 <Hal4D13_GetEndpointConfig>:

UCHAR Hal4D13_GetEndpointConfig(UCHAR bEPIndex)
{
  8028b8:	defffd04 	addi	sp,sp,-12
  8028bc:	df000215 	stw	fp,8(sp)
  8028c0:	df000204 	addi	fp,sp,8
  8028c4:	e13fff05 	stb	r4,-4(fp)
    UCHAR   c;
    IOWR(USB_0_BASE,D13_COMMAND_PORT, D13CMD_EP_RD_CNFG+bEPIndex);
  8028c8:	e0bfff03 	ldbu	r2,-4(fp)
  8028cc:	10c00c04 	addi	r3,r2,48
  8028d0:	00804474 	movhi	r2,273
  8028d4:	10a40b04 	addi	r2,r2,-28628
  8028d8:	10c00035 	stwio	r3,0(r2)
    c = (UCHAR)(IORD(USB_0_BASE,D13_DATA_PORT) & 0x0ff);
  8028dc:	00804474 	movhi	r2,273
  8028e0:	10a40a04 	addi	r2,r2,-28632
  8028e4:	10800037 	ldwio	r2,0(r2)
  8028e8:	1007883a 	mov	r3,r2
  8028ec:	00bfffc4 	movi	r2,-1
  8028f0:	1884703a 	and	r2,r3,r2
  8028f4:	e0bffe05 	stb	r2,-8(fp)
    return c;
  8028f8:	e0bffe03 	ldbu	r2,-8(fp)
}
  8028fc:	e037883a 	mov	sp,fp
  802900:	df000017 	ldw	fp,0(sp)
  802904:	dec00104 	addi	sp,sp,4
  802908:	f800283a 	ret

0080290c <Hal4D13_SetEndpointConfig>:

void Hal4D13_SetEndpointConfig(UCHAR bEPConfig, UCHAR bEPIndex)
{
  80290c:	defffd04 	addi	sp,sp,-12
  802910:	df000215 	stw	fp,8(sp)
  802914:	df000204 	addi	fp,sp,8
  802918:	e13ffe05 	stb	r4,-8(fp)
  80291c:	e17fff05 	stb	r5,-4(fp)
    IOWR(USB_0_BASE,D13_COMMAND_PORT, (USHORT)(D13CMD_EP_WR_CNFG+bEPIndex));
  802920:	e0bfff03 	ldbu	r2,-4(fp)
  802924:	10800804 	addi	r2,r2,32
  802928:	10ffffcc 	andi	r3,r2,65535
  80292c:	00804474 	movhi	r2,273
  802930:	10a40b04 	addi	r2,r2,-28628
  802934:	10c00035 	stwio	r3,0(r2)
    IOWR(USB_0_BASE,D13_DATA_PORT,(USHORT)bEPConfig);
  802938:	e0fffe03 	ldbu	r3,-8(fp)
  80293c:	00804474 	movhi	r2,273
  802940:	10a40a04 	addi	r2,r2,-28632
  802944:	10c00035 	stwio	r3,0(r2)
}
  802948:	e037883a 	mov	sp,fp
  80294c:	df000017 	ldw	fp,0(sp)
  802950:	dec00104 	addi	sp,sp,4
  802954:	f800283a 	ret

00802958 <Hal4D13_UnconfigDevice>:
// ************************************************************************
// Subroutines -- 3
// ************************************************************************
*/
void Hal4D13_UnconfigDevice(void)
{
  802958:	deffff04 	addi	sp,sp,-4
  80295c:	df000015 	stw	fp,0(sp)
  802960:	d839883a 	mov	fp,sp
}
  802964:	e037883a 	mov	sp,fp
  802968:	df000017 	ldw	fp,0(sp)
  80296c:	dec00104 	addi	sp,sp,4
  802970:	f800283a 	ret

00802974 <Hal4D13_ConfigDevice>:

void Hal4D13_ConfigDevice(void)
{
  802974:	deffff04 	addi	sp,sp,-4
  802978:	df000015 	stw	fp,0(sp)
  80297c:	d839883a 	mov	fp,sp
}
  802980:	e037883a 	mov	sp,fp
  802984:	df000017 	ldw	fp,0(sp)
  802988:	dec00104 	addi	sp,sp,4
  80298c:	f800283a 	ret

00802990 <Hal4D13_SingleTransmitEP0>:


void Hal4D13_SingleTransmitEP0(UCHAR * buf, USHORT len)
{
  802990:	defffc04 	addi	sp,sp,-16
  802994:	dfc00315 	stw	ra,12(sp)
  802998:	df000215 	stw	fp,8(sp)
  80299c:	df000204 	addi	fp,sp,8
  8029a0:	e13ffe15 	stw	r4,-8(fp)
  8029a4:	e17fff0d 	sth	r5,-4(fp)
    if( len <= EP0_PACKET_SIZE) {
  8029a8:	e0bfff0b 	ldhu	r2,-4(fp)
  8029ac:	10801068 	cmpgeui	r2,r2,65
  8029b0:	1000041e 	bne	r2,zero,8029c4 <Hal4D13_SingleTransmitEP0+0x34>
        Hal4D13_WriteEndpoint(EPINDEX4EP0_CONTROL_IN, buf, len);
  8029b4:	e1bfff0b 	ldhu	r6,-4(fp)
  8029b8:	01000044 	movi	r4,1
  8029bc:	e17ffe17 	ldw	r5,-8(fp)
  8029c0:	08021a40 	call	8021a4 <Hal4D13_WriteEndpoint>
    }
}
  8029c4:	e037883a 	mov	sp,fp
  8029c8:	dfc00117 	ldw	ra,4(sp)
  8029cc:	df000017 	ldw	fp,0(sp)
  8029d0:	dec00204 	addi	sp,sp,8
  8029d4:	f800283a 	ret

008029d8 <Hal4D13_RegAccess>:

void Hal4D13_RegAccess(void)
{
  8029d8:	defffc04 	addi	sp,sp,-16
  8029dc:	dfc00315 	stw	ra,12(sp)
  8029e0:	df000215 	stw	fp,8(sp)
  8029e4:	df000204 	addi	fp,sp,8
    USHORT   c;
    USHORT  i;
    ULONG   l;

    Hal4D13_ResetDevice();
  8029e8:	0801b900 	call	801b90 <Hal4D13_ResetDevice>
    printf("Reseting\n");
  8029ec:	01002074 	movhi	r4,129
  8029f0:	210a3404 	addi	r4,r4,10448
  8029f4:	080651c0 	call	80651c <puts>

    i = Hal4D13_ReadChipID();
  8029f8:	08028240 	call	802824 <Hal4D13_ReadChipID>
  8029fc:	e0bfff0d 	sth	r2,-4(fp)
    printf(" ChipId = %hx\n",i);
  802a00:	e17fff0b 	ldhu	r5,-4(fp)
  802a04:	01002074 	movhi	r4,129
  802a08:	210a3704 	addi	r4,r4,10460
  802a0c:	08063e00 	call	8063e0 <printf>

    i = Hal4D13_GetDataFromChipRam();
  802a10:	08027080 	call	802708 <Hal4D13_GetDataFromChipRam>
  802a14:	e0bfff0d 	sth	r2,-4(fp)
    printf(" Chip RAM = %hx\n",i);
  802a18:	e17fff0b 	ldhu	r5,-4(fp)
  802a1c:	01002074 	movhi	r4,129
  802a20:	210a3b04 	addi	r4,r4,10476
  802a24:	08063e00 	call	8063e0 <printf>

    printf("Writing 0x55AA,");
  802a28:	01002074 	movhi	r4,129
  802a2c:	210a4004 	addi	r4,r4,10496
  802a30:	08063e00 	call	8063e0 <printf>
    Hal4D13_SetDataToChipRam(0x55AA);
  802a34:	01156a84 	movi	r4,21930
  802a38:	08027480 	call	802748 <Hal4D13_SetDataToChipRam>
    i = Hal4D13_GetDataFromChipRam();
  802a3c:	08027080 	call	802708 <Hal4D13_GetDataFromChipRam>
  802a40:	e0bfff0d 	sth	r2,-4(fp)
    printf(" Chip RAM = %hx\n",i);
  802a44:	e17fff0b 	ldhu	r5,-4(fp)
  802a48:	01002074 	movhi	r4,129
  802a4c:	210a3b04 	addi	r4,r4,10476
  802a50:	08063e00 	call	8063e0 <printf>

    l = Hal4D13_GetIntEnable();
  802a54:	08023bc0 	call	8023bc <Hal4D13_GetIntEnable>
  802a58:	e0bffe15 	stw	r2,-8(fp)
    printf("Hal4D13_GetIntEnable = %lx\n",l);
  802a5c:	01002074 	movhi	r4,129
  802a60:	210a4404 	addi	r4,r4,10512
  802a64:	e17ffe17 	ldw	r5,-8(fp)
  802a68:	08063e00 	call	8063e0 <printf>

    l = Hal4D13_ReadInterruptRegister();
  802a6c:	08024880 	call	802488 <Hal4D13_ReadInterruptRegister>
  802a70:	e0bffe15 	stw	r2,-8(fp)
    printf("Hal4D13_ReadInterruptRegister = %lx\n",l);
  802a74:	01002074 	movhi	r4,129
  802a78:	210a4b04 	addi	r4,r4,10540
  802a7c:	e17ffe17 	ldw	r5,-8(fp)
  802a80:	08063e00 	call	8063e0 <printf>

    i = Hal4D13_GetDevConfig();
  802a84:	0801bbc0 	call	801bbc <Hal4D13_GetDevConfig>
  802a88:	e0bfff0d 	sth	r2,-4(fp)
    printf("Hal4D13_GetDevConfig = %hx\n",i);
  802a8c:	e17fff0b 	ldhu	r5,-4(fp)
  802a90:	01002074 	movhi	r4,129
  802a94:	210a5504 	addi	r4,r4,10580
  802a98:	08063e00 	call	8063e0 <printf>

    i = Hal4D13_GetDMAConfig();
  802a9c:	08026480 	call	802648 <Hal4D13_GetDMAConfig>
  802aa0:	e0bfff0d 	sth	r2,-4(fp)
    printf("Hal4D13_GetDMAConfig = %hx\n",i);
  802aa4:	e17fff0b 	ldhu	r5,-4(fp)
  802aa8:	01002074 	movhi	r4,129
  802aac:	210a5c04 	addi	r4,r4,10608
  802ab0:	08063e00 	call	8063e0 <printf>

    i = Hal4D13_GetDMACounter();
  802ab4:	08026c80 	call	8026c8 <Hal4D13_GetDMACounter>
  802ab8:	e0bfff0d 	sth	r2,-4(fp)
    printf("Hal4D13_GetDMACounter = %hx\n",i);
  802abc:	e17fff0b 	ldhu	r5,-4(fp)
  802ac0:	01002074 	movhi	r4,129
  802ac4:	210a6304 	addi	r4,r4,10636
  802ac8:	08063e00 	call	8063e0 <printf>

    i = Hal4D13_ReadCurrentFrameNumber();
  802acc:	08027880 	call	802788 <Hal4D13_ReadCurrentFrameNumber>
  802ad0:	e0bfff0d 	sth	r2,-4(fp)
    printf("Hal4D13_ReadCurrentFrameNumber = %hx\n",i);
  802ad4:	e17fff0b 	ldhu	r5,-4(fp)
  802ad8:	01002074 	movhi	r4,129
  802adc:	210a6b04 	addi	r4,r4,10668
  802ae0:	08063e00 	call	8063e0 <printf>

    c = Hal4D13_GetMode();
  802ae4:	0801c7c0 	call	801c7c <Hal4D13_GetMode>
  802ae8:	10803fcc 	andi	r2,r2,255
  802aec:	e0bfff8d 	sth	r2,-2(fp)
    printf("Hal4D13_GetMode = %x\n",c);
  802af0:	e17fff8b 	ldhu	r5,-2(fp)
  802af4:	01002074 	movhi	r4,129
  802af8:	210a7504 	addi	r4,r4,10708
  802afc:	08063e00 	call	8063e0 <printf>

    c = Hal4D13_GetEndpointStatusWOInteruptClear(EPINDEX4EP0_CONTROL_OUT);
  802b00:	0009883a 	mov	r4,zero
  802b04:	080254c0 	call	80254c <Hal4D13_GetEndpointStatusWOInteruptClear>
  802b08:	10803fcc 	andi	r2,r2,255
  802b0c:	e0bfff8d 	sth	r2,-2(fp)
    printf("Hal4D13_GetEndpointStatus EP0 = %x\n",c);
  802b10:	e17fff8b 	ldhu	r5,-2(fp)
  802b14:	01002074 	movhi	r4,129
  802b18:	210a7b04 	addi	r4,r4,10732
  802b1c:	08063e00 	call	8063e0 <printf>

    c = Hal4D13_GetAddress();
  802b20:	0801cc80 	call	801cc8 <Hal4D13_GetAddress>
  802b24:	10803fcc 	andi	r2,r2,255
  802b28:	e0bfff8d 	sth	r2,-2(fp)
//  printf("Hal4D13_GetAddress = %x\n",c);
}
  802b2c:	e037883a 	mov	sp,fp
  802b30:	dfc00117 	ldw	ra,4(sp)
  802b34:	df000017 	ldw	fp,0(sp)
  802b38:	dec00204 	addi	sp,sp,8
  802b3c:	f800283a 	ret

00802b40 <Hal4D13_StallEP0InControlWrite>:

void Hal4D13_StallEP0InControlWrite(void)
{
  802b40:	defffe04 	addi	sp,sp,-8
  802b44:	dfc00115 	stw	ra,4(sp)
  802b48:	df000015 	stw	fp,0(sp)
  802b4c:	d839883a 	mov	fp,sp
    Hal4D13_SetEndpointStatus(EPINDEX4EP0_CONTROL_IN, D13REG_EPSTS_STALL);
  802b50:	01000044 	movi	r4,1
  802b54:	01402004 	movi	r5,128
  802b58:	08025a00 	call	8025a0 <Hal4D13_SetEndpointStatus>
    Hal4D13_SetEndpointStatus(EPINDEX4EP0_CONTROL_OUT, D13REG_EPSTS_STALL);
  802b5c:	0009883a 	mov	r4,zero
  802b60:	01402004 	movi	r5,128
  802b64:	08025a00 	call	8025a0 <Hal4D13_SetEndpointStatus>
}
  802b68:	e037883a 	mov	sp,fp
  802b6c:	dfc00117 	ldw	ra,4(sp)
  802b70:	df000017 	ldw	fp,0(sp)
  802b74:	dec00204 	addi	sp,sp,8
  802b78:	f800283a 	ret

00802b7c <Hal4D13_StallEP0InControlRead>:

void Hal4D13_StallEP0InControlRead(void)
{
  802b7c:	defffe04 	addi	sp,sp,-8
  802b80:	dfc00115 	stw	ra,4(sp)
  802b84:	df000015 	stw	fp,0(sp)
  802b88:	d839883a 	mov	fp,sp
    Hal4D13_SetEndpointStatus(EPINDEX4EP0_CONTROL_OUT, D13REG_EPSTS_STALL);
  802b8c:	0009883a 	mov	r4,zero
  802b90:	01402004 	movi	r5,128
  802b94:	08025a00 	call	8025a0 <Hal4D13_SetEndpointStatus>
    Hal4D13_SetEndpointStatus(EPINDEX4EP0_CONTROL_IN, D13REG_EPSTS_STALL);
  802b98:	01000044 	movi	r4,1
  802b9c:	01402004 	movi	r5,128
  802ba0:	08025a00 	call	8025a0 <Hal4D13_SetEndpointStatus>
}
  802ba4:	e037883a 	mov	sp,fp
  802ba8:	dfc00117 	ldw	ra,4(sp)
  802bac:	df000017 	ldw	fp,0(sp)
  802bb0:	dec00204 	addi	sp,sp,8
  802bb4:	f800283a 	ret

00802bb8 <Hal4D13_IsSetupPktInvalid>:

BOOLEAN Hal4D13_IsSetupPktInvalid(void)
{
  802bb8:	defffd04 	addi	sp,sp,-12
  802bbc:	dfc00215 	stw	ra,8(sp)
  802bc0:	df000115 	stw	fp,4(sp)
  802bc4:	df000104 	addi	fp,sp,4
    USHORT SetupPacketInvalid;
    SetupPacketInvalid = Hal4D13_GetEndpointStatusWOInteruptClear(EPINDEX4EP0_CONTROL_OUT)&D13REG_EPSTS_OVWR;
  802bc8:	0009883a 	mov	r4,zero
  802bcc:	080254c0 	call	80254c <Hal4D13_GetEndpointStatusWOInteruptClear>
  802bd0:	10803fcc 	andi	r2,r2,255
  802bd4:	1080020c 	andi	r2,r2,8
  802bd8:	e0bfff0d 	sth	r2,-4(fp)
    return SetupPacketInvalid;
  802bdc:	e0bfff0b 	ldhu	r2,-4(fp)
  802be0:	10803fcc 	andi	r2,r2,255
}
  802be4:	e037883a 	mov	sp,fp
  802be8:	dfc00117 	ldw	ra,4(sp)
  802bec:	df000017 	ldw	fp,0(sp)
  802bf0:	dec00204 	addi	sp,sp,8
  802bf4:	f800283a 	ret

00802bf8 <Write_HC_Config_Reg>:

void Write_HC_Config_Reg(unsigned short Config)
{
  802bf8:	defffe04 	addi	sp,sp,-8
  802bfc:	df000115 	stw	fp,4(sp)
  802c00:	df000104 	addi	fp,sp,4
  802c04:	e13fff0d 	sth	r4,-4(fp)
    IOWR(USB_0_BASE,HC_COMMAND_PORT , HCCMD_WR_CNFG_REG );
  802c08:	00c04474 	movhi	r3,273
  802c0c:	18e40904 	addi	r3,r3,-28636
  802c10:	00802804 	movi	r2,160
  802c14:	18800035 	stwio	r2,0(r3)
    IOWR(USB_0_BASE,HC_DATA_PORT , Config);
  802c18:	e0ffff0b 	ldhu	r3,-4(fp)
  802c1c:	00804474 	movhi	r2,273
  802c20:	10a40804 	addi	r2,r2,-28640
  802c24:	10c00035 	stwio	r3,0(r2)
}
  802c28:	e037883a 	mov	sp,fp
  802c2c:	df000017 	ldw	fp,0(sp)
  802c30:	dec00104 	addi	sp,sp,4
  802c34:	f800283a 	ret

00802c38 <Read_HC_Config_Reg>:

unsigned short Read_HC_Config_Reg(void)
{
  802c38:	deffff04 	addi	sp,sp,-4
  802c3c:	df000015 	stw	fp,0(sp)
  802c40:	d839883a 	mov	fp,sp
    IOWR(USB_0_BASE,HC_COMMAND_PORT , HCCMD_RD_CNFG_REG );
  802c44:	00c04474 	movhi	r3,273
  802c48:	18e40904 	addi	r3,r3,-28636
  802c4c:	00800804 	movi	r2,32
  802c50:	18800035 	stwio	r2,0(r3)
    return IORD(USB_0_BASE,HC_DATA_PORT);
  802c54:	00804474 	movhi	r2,273
  802c58:	10a40804 	addi	r2,r2,-28640
  802c5c:	10800037 	ldwio	r2,0(r2)
  802c60:	10bfffcc 	andi	r2,r2,65535
}
  802c64:	e037883a 	mov	sp,fp
  802c68:	df000017 	ldw	fp,0(sp)
  802c6c:	dec00104 	addi	sp,sp,4
  802c70:	f800283a 	ret

00802c74 <HID_Get_Report>:
/* Required global variables */
extern CONTROL_XFER ControlData; // Holds data from reveived packets
extern HID_KEYS_REPORT new_report;
extern HID_SETTINGS hid_settings;

void HID_Get_Report() {
  802c74:	defffd04 	addi	sp,sp,-12
  802c78:	dfc00215 	stw	ra,8(sp)
  802c7c:	df000115 	stw	fp,4(sp)
  802c80:	df000104 	addi	fp,sp,4
   UCHAR   bDescriptor =      MSB(ControlData.DeviceRequest.wValue);
  802c84:	00802074 	movhi	r2,129
  802c88:	109c7d04 	addi	r2,r2,29172
  802c8c:	1080010b 	ldhu	r2,4(r2)
  802c90:	10bfffcc 	andi	r2,r2,65535
  802c94:	1004d23a 	srli	r2,r2,8
  802c98:	1007883a 	mov	r3,r2
  802c9c:	00bfffc4 	movi	r2,-1
  802ca0:	1884703a 	and	r2,r3,r2
  802ca4:	e0bfffc5 	stb	r2,-1(fp)
   UCHAR   bDescriptorIndex = LSB(ControlData.DeviceRequest.wValue);
  802ca8:	00802074 	movhi	r2,129
  802cac:	109c7d04 	addi	r2,r2,29172
  802cb0:	1080010b 	ldhu	r2,4(r2)
  802cb4:	1007883a 	mov	r3,r2
  802cb8:	00bfffc4 	movi	r2,-1
  802cbc:	1884703a 	and	r2,r3,r2
  802cc0:	e0bfff85 	stb	r2,-2(fp)
   USHORT  bLen = ControlData.DeviceRequest.wLength;
  802cc4:	00802074 	movhi	r2,129
  802cc8:	109c7d04 	addi	r2,r2,29172
  802ccc:	1080020b 	ldhu	r2,8(r2)
  802cd0:	e0bfff0d 	sth	r2,-4(fp)
   // printf("bDescri = %d : ",bDescriptor);
   // printf("Index = %d\n",bDescriptorIndex);

   if(sizeof(new_report) <= bLen){
  802cd4:	e0bfff0b 	ldhu	r2,-4(fp)
  802cd8:	10800230 	cmpltui	r2,r2,8
  802cdc:	1000041e 	bne	r2,zero,802cf0 <HID_Get_Report+0x7c>
      Chap9_BurstTransmitEP0((PUCHAR)&new_report, sizeof(new_report));
  802ce0:	01002074 	movhi	r4,129
  802ce4:	211c5d04 	addi	r4,r4,29044
  802ce8:	01400204 	movi	r5,8
  802cec:	08014080 	call	801408 <Chap9_BurstTransmitEP0>
   }
   hid_settings.state = connected;
  802cf0:	00c02074 	movhi	r3,129
  802cf4:	18dc6204 	addi	r3,r3,29064
  802cf8:	00800044 	movi	r2,1
  802cfc:	18800115 	stw	r2,4(r3)
}
  802d00:	e037883a 	mov	sp,fp
  802d04:	dfc00117 	ldw	ra,4(sp)
  802d08:	df000017 	ldw	fp,0(sp)
  802d0c:	dec00204 	addi	sp,sp,8
  802d10:	f800283a 	ret

00802d14 <HID_Get_Idle>:

void HID_Get_Idle() {
  802d14:	defffe04 	addi	sp,sp,-8
  802d18:	dfc00115 	stw	ra,4(sp)
  802d1c:	df000015 	stw	fp,0(sp)
  802d20:	d839883a 	mov	fp,sp
   printf("Get Idle\n");
  802d24:	01002074 	movhi	r4,129
  802d28:	210a8404 	addi	r4,r4,10768
  802d2c:	080651c0 	call	80651c <puts>
}
  802d30:	e037883a 	mov	sp,fp
  802d34:	dfc00117 	ldw	ra,4(sp)
  802d38:	df000017 	ldw	fp,0(sp)
  802d3c:	dec00204 	addi	sp,sp,8
  802d40:	f800283a 	ret

00802d44 <HID_Get_Protocol>:

void HID_Get_Protocol() {
  802d44:	defffe04 	addi	sp,sp,-8
  802d48:	dfc00115 	stw	ra,4(sp)
  802d4c:	df000015 	stw	fp,0(sp)
  802d50:	d839883a 	mov	fp,sp
   printf("Get Protocol\n");
  802d54:	01002074 	movhi	r4,129
  802d58:	210a8704 	addi	r4,r4,10780
  802d5c:	080651c0 	call	80651c <puts>
}
  802d60:	e037883a 	mov	sp,fp
  802d64:	dfc00117 	ldw	ra,4(sp)
  802d68:	df000017 	ldw	fp,0(sp)
  802d6c:	dec00204 	addi	sp,sp,8
  802d70:	f800283a 	ret

00802d74 <HID_Set_Report>:

void HID_Set_Report() {
  802d74:	defffe04 	addi	sp,sp,-8
  802d78:	dfc00115 	stw	ra,4(sp)
  802d7c:	df000015 	stw	fp,0(sp)
  802d80:	d839883a 	mov	fp,sp
   printf("Set Report\n");
  802d84:	01002074 	movhi	r4,129
  802d88:	210a8b04 	addi	r4,r4,10796
  802d8c:	080651c0 	call	80651c <puts>
}
  802d90:	e037883a 	mov	sp,fp
  802d94:	dfc00117 	ldw	ra,4(sp)
  802d98:	df000017 	ldw	fp,0(sp)
  802d9c:	dec00204 	addi	sp,sp,8
  802da0:	f800283a 	ret

00802da4 <HID_Set_Idle>:

void HID_Set_Idle() {
  802da4:	defffd04 	addi	sp,sp,-12
  802da8:	dfc00215 	stw	ra,8(sp)
  802dac:	df000115 	stw	fp,4(sp)
  802db0:	df000104 	addi	fp,sp,4
   printf("Set Idle\n");
  802db4:	01002074 	movhi	r4,129
  802db8:	210a8e04 	addi	r4,r4,10808
  802dbc:	080651c0 	call	80651c <puts>

   UCHAR duration = MSB(ControlData.DeviceRequest.wValue);
  802dc0:	00802074 	movhi	r2,129
  802dc4:	109c7d04 	addi	r2,r2,29172
  802dc8:	1080010b 	ldhu	r2,4(r2)
  802dcc:	10bfffcc 	andi	r2,r2,65535
  802dd0:	1004d23a 	srli	r2,r2,8
  802dd4:	1007883a 	mov	r3,r2
  802dd8:	00bfffc4 	movi	r2,-1
  802ddc:	1884703a 	and	r2,r3,r2
  802de0:	e0bfff45 	stb	r2,-3(fp)
   UCHAR reportID = LSB(ControlData.DeviceRequest.wValue);
  802de4:	00802074 	movhi	r2,129
  802de8:	109c7d04 	addi	r2,r2,29172
  802dec:	1080010b 	ldhu	r2,4(r2)
  802df0:	1007883a 	mov	r3,r2
  802df4:	00bfffc4 	movi	r2,-1
  802df8:	1884703a 	and	r2,r3,r2
  802dfc:	e0bfff05 	stb	r2,-4(fp)

   printf("Duration: %x, ReportID: %x\n", duration, reportID);
  802e00:	e17fff43 	ldbu	r5,-3(fp)
  802e04:	e1bfff03 	ldbu	r6,-4(fp)
  802e08:	01002074 	movhi	r4,129
  802e0c:	210a9104 	addi	r4,r4,10820
  802e10:	08063e00 	call	8063e0 <printf>

   hid_settings.idle_time = 0;
  802e14:	00802074 	movhi	r2,129
  802e18:	109c6204 	addi	r2,r2,29064
  802e1c:	10000015 	stw	zero,0(r2)
   if(duration != 0) {
  802e20:	e0bfff43 	ldbu	r2,-3(fp)
  802e24:	1005003a 	cmpeq	r2,r2,zero
  802e28:	1000071e 	bne	r2,zero,802e48 <HID_Set_Idle+0xa4>
	   hid_settings.idle_time = duration * 4; //wait time in milliseconds
  802e2c:	e0bfff43 	ldbu	r2,-3(fp)
  802e30:	1085883a 	add	r2,r2,r2
  802e34:	1085883a 	add	r2,r2,r2
  802e38:	1007883a 	mov	r3,r2
  802e3c:	00802074 	movhi	r2,129
  802e40:	109c6204 	addi	r2,r2,29064
  802e44:	10c00015 	stw	r3,0(r2)
   }
   if(reportID != 0) {
  802e48:	e0bfff03 	ldbu	r2,-4(fp)
  802e4c:	1005003a 	cmpeq	r2,r2,zero
  802e50:	1000041e 	bne	r2,zero,802e64 <HID_Set_Idle+0xc0>
      printf("ReportID = %ud\n", reportID);
  802e54:	e17fff03 	ldbu	r5,-4(fp)
  802e58:	01002074 	movhi	r4,129
  802e5c:	210a9804 	addi	r4,r4,10848
  802e60:	08063e00 	call	8063e0 <printf>
   }
   hid_settings.state = connected;
  802e64:	00c02074 	movhi	r3,129
  802e68:	18dc6204 	addi	r3,r3,29064
  802e6c:	00800044 	movi	r2,1
  802e70:	18800115 	stw	r2,4(r3)
}
  802e74:	e037883a 	mov	sp,fp
  802e78:	dfc00117 	ldw	ra,4(sp)
  802e7c:	df000017 	ldw	fp,0(sp)
  802e80:	dec00204 	addi	sp,sp,8
  802e84:	f800283a 	ret

00802e88 <HID_Set_Protocol>:

void HID_Set_Protocol() {
  802e88:	defffe04 	addi	sp,sp,-8
  802e8c:	dfc00115 	stw	ra,4(sp)
  802e90:	df000015 	stw	fp,0(sp)
  802e94:	d839883a 	mov	fp,sp
   printf("Set Protocol\n");
  802e98:	01002074 	movhi	r4,129
  802e9c:	210a9c04 	addi	r4,r4,10864
  802ea0:	080651c0 	call	80651c <puts>
}
  802ea4:	e037883a 	mov	sp,fp
  802ea8:	dfc00117 	ldw	ra,4(sp)
  802eac:	df000017 	ldw	fp,0(sp)
  802eb0:	dec00204 	addi	sp,sp,8
  802eb4:	f800283a 	ret

00802eb8 <fn_usb_isr>:

// ************************************************************************
//  ISR Subroutine
// ************************************************************************
void fn_usb_isr(void)
{
  802eb8:	defffe04 	addi	sp,sp,-8
  802ebc:	dfc00115 	stw	ra,4(sp)
  802ec0:	df000015 	stw	fp,0(sp)
  802ec4:	d839883a 	mov	fp,sp
    disable_irq();
  802ec8:	08055a80 	call	8055a8 <disable_irq>
    Hal4D13_LockDevice(0);
  802ecc:	0009883a 	mov	r4,zero
  802ed0:	08027c80 	call	8027c8 <Hal4D13_LockDevice>
    enable_irq();
  802ed4:	08055f80 	call	8055f8 <enable_irq>
}
  802ed8:	e037883a 	mov	sp,fp
  802edc:	dfc00117 	ldw	ra,4(sp)
  802ee0:	df000017 	ldw	fp,0(sp)
  802ee4:	dec00204 	addi	sp,sp,8
  802ee8:	f800283a 	ret

00802eec <usb_isr>:

void usb_isr(void)
{
  802eec:	defffd04 	addi	sp,sp,-12
  802ef0:	dfc00215 	stw	ra,8(sp)
  802ef4:	df000115 	stw	fp,4(sp)
  802ef8:	df000104 	addi	fp,sp,4
    ULONG   i_st;
    disable_irq();
  802efc:	08055a80 	call	8055a8 <disable_irq>
    Hal4D13_LockDevice(0); //Unlock ISP1362 buffers to read/write
  802f00:	0009883a 	mov	r4,zero
  802f04:	08027c80 	call	8027c8 <Hal4D13_LockDevice>
    bD13flags.bits.At_IRQL1 = 1;
  802f08:	00c02074 	movhi	r3,129
  802f0c:	18dc5b04 	addi	r3,r3,29036
  802f10:	18800017 	ldw	r2,0(r3)
  802f14:	10800114 	ori	r2,r2,4
  802f18:	18800015 	stw	r2,0(r3)
    i_st = Hal4D13_ReadInterruptRegister();
  802f1c:	08024880 	call	802488 <Hal4D13_ReadInterruptRegister>
  802f20:	e0bfff15 	stw	r2,-4(fp)
    if(i_st != 0) 
  802f24:	e0bfff17 	ldw	r2,-4(fp)
  802f28:	1005003a 	cmpeq	r2,r2,zero
  802f2c:	1000381e 	bne	r2,zero,803010 <usb_isr+0x124>
    {
        if(i_st & D13REG_INTSRC_BUSRESET)
  802f30:	e0bfff17 	ldw	r2,-4(fp)
  802f34:	1080004c 	andi	r2,r2,1
  802f38:	10803fcc 	andi	r2,r2,255
  802f3c:	1005003a 	cmpeq	r2,r2,zero
  802f40:	1000021e 	bne	r2,zero,802f4c <usb_isr+0x60>
            Isr_BusReset();
  802f44:	08030400 	call	803040 <Isr_BusReset>
  802f48:	00003106 	br	803010 <usb_isr+0x124>
        else if(i_st & D13REG_INTSRC_SUSPEND)
  802f4c:	e0bfff17 	ldw	r2,-4(fp)
  802f50:	1080010c 	andi	r2,r2,4
  802f54:	1005003a 	cmpeq	r2,r2,zero
  802f58:	1000021e 	bne	r2,zero,802f64 <usb_isr+0x78>
            Isr_SuspendChange();
  802f5c:	080312c0 	call	80312c <Isr_SuspendChange>
  802f60:	00002b06 	br	803010 <usb_isr+0x124>
        else if(i_st & D13REG_INTSRC_EOT)
  802f64:	e0bfff17 	ldw	r2,-4(fp)
  802f68:	1080020c 	andi	r2,r2,8
  802f6c:	1005003a 	cmpeq	r2,r2,zero
  802f70:	1000021e 	bne	r2,zero,802f7c <usb_isr+0x90>
            Isr_DmaEot();
  802f74:	080318c0 	call	80318c <Isr_DmaEot>
  802f78:	00002506 	br	803010 <usb_isr+0x124>
        else if(i_st & (D13REG_INTSRC_SOF|D13REG_INTSRC_PSEUDO_SOF))
  802f7c:	e0bfff17 	ldw	r2,-4(fp)
  802f80:	10800c0c 	andi	r2,r2,48
  802f84:	1005003a 	cmpeq	r2,r2,zero
  802f88:	1000021e 	bne	r2,zero,802f94 <usb_isr+0xa8>
            Isr_SOF();
  802f8c:	08032580 	call	803258 <Isr_SOF>
  802f90:	00001f06 	br	803010 <usb_isr+0x124>
        else if(i_st & D13REG_INTSRC_SHORT_PACKET)
  802f94:	e0bfff17 	ldw	r2,-4(fp)
  802f98:	1080100c 	andi	r2,r2,64
  802f9c:	1005003a 	cmpeq	r2,r2,zero
  802fa0:	1000021e 	bne	r2,zero,802fac <usb_isr+0xc0>
            Isr_SHORT_PACKET();
  802fa4:	080315c0 	call	80315c <Isr_SHORT_PACKET>
  802fa8:	00001906 	br	803010 <usb_isr+0x124>
        else if(i_st & D13REG_INTSRC_RESUME)
  802fac:	e0bfff17 	ldw	r2,-4(fp)
  802fb0:	1080008c 	andi	r2,r2,2
  802fb4:	1005003a 	cmpeq	r2,r2,zero
  802fb8:	1000061e 	bne	r2,zero,802fd4 <usb_isr+0xe8>
        {
            printf("RESUME\n");
  802fbc:	01002074 	movhi	r4,129
  802fc0:	210aa004 	addi	r4,r4,10880
  802fc4:	080651c0 	call	80651c <puts>
            Hal4D13_LockDevice(0);
  802fc8:	0009883a 	mov	r4,zero
  802fcc:	08027c80 	call	8027c8 <Hal4D13_LockDevice>
  802fd0:	00000f06 	br	803010 <usb_isr+0x124>
        }
        else 
        {
            if(i_st & D13REG_INTSRC_EP0OUT)  
  802fd4:	e0bfff17 	ldw	r2,-4(fp)
  802fd8:	1080400c 	andi	r2,r2,256
  802fdc:	1005003a 	cmpeq	r2,r2,zero
  802fe0:	1000011e 	bne	r2,zero,802fe8 <usb_isr+0xfc>
                Isr_Ep00RxDone();
  802fe4:	08032740 	call	803274 <Isr_Ep00RxDone>
            if(i_st & D13REG_INTSRC_EP0IN)
  802fe8:	e0bfff17 	ldw	r2,-4(fp)
  802fec:	1080800c 	andi	r2,r2,512
  802ff0:	1005003a 	cmpeq	r2,r2,zero
  802ff4:	1000011e 	bne	r2,zero,802ffc <usb_isr+0x110>
                Isr_Ep00TxDone();
  802ff8:	08034780 	call	803478 <Isr_Ep00TxDone>
            if(i_st & D13REG_INTSRC_EP01)
  802ffc:	e0bfff17 	ldw	r2,-4(fp)
  803000:	1081000c 	andi	r2,r2,1024
  803004:	1005003a 	cmpeq	r2,r2,zero
  803008:	1000011e 	bne	r2,zero,803010 <usb_isr+0x124>
            	Isr_Ep01Done();
  80300c:	08036900 	call	803690 <Isr_Ep01Done>
        }
    }
    enable_irq();
  803010:	08055f80 	call	8055f8 <enable_irq>
	bD13flags.bits.At_IRQL1 = 0;
  803014:	01002074 	movhi	r4,129
  803018:	211c5b04 	addi	r4,r4,29036
  80301c:	20c00017 	ldw	r3,0(r4)
  803020:	00bffec4 	movi	r2,-5
  803024:	1884703a 	and	r2,r3,r2
  803028:	20800015 	stw	r2,0(r4)
}
  80302c:	e037883a 	mov	sp,fp
  803030:	dfc00117 	ldw	ra,4(sp)
  803034:	df000017 	ldw	fp,0(sp)
  803038:	dec00204 	addi	sp,sp,8
  80303c:	f800283a 	ret

00803040 <Isr_BusReset>:

void Isr_BusReset(void)
{
  803040:	defffe04 	addi	sp,sp,-8
  803044:	dfc00115 	stw	ra,4(sp)
  803048:	df000015 	stw	fp,0(sp)
  80304c:	d839883a 	mov	fp,sp
    printf("BUS RESET\n");
  803050:	01002074 	movhi	r4,129
  803054:	210aa204 	addi	r4,r4,10888
  803058:	080651c0 	call	80651c <puts>
    reconnect_USB_controller();
  80305c:	0803d400 	call	803d40 <reconnect_USB_controller>
    bD13flags.bits.DCP_state = 0x00;
  803060:	01002074 	movhi	r4,129
  803064:	211c5b04 	addi	r4,r4,29036
  803068:	20c00017 	ldw	r3,0(r4)
  80306c:	00bc3fc4 	movi	r2,-3841
  803070:	1884703a 	and	r2,r3,r2
  803074:	20800015 	stw	r2,0(r4)
    bD13flags.bits.dma_disable=0x00;
  803078:	01002074 	movhi	r4,129
  80307c:	211c5b04 	addi	r4,r4,29036
  803080:	20c00017 	ldw	r3,0(r4)
  803084:	00bfff34 	movhi	r2,65532
  803088:	10bfffc4 	addi	r2,r2,-1
  80308c:	1884703a 	and	r2,r3,r2
  803090:	20800015 	stw	r2,0(r4)
    hid_settings.state = reset;
  803094:	00802074 	movhi	r2,129
  803098:	109c6204 	addi	r2,r2,29064
  80309c:	10000115 	stw	zero,4(r2)
    bUSBCheck_Device_State.State_bits.DEVICE_DEFAULT_STATE = 1;
  8030a0:	00c02074 	movhi	r3,129
  8030a4:	18dc6404 	addi	r3,r3,29072
  8030a8:	18800003 	ldbu	r2,0(r3)
  8030ac:	10800054 	ori	r2,r2,1
  8030b0:	18800005 	stb	r2,0(r3)
    bUSBCheck_Device_State.State_bits.DEVICE_ADDRESS_STATE = 0;
  8030b4:	01002074 	movhi	r4,129
  8030b8:	211c6404 	addi	r4,r4,29072
  8030bc:	20c00003 	ldbu	r3,0(r4)
  8030c0:	00bfff44 	movi	r2,-3
  8030c4:	1884703a 	and	r2,r3,r2
  8030c8:	20800005 	stb	r2,0(r4)
    bUSBCheck_Device_State.State_bits.DEVICE_CONFIGURATION_STATE = 0;
  8030cc:	01002074 	movhi	r4,129
  8030d0:	211c6404 	addi	r4,r4,29072
  8030d4:	20c00003 	ldbu	r3,0(r4)
  8030d8:	00bffec4 	movi	r2,-5
  8030dc:	1884703a 	and	r2,r3,r2
  8030e0:	20800005 	stb	r2,0(r4)
    bUSBCheck_Device_State.State_bits.RESET_BITS = 0;
  8030e4:	00802074 	movhi	r2,129
  8030e8:	109c6404 	addi	r2,r2,29072
  8030ec:	10000085 	stb	zero,2(r2)

	new_report.modifier = 0x00;
  8030f0:	00802074 	movhi	r2,129
  8030f4:	109c5d04 	addi	r2,r2,29044
  8030f8:	10000005 	stb	zero,0(r2)
	new_report.reserved = 0x00;
  8030fc:	00802074 	movhi	r2,129
  803100:	109c5d04 	addi	r2,r2,29044
  803104:	10000045 	stb	zero,1(r2)
	new_report.keycode[0] = 0x00;
  803108:	00802074 	movhi	r2,129
  80310c:	109c5d04 	addi	r2,r2,29044
  803110:	10000085 	stb	zero,2(r2)

    //TODO: Reset Everything needed to reset program. Basically.

    config_endpoints();
  803114:	0803c4c0 	call	803c4c <config_endpoints>
}
  803118:	e037883a 	mov	sp,fp
  80311c:	dfc00117 	ldw	ra,4(sp)
  803120:	df000017 	ldw	fp,0(sp)
  803124:	dec00204 	addi	sp,sp,8
  803128:	f800283a 	ret

0080312c <Isr_SuspendChange>:

void Isr_SuspendChange(void)
{
  80312c:	deffff04 	addi	sp,sp,-4
  803130:	df000015 	stw	fp,0(sp)
  803134:	d839883a 	mov	fp,sp
    bD13flags.bits.suspend=1;
  803138:	00802074 	movhi	r2,129
  80313c:	109c5b04 	addi	r2,r2,29036
  803140:	10c00017 	ldw	r3,0(r2)
  803144:	18c00094 	ori	r3,r3,2
  803148:	10c00015 	stw	r3,0(r2)
}
  80314c:	e037883a 	mov	sp,fp
  803150:	df000017 	ldw	fp,0(sp)
  803154:	dec00104 	addi	sp,sp,4
  803158:	f800283a 	ret

0080315c <Isr_SHORT_PACKET>:

void Isr_SHORT_PACKET(void)
{
  80315c:	defffe04 	addi	sp,sp,-8
  803160:	dfc00115 	stw	ra,4(sp)
  803164:	df000015 	stw	fp,0(sp)
  803168:	d839883a 	mov	fp,sp
    printf("SHORT PACKET INTERRUPT\n");
  80316c:	01002074 	movhi	r4,129
  803170:	210aa504 	addi	r4,r4,10900
  803174:	080651c0 	call	80651c <puts>
}
  803178:	e037883a 	mov	sp,fp
  80317c:	dfc00117 	ldw	ra,4(sp)
  803180:	df000017 	ldw	fp,0(sp)
  803184:	dec00204 	addi	sp,sp,8
  803188:	f800283a 	ret

0080318c <Isr_DmaEot>:

void Isr_DmaEot(void)
{
  80318c:	defffe04 	addi	sp,sp,-8
  803190:	dfc00115 	stw	ra,4(sp)
  803194:	df000015 	stw	fp,0(sp)
  803198:	d839883a 	mov	fp,sp
    bD13flags.bits.dma_disable =0;
  80319c:	01002074 	movhi	r4,129
  8031a0:	211c5b04 	addi	r4,r4,29036
  8031a4:	20c00017 	ldw	r3,0(r4)
  8031a8:	00bfff34 	movhi	r2,65532
  8031ac:	10bfffc4 	addi	r2,r2,-1
  8031b0:	1884703a 	and	r2,r3,r2
  8031b4:	20800015 	stw	r2,0(r4)

    if(bD13flags.bits.dma_state == DMA_PENDING)
  8031b8:	00802074 	movhi	r2,129
  8031bc:	109c5b04 	addi	r2,r2,29036
  8031c0:	10800017 	ldw	r2,0(r2)
  8031c4:	10c0062c 	andhi	r3,r2,24
  8031c8:	00800434 	movhi	r2,16
  8031cc:	1880061e 	bne	r3,r2,8031e8 <Isr_DmaEot+0x5c>
        bD13flags.bits.setup_dma = 1;
  8031d0:	00802074 	movhi	r2,129
  8031d4:	109c5b04 	addi	r2,r2,29036
  8031d8:	10c00017 	ldw	r3,0(r2)
  8031dc:	18c00074 	orhi	r3,r3,1
  8031e0:	10c00015 	stw	r3,0(r2)
  8031e4:	00000706 	br	803204 <Isr_DmaEot+0x78>
    else
        bD13flags.bits.dma_state = DMA_IDLE;
  8031e8:	01002074 	movhi	r4,129
  8031ec:	211c5b04 	addi	r4,r4,29036
  8031f0:	20c00017 	ldw	r3,0(r4)
  8031f4:	00bffa34 	movhi	r2,65512
  8031f8:	10bfffc4 	addi	r2,r2,-1
  8031fc:	1884703a 	and	r2,r3,r2
  803200:	20800015 	stw	r2,0(r4)
    printf("EOT reached!!!\n");
  803204:	01002074 	movhi	r4,129
  803208:	210aab04 	addi	r4,r4,10924
  80320c:	080651c0 	call	80651c <puts>
    if(bD13flags.bits.verbose==1)
  803210:	00802074 	movhi	r2,129
  803214:	109c5b04 	addi	r2,r2,29036
  803218:	10800017 	ldw	r2,0(r2)
  80321c:	1080402c 	andhi	r2,r2,256
  803220:	1005003a 	cmpeq	r2,r2,zero
  803224:	1000051e 	bne	r2,zero,80323c <Isr_DmaEot+0xb0>
        printf("dma_counter = %x\n", Hal4D13_GetDMACounter());
  803228:	08026c80 	call	8026c8 <Hal4D13_GetDMACounter>
  80322c:	117fffcc 	andi	r5,r2,65535
  803230:	01002074 	movhi	r4,129
  803234:	210aaf04 	addi	r4,r4,10940
  803238:	08063e00 	call	8063e0 <printf>
    printf("\n");       
  80323c:	01000284 	movi	r4,10
  803240:	08064580 	call	806458 <putchar>
}
  803244:	e037883a 	mov	sp,fp
  803248:	dfc00117 	ldw	ra,4(sp)
  80324c:	df000017 	ldw	fp,0(sp)
  803250:	dec00204 	addi	sp,sp,8
  803254:	f800283a 	ret

00803258 <Isr_SOF>:


void Isr_SOF(void)
{
  803258:	deffff04 	addi	sp,sp,-4
  80325c:	df000015 	stw	fp,0(sp)
  803260:	d839883a 	mov	fp,sp

}
  803264:	e037883a 	mov	sp,fp
  803268:	df000017 	ldw	fp,0(sp)
  80326c:	dec00104 	addi	sp,sp,4
  803270:	f800283a 	ret

00803274 <Isr_Ep00RxDone>:

void Isr_Ep00RxDone(void)
{
  803274:	defffc04 	addi	sp,sp,-16
  803278:	dfc00315 	stw	ra,12(sp)
  80327c:	df000215 	stw	fp,8(sp)
  803280:	df000204 	addi	fp,sp,8
    UCHAR       ep_last, i;
    //printf("RX %d\n", bUSBCheck_Device_State.State_bits.FOUR_RESERVED_BITS++);
    ep_last = Hal4D13_GetEndpointStatusWInteruptClear(EPINDEX4EP0_CONTROL_OUT); /* Clear interrupt flag */
  803284:	0009883a 	mov	r4,zero
  803288:	08024f80 	call	8024f8 <Hal4D13_GetEndpointStatusWInteruptClear>
  80328c:	e0bffe45 	stb	r2,-7(fp)


    if (ep_last & D13REG_EPSTS_SETUP)
  803290:	e0bffe43 	ldbu	r2,-7(fp)
  803294:	1080010c 	andi	r2,r2,4
  803298:	1005003a 	cmpeq	r2,r2,zero
  80329c:	10001a1e 	bne	r2,zero,803308 <Isr_Ep00RxDone+0x94>
    {
        if(bD13flags.bits.DCP_state == USBFSM4DCP_REQUESTPROC)
  8032a0:	00802074 	movhi	r2,129
  8032a4:	109c5b04 	addi	r2,r2,29036
  8032a8:	10800017 	ldw	r2,0(r2)
  8032ac:	1083c00c 	andi	r2,r2,3840
  8032b0:	1080c018 	cmpnei	r2,r2,768
  8032b4:	10000c1e 	bne	r2,zero,8032e8 <Isr_Ep00RxDone+0x74>
        {
            ControlData.Abort = 1;
  8032b8:	00c02074 	movhi	r3,129
  8032bc:	18dc7d04 	addi	r3,r3,29172
  8032c0:	00800044 	movi	r2,1
  8032c4:	18800005 	stb	r2,0(r3)
            bD13flags.bits.DCP_state = USBFSM4DCP_SETUPPROC;
  8032c8:	01002074 	movhi	r4,129
  8032cc:	211c5b04 	addi	r4,r4,29036
  8032d0:	20c00017 	ldw	r3,0(r4)
  8032d4:	00bc3fc4 	movi	r2,-3841
  8032d8:	1884703a 	and	r2,r3,r2
  8032dc:	10814014 	ori	r2,r2,1280
  8032e0:	20800015 	stw	r2,0(r4)
  8032e4:	00005f06 	br	803464 <Isr_Ep00RxDone+0x1f0>
        }
        else
            bD13flags.bits.DCP_state = USBFSM4DCP_SETUPPROC;
  8032e8:	01002074 	movhi	r4,129
  8032ec:	211c5b04 	addi	r4,r4,29036
  8032f0:	20c00017 	ldw	r3,0(r4)
  8032f4:	00bc3fc4 	movi	r2,-3841
  8032f8:	1884703a 	and	r2,r3,r2
  8032fc:	10814014 	ori	r2,r2,1280
  803300:	20800015 	stw	r2,0(r4)
  803304:	00005706 	br	803464 <Isr_Ep00RxDone+0x1f0>
        //printf("StateMain : %x\n",bD13flags.bits.DCP_state);
    }
    else /* not a setup packet, just a Data Out Packet */
    {
    	//printf("StateElse : %x\n",bD13flags.bits.DCP_state);
        switch (bD13flags.bits.DCP_state)
  803308:	00802074 	movhi	r2,129
  80330c:	109c5b04 	addi	r2,r2,29036
  803310:	10800017 	ldw	r2,0(r2)
  803314:	1004d23a 	srli	r2,r2,8
  803318:	108003cc 	andi	r2,r2,15
  80331c:	10803fcc 	andi	r2,r2,255
  803320:	e0bfff15 	stw	r2,-4(fp)
  803324:	e0ffff17 	ldw	r3,-4(fp)
  803328:	18800228 	cmpgeui	r2,r3,8
  80332c:	1000411e 	bne	r2,zero,803434 <Isr_Ep00RxDone+0x1c0>
  803330:	e13fff17 	ldw	r4,-4(fp)
  803334:	e13fff17 	ldw	r4,-4(fp)
  803338:	2105883a 	add	r2,r4,r4
  80333c:	1087883a 	add	r3,r2,r2
  803340:	00802034 	movhi	r2,128
  803344:	108cd504 	addi	r2,r2,13140
  803348:	1885883a 	add	r2,r3,r2
  80334c:	10800017 	ldw	r2,0(r2)
  803350:	1000683a 	jmp	r2
  803354:	00803434 	movhi	r2,208
  803358:	00803464 	muli	r2,zero,209
  80335c:	00803374 	movhi	r2,205
  803360:	00803464 	muli	r2,zero,209
  803364:	00803418 	cmpnei	r2,zero,208
  803368:	00803464 	muli	r2,zero,209
  80336c:	00803434 	movhi	r2,208
  803370:	00803464 	muli	r2,zero,209
        {

        case USBFSM4DCP_DATAOUT:

            i = Hal4D13_ReadEndpoint(EPINDEX4EP0_CONTROL_OUT, ControlData.dataBuffer + ControlData.wCount,
  803374:	00802074 	movhi	r2,129
  803378:	109c7d04 	addi	r2,r2,29172
  80337c:	1080030b 	ldhu	r2,12(r2)
  803380:	10bfffcc 	andi	r2,r2,65535
  803384:	1007883a 	mov	r3,r2
  803388:	00802074 	movhi	r2,129
  80338c:	109c8204 	addi	r2,r2,29192
  803390:	188b883a 	add	r5,r3,r2
  803394:	0009883a 	mov	r4,zero
  803398:	01801004 	movi	r6,64
  80339c:	0801eb00 	call	801eb0 <Hal4D13_ReadEndpoint>
  8033a0:	e0bffe05 	stb	r2,-8(fp)
                EP0_PACKET_SIZE);

            ControlData.wCount += i;
  8033a4:	00802074 	movhi	r2,129
  8033a8:	109c7d04 	addi	r2,r2,29172
  8033ac:	10c0030b 	ldhu	r3,12(r2)
  8033b0:	e0bffe03 	ldbu	r2,-8(fp)
  8033b4:	1885883a 	add	r2,r3,r2
  8033b8:	1007883a 	mov	r3,r2
  8033bc:	00802074 	movhi	r2,129
  8033c0:	109c7d04 	addi	r2,r2,29172
  8033c4:	10c0030d 	sth	r3,12(r2)
            if( i != EP0_PACKET_SIZE || ControlData.wCount >= ControlData.wLength)
  8033c8:	e0bffe03 	ldbu	r2,-8(fp)
  8033cc:	10801018 	cmpnei	r2,r2,64
  8033d0:	1000091e 	bne	r2,zero,8033f8 <Isr_Ep00RxDone+0x184>
  8033d4:	00802074 	movhi	r2,129
  8033d8:	109c7d04 	addi	r2,r2,29172
  8033dc:	10c0030b 	ldhu	r3,12(r2)
  8033e0:	00802074 	movhi	r2,129
  8033e4:	109c7d04 	addi	r2,r2,29172
  8033e8:	1080028b 	ldhu	r2,10(r2)
  8033ec:	18ffffcc 	andi	r3,r3,65535
  8033f0:	10bfffcc 	andi	r2,r2,65535
  8033f4:	18801b36 	bltu	r3,r2,803464 <Isr_Ep00RxDone+0x1f0>
            {
                bD13flags.bits.DCP_state = USBFSM4DCP_REQUESTPROC;
  8033f8:	01002074 	movhi	r4,129
  8033fc:	211c5b04 	addi	r4,r4,29036
  803400:	20c00017 	ldw	r3,0(r4)
  803404:	00bc3fc4 	movi	r2,-3841
  803408:	1884703a 	and	r2,r3,r2
  80340c:	1080c014 	ori	r2,r2,768
  803410:	20800015 	stw	r2,0(r4)

            }
            break;
  803414:	00001306 	br	803464 <Isr_Ep00RxDone+0x1f0>
        case USBFSM4DCP_HANDSHAKE:
        	//printf("HANDSHAKE\n");
            bD13flags.bits.DCP_state = USBFSM4DCP_IDLE;
  803418:	01002074 	movhi	r4,129
  80341c:	211c5b04 	addi	r4,r4,29036
  803420:	20c00017 	ldw	r3,0(r4)
  803424:	00bc3fc4 	movi	r2,-3841
  803428:	1884703a 	and	r2,r3,r2
  80342c:	20800015 	stw	r2,0(r4)
            break;
  803430:	00000c06 	br	803464 <Isr_Ep00RxDone+0x1f0>
        case USBFSM4DCP_REQUESTPROC:break;

        case USBFSM4DCP_DATAIN:     break;

        default:
            printf("Fatal Error: Isr_Ep0RxDone ReadLastTranactionStatus=%x\n",ep_last);
  803434:	e17ffe43 	ldbu	r5,-7(fp)
  803438:	01002074 	movhi	r4,129
  80343c:	210ab404 	addi	r4,r4,10960
  803440:	08063e00 	call	8063e0 <printf>
            bD13flags.bits.DCP_state = USBFSM4DCP_STALL;
  803444:	01002074 	movhi	r4,129
  803448:	211c5b04 	addi	r4,r4,29036
  80344c:	20c00017 	ldw	r3,0(r4)
  803450:	00bc3fc4 	movi	r2,-3841
  803454:	1884703a 	and	r2,r3,r2
  803458:	1081c014 	ori	r2,r2,1792
  80345c:	20800015 	stw	r2,0(r4)
            Hal4D13_StallEP0InControlWrite();
  803460:	0802b400 	call	802b40 <Hal4D13_StallEP0InControlWrite>
            break;
        }
    }
    return ;
}
  803464:	e037883a 	mov	sp,fp
  803468:	dfc00117 	ldw	ra,4(sp)
  80346c:	df000017 	ldw	fp,0(sp)
  803470:	dec00204 	addi	sp,sp,8
  803474:	f800283a 	ret

00803478 <Isr_Ep00TxDone>:

void Isr_Ep00TxDone(void)
{
  803478:	defffc04 	addi	sp,sp,-16
  80347c:	dfc00315 	stw	ra,12(sp)
  803480:	df000215 	stw	fp,8(sp)
  803484:	df000204 	addi	fp,sp,8
	/* Control IN interrupt */
    short i = ControlData.wLength - ControlData.wCount;
  803488:	00802074 	movhi	r2,129
  80348c:	109c7d04 	addi	r2,r2,29172
  803490:	10c0028b 	ldhu	r3,10(r2)
  803494:	00802074 	movhi	r2,129
  803498:	109c7d04 	addi	r2,r2,29172
  80349c:	1080030b 	ldhu	r2,12(r2)
  8034a0:	1885c83a 	sub	r2,r3,r2
  8034a4:	e0bffe8d 	sth	r2,-6(fp)
    UCHAR ep_last;
    Hal4D13_ReadInterruptRegister();
  8034a8:	08024880 	call	802488 <Hal4D13_ReadInterruptRegister>
    ep_last = Hal4D13_GetEndpointStatusWInteruptClear(EPINDEX4EP0_CONTROL_IN); /* Clear interrupt flag */
  8034ac:	01000044 	movi	r4,1
  8034b0:	08024f80 	call	8024f8 <Hal4D13_GetEndpointStatusWInteruptClear>
  8034b4:	e0bffe05 	stb	r2,-8(fp)

    switch (bD13flags.bits.DCP_state)
  8034b8:	00802074 	movhi	r2,129
  8034bc:	109c5b04 	addi	r2,r2,29036
  8034c0:	10800017 	ldw	r2,0(r2)
  8034c4:	1004d23a 	srli	r2,r2,8
  8034c8:	108003cc 	andi	r2,r2,15
  8034cc:	10803fcc 	andi	r2,r2,255
  8034d0:	e0bfff15 	stw	r2,-4(fp)
  8034d4:	e0ffff17 	ldw	r3,-4(fp)
  8034d8:	18800228 	cmpgeui	r2,r3,8
  8034dc:	1000561e 	bne	r2,zero,803638 <Isr_Ep00TxDone+0x1c0>
  8034e0:	e13fff17 	ldw	r4,-4(fp)
  8034e4:	e13fff17 	ldw	r4,-4(fp)
  8034e8:	2105883a 	add	r2,r4,r4
  8034ec:	1087883a 	add	r3,r2,r2
  8034f0:	00802034 	movhi	r2,128
  8034f4:	108d4104 	addi	r2,r2,13572
  8034f8:	1885883a 	add	r2,r3,r2
  8034fc:	10800017 	ldw	r2,0(r2)
  803500:	1000683a 	jmp	r2
  803504:	0080367c 	xorhi	r2,zero,217
  803508:	00803524 	muli	r2,zero,212
  80350c:	0080367c 	xorhi	r2,zero,217
  803510:	0080367c 	xorhi	r2,zero,217
  803514:	0080367c 	xorhi	r2,zero,217
  803518:	0080367c 	xorhi	r2,zero,217
  80351c:	00803638 	rdprs	r2,zero,216
  803520:	0080367c 	xorhi	r2,zero,217
    {
    	case USBFSM4DCP_HANDSHAKE:
    		break;
    	case USBFSM4DCP_DATAIN:
    		if( i >= EP0_PACKET_SIZE)
  803524:	e0bffe8f 	ldh	r2,-6(fp)
  803528:	10801010 	cmplti	r2,r2,64
  80352c:	1000141e 	bne	r2,zero,803580 <Isr_Ep00TxDone+0x108>
			{
				Hal4D13_WriteEndpoint(EPINDEX4EP0_CONTROL_IN,ControlData.Addr.pData + ControlData.wCount, EP0_PACKET_SIZE);
  803530:	00802074 	movhi	r2,129
  803534:	109c7d04 	addi	r2,r2,29172
  803538:	10c00417 	ldw	r3,16(r2)
  80353c:	00802074 	movhi	r2,129
  803540:	109c7d04 	addi	r2,r2,29172
  803544:	1080030b 	ldhu	r2,12(r2)
  803548:	10bfffcc 	andi	r2,r2,65535
  80354c:	188b883a 	add	r5,r3,r2
  803550:	01000044 	movi	r4,1
  803554:	01801004 	movi	r6,64
  803558:	08021a40 	call	8021a4 <Hal4D13_WriteEndpoint>
				ControlData.wCount += EP0_PACKET_SIZE;
  80355c:	00802074 	movhi	r2,129
  803560:	109c7d04 	addi	r2,r2,29172
  803564:	1080030b 	ldhu	r2,12(r2)
  803568:	10801004 	addi	r2,r2,64
  80356c:	1007883a 	mov	r3,r2
  803570:	00802074 	movhi	r2,129
  803574:	109c7d04 	addi	r2,r2,29172
  803578:	10c0030d 	sth	r3,12(r2)
  80357c:	00003f06 	br	80367c <Isr_Ep00TxDone+0x204>
				// State remains at USBFSM4DCP_DATAIN
			}
			else if( i != 0)
  803580:	e0bffe8f 	ldh	r2,-6(fp)
  803584:	1005003a 	cmpeq	r2,r2,zero
  803588:	10001d1e 	bne	r2,zero,803600 <Isr_Ep00TxDone+0x188>
			{
				Hal4D13_WriteEndpoint(1, ControlData.Addr.pData + ControlData.wCount, i);
  80358c:	00802074 	movhi	r2,129
  803590:	109c7d04 	addi	r2,r2,29172
  803594:	10c00417 	ldw	r3,16(r2)
  803598:	00802074 	movhi	r2,129
  80359c:	109c7d04 	addi	r2,r2,29172
  8035a0:	1080030b 	ldhu	r2,12(r2)
  8035a4:	10bfffcc 	andi	r2,r2,65535
  8035a8:	188b883a 	add	r5,r3,r2
  8035ac:	e0bffe8b 	ldhu	r2,-6(fp)
  8035b0:	11bfffcc 	andi	r6,r2,65535
  8035b4:	01000044 	movi	r4,1
  8035b8:	08021a40 	call	8021a4 <Hal4D13_WriteEndpoint>
				ControlData.wCount += i;
  8035bc:	00802074 	movhi	r2,129
  8035c0:	109c7d04 	addi	r2,r2,29172
  8035c4:	10c0030b 	ldhu	r3,12(r2)
  8035c8:	e0bffe8b 	ldhu	r2,-6(fp)
  8035cc:	1885883a 	add	r2,r3,r2
  8035d0:	1007883a 	mov	r3,r2
  8035d4:	00802074 	movhi	r2,129
  8035d8:	109c7d04 	addi	r2,r2,29172
  8035dc:	10c0030d 	sth	r3,12(r2)
				bD13flags.bits.DCP_state = USBFSM4DCP_HANDSHAKE;
  8035e0:	01002074 	movhi	r4,129
  8035e4:	211c5b04 	addi	r4,r4,29036
  8035e8:	20c00017 	ldw	r3,0(r4)
  8035ec:	00bc3fc4 	movi	r2,-3841
  8035f0:	1884703a 	and	r2,r3,r2
  8035f4:	10810014 	ori	r2,r2,1024
  8035f8:	20800015 	stw	r2,0(r4)
  8035fc:	00001f06 	br	80367c <Isr_Ep00TxDone+0x204>
			}
			else if (i == 0)
  803600:	e0bffe8f 	ldh	r2,-6(fp)
  803604:	1004c03a 	cmpne	r2,r2,zero
  803608:	10001c1e 	bne	r2,zero,80367c <Isr_Ep00TxDone+0x204>
			{
				bD13flags.bits.DCP_state = USBFSM4DCP_HANDSHAKE;
  80360c:	01002074 	movhi	r4,129
  803610:	211c5b04 	addi	r4,r4,29036
  803614:	20c00017 	ldw	r3,0(r4)
  803618:	00bc3fc4 	movi	r2,-3841
  80361c:	1884703a 	and	r2,r3,r2
  803620:	10810014 	ori	r2,r2,1024
  803624:	20800015 	stw	r2,0(r4)
				Hal4D13_SingleTransmitEP0(0, 0);
  803628:	0009883a 	mov	r4,zero
  80362c:	000b883a 	mov	r5,zero
  803630:	08029900 	call	802990 <Hal4D13_SingleTransmitEP0>
			}
			break;
  803634:	00001106 	br	80367c <Isr_Ep00TxDone+0x204>
		case USBFSM4DCP_IDLE:     	 break;
		case USBFSM4DCP_SETUPPROC:   break;
		case USBFSM4DCP_STALL:       break;
		case USBFSM4DCP_DATAOUT:     break;
		default:
			printf("Fatal Error: Isr_Ep0TxDone Unexpected FSMState=%x\n",bD13flags.bits.DCP_state);
  803638:	00802074 	movhi	r2,129
  80363c:	109c5b04 	addi	r2,r2,29036
  803640:	10800017 	ldw	r2,0(r2)
  803644:	1004d23a 	srli	r2,r2,8
  803648:	108003cc 	andi	r2,r2,15
  80364c:	11403fcc 	andi	r5,r2,255
  803650:	01002074 	movhi	r4,129
  803654:	210ac204 	addi	r4,r4,11016
  803658:	08063e00 	call	8063e0 <printf>
			bD13flags.bits.DCP_state = USBFSM4DCP_STALL;
  80365c:	01002074 	movhi	r4,129
  803660:	211c5b04 	addi	r4,r4,29036
  803664:	20c00017 	ldw	r3,0(r4)
  803668:	00bc3fc4 	movi	r2,-3841
  80366c:	1884703a 	and	r2,r3,r2
  803670:	1081c014 	ori	r2,r2,1792
  803674:	20800015 	stw	r2,0(r4)
			Hal4D13_StallEP0InControlRead();
  803678:	0802b7c0 	call	802b7c <Hal4D13_StallEP0InControlRead>
			break;
		}
}
  80367c:	e037883a 	mov	sp,fp
  803680:	dfc00117 	ldw	ra,4(sp)
  803684:	df000017 	ldw	fp,0(sp)
  803688:	dec00204 	addi	sp,sp,8
  80368c:	f800283a 	ret

00803690 <Isr_Ep01Done>:

void Isr_Ep01Done(void) {
  803690:	defffd04 	addi	sp,sp,-12
  803694:	dfc00215 	stw	ra,8(sp)
  803698:	df000115 	stw	fp,4(sp)
  80369c:	df000104 	addi	fp,sp,4
	/* This gets called when the interrupt is determined to have came from
	 * endpoint 1. When this interrupt it fired it means the host has received
	 * a packet from this endpoint.
	 */
	printf("Packet Received Dood.\n");
  8036a0:	01002074 	movhi	r4,129
  8036a4:	210acf04 	addi	r4,r4,11068
  8036a8:	080651c0 	call	80651c <puts>

	//I'm currenly using this to set the ready to send packet to high, but probably I will just check to see if the buffers are full in each iteration.
	bD13flags.bits.DCP_state = USBFSM4DCP_INTR1DONE;
  8036ac:	01002074 	movhi	r4,129
  8036b0:	211c5b04 	addi	r4,r4,29036
  8036b4:	20c00017 	ldw	r3,0(r4)
  8036b8:	00bc3fc4 	movi	r2,-3841
  8036bc:	1884703a 	and	r2,r3,r2
  8036c0:	1082c014 	ori	r2,r2,2816
  8036c4:	20800015 	stw	r2,0(r4)

	UCHAR err = Hal4D13_GetErrorCode(EPINDEX4EP01);
  8036c8:	01000084 	movi	r4,2
  8036cc:	08028640 	call	802864 <Hal4D13_GetErrorCode>
  8036d0:	e0bfff45 	stb	r2,-3(fp)
	UCHAR stat = Hal4D13_GetEndpointStatusWInteruptClear(EPINDEX4EP01); //Interrupt Clear
  8036d4:	01000084 	movi	r4,2
  8036d8:	08024f80 	call	8024f8 <Hal4D13_GetEndpointStatusWInteruptClear>
  8036dc:	e0bfff05 	stb	r2,-4(fp)

	// print endpoint status and error registers
	//printf("Status = %x : Err = %x\n", stat, err);
}
  8036e0:	e037883a 	mov	sp,fp
  8036e4:	dfc00117 	ldw	ra,4(sp)
  8036e8:	df000017 	ldw	fp,0(sp)
  8036ec:	dec00204 	addi	sp,sp,8
  8036f0:	f800283a 	ret

008036f4 <SetupToken_Handler>:
	"RESERVED",
	"RESERVED",
};

void SetupToken_Handler(void)
{
  8036f4:	defffd04 	addi	sp,sp,-12
  8036f8:	dfc00215 	stw	ra,8(sp)
  8036fc:	df000115 	stw	fp,4(sp)
  803700:	df000104 	addi	fp,sp,4
  unsigned short j;
  RaiseIRQL();
  803704:	08055a80 	call	8055a8 <disable_irq>
  bD13flags.bits.At_IRQL1 = 1;
  803708:	00c02074 	movhi	r3,129
  80370c:	18dc5b04 	addi	r3,r3,29036
  803710:	18800017 	ldw	r2,0(r3)
  803714:	10800114 	ori	r2,r2,4
  803718:	18800015 	stw	r2,0(r3)
  ControlData.Abort = FALSE;
  80371c:	00802074 	movhi	r2,129
  803720:	109c7d04 	addi	r2,r2,29172
  803724:	10000005 	stb	zero,0(r2)

  ControlData.wLength = 0;
  803728:	00802074 	movhi	r2,129
  80372c:	109c7d04 	addi	r2,r2,29172
  803730:	1000028d 	sth	zero,10(r2)
  ControlData.wCount = 0;
  803734:	00802074 	movhi	r2,129
  803738:	109c7d04 	addi	r2,r2,29172
  80373c:	1000030d 	sth	zero,12(r2)

  j = Hal4D13_ReadEndpointWOClearBuffer(EPINDEX4EP0_CONTROL_OUT, &ControlData.DeviceRequest, sizeof(ControlData.DeviceRequest) );
  803740:	01402074 	movhi	r5,129
  803744:	295c7d84 	addi	r5,r5,29174
  803748:	0009883a 	mov	r4,zero
  80374c:	01800204 	movi	r6,8
  803750:	08020a80 	call	8020a8 <Hal4D13_ReadEndpointWOClearBuffer>
  803754:	e0bfff0d 	sth	r2,-4(fp)

  if( j == sizeof(DEVICE_REQUEST) ) {
  803758:	e0bfff0b 	ldhu	r2,-4(fp)
  80375c:	10800218 	cmpnei	r2,r2,8
  803760:	1000711e 	bne	r2,zero,803928 <SetupToken_Handler+0x234>
    printf("ControlData.DeviceRequest.bRequest:0x%X\n",ControlData.DeviceRequest.bRequest);//1BYTE
    printf("ControlData.DeviceRequest.wValue:0x%X\n",ControlData.DeviceRequest.wValue); //2BYTE
    printf("ControlData.DeviceRequest.wIndex:0x%X\n",ControlData.DeviceRequest.wIndex); //2BYTE
    printf("ControlData.DeviceRequest.wLength:0x%X\n",ControlData.DeviceRequest.wLength);//2BYTE
	*/
    bD13flags.bits.At_IRQL1 = 0;
  803764:	01002074 	movhi	r4,129
  803768:	211c5b04 	addi	r4,r4,29036
  80376c:	20c00017 	ldw	r3,0(r4)
  803770:	00bffec4 	movi	r2,-5
  803774:	1884703a 	and	r2,r3,r2
  803778:	20800015 	stw	r2,0(r4)
    LowerIRQL();
  80377c:	08055f80 	call	8055f8 <enable_irq>
    ControlData.wLength = ControlData.DeviceRequest.wLength;
  803780:	00802074 	movhi	r2,129
  803784:	109c7d04 	addi	r2,r2,29172
  803788:	10c0020b 	ldhu	r3,8(r2)
  80378c:	00802074 	movhi	r2,129
  803790:	109c7d04 	addi	r2,r2,29172
  803794:	10c0028d 	sth	r3,10(r2)
    ControlData.wCount = 0;
  803798:	00802074 	movhi	r2,129
  80379c:	109c7d04 	addi	r2,r2,29172
  8037a0:	1000030d 	sth	zero,12(r2)

    if (ControlData.DeviceRequest.bmRequestType & (UCHAR)USB_ENDPOINT_DIRECTION_MASK)
  8037a4:	00802074 	movhi	r2,129
  8037a8:	109c7d04 	addi	r2,r2,29172
  8037ac:	10800083 	ldbu	r2,2(r2)
  8037b0:	10803fcc 	andi	r2,r2,255
  8037b4:	1080201c 	xori	r2,r2,128
  8037b8:	10bfe004 	addi	r2,r2,-128
  8037bc:	1004403a 	cmpge	r2,r2,zero
  8037c0:	1000221e 	bne	r2,zero,80384c <SetupToken_Handler+0x158>
    {
      /* get command */
      RaiseIRQL();
  8037c4:	08055a80 	call	8055a8 <disable_irq>
      ML_AcknowledgeSETUP();
  8037c8:	0803d9c0 	call	803d9c <ML_AcknowledgeSETUP>
      if((ControlData.DeviceRequest.bRequest == 0) & (ControlData.DeviceRequest.bmRequestType == 0xc0))
  8037cc:	00802074 	movhi	r2,129
  8037d0:	109c7d04 	addi	r2,r2,29172
  8037d4:	108000c3 	ldbu	r2,3(r2)
  8037d8:	10803fcc 	andi	r2,r2,255
  8037dc:	1005003a 	cmpeq	r2,r2,zero
  8037e0:	1007883a 	mov	r3,r2
  8037e4:	00802074 	movhi	r2,129
  8037e8:	109c7d04 	addi	r2,r2,29172
  8037ec:	10800083 	ldbu	r2,2(r2)
  8037f0:	10803fcc 	andi	r2,r2,255
  8037f4:	10803020 	cmpeqi	r2,r2,192
  8037f8:	1884703a 	and	r2,r3,r2
  8037fc:	10803fcc 	andi	r2,r2,255
  803800:	1005003a 	cmpeq	r2,r2,zero
  803804:	1000081e 	bne	r2,zero,803828 <SetupToken_Handler+0x134>
    	  bD13flags.bits.DCP_state = USBFSM4DCP_HANDSHAKE;
  803808:	01002074 	movhi	r4,129
  80380c:	211c5b04 	addi	r4,r4,29036
  803810:	20c00017 	ldw	r3,0(r4)
  803814:	00bc3fc4 	movi	r2,-3841
  803818:	1884703a 	and	r2,r3,r2
  80381c:	10810014 	ori	r2,r2,1024
  803820:	20800015 	stw	r2,0(r4)
  803824:	00000706 	br	803844 <SetupToken_Handler+0x150>
      else
    	  bD13flags.bits.DCP_state = USBFSM4DCP_REQUESTPROC;
  803828:	01002074 	movhi	r4,129
  80382c:	211c5b04 	addi	r4,r4,29036
  803830:	20c00017 	ldw	r3,0(r4)
  803834:	00bc3fc4 	movi	r2,-3841
  803838:	1884703a 	and	r2,r3,r2
  80383c:	1080c014 	ori	r2,r2,768
  803840:	20800015 	stw	r2,0(r4)

      LowerIRQL();
  803844:	08055f80 	call	8055f8 <enable_irq>
  803848:	00004206 	br	803954 <SetupToken_Handler+0x260>
    }
    else
    {
      /* set command */

      if (ControlData.DeviceRequest.wLength == 0)
  80384c:	00802074 	movhi	r2,129
  803850:	109c7d04 	addi	r2,r2,29172
  803854:	1080020b 	ldhu	r2,8(r2)
  803858:	10bfffcc 	andi	r2,r2,65535
  80385c:	1004c03a 	cmpne	r2,r2,zero
  803860:	10000b1e 	bne	r2,zero,803890 <SetupToken_Handler+0x19c>
      {
        /* Set command  without Data stage*/
        RaiseIRQL();
  803864:	08055a80 	call	8055a8 <disable_irq>
        ML_AcknowledgeSETUP();
  803868:	0803d9c0 	call	803d9c <ML_AcknowledgeSETUP>
        bD13flags.bits.DCP_state = USBFSM4DCP_REQUESTPROC;
  80386c:	01002074 	movhi	r4,129
  803870:	211c5b04 	addi	r4,r4,29036
  803874:	20c00017 	ldw	r3,0(r4)
  803878:	00bc3fc4 	movi	r2,-3841
  80387c:	1884703a 	and	r2,r3,r2
  803880:	1080c014 	ori	r2,r2,768
  803884:	20800015 	stw	r2,0(r4)
        LowerIRQL();
  803888:	08055f80 	call	8055f8 <enable_irq>
  80388c:	00003106 	br	803954 <SetupToken_Handler+0x260>
      {
        /*
        // Set command  with Data stage
        // get Data Buffer
        */
        if(ControlData.DeviceRequest.wLength <= MAX_CONTROLDATA_SIZE)
  803890:	00802074 	movhi	r2,129
  803894:	109c7d04 	addi	r2,r2,29172
  803898:	1080020b 	ldhu	r2,8(r2)
  80389c:	10bfffcc 	andi	r2,r2,65535
  8038a0:	10800468 	cmpgeui	r2,r2,17
  8038a4:	10000b1e 	bne	r2,zero,8038d4 <SetupToken_Handler+0x1e0>
        {
          /* set command with OUT token */
          RaiseIRQL();
  8038a8:	08055a80 	call	8055a8 <disable_irq>
          bD13flags.bits.DCP_state = USBFSM4DCP_DATAOUT;
  8038ac:	01002074 	movhi	r4,129
  8038b0:	211c5b04 	addi	r4,r4,29036
  8038b4:	20c00017 	ldw	r3,0(r4)
  8038b8:	00bc3fc4 	movi	r2,-3841
  8038bc:	1884703a 	and	r2,r3,r2
  8038c0:	10808014 	ori	r2,r2,512
  8038c4:	20800015 	stw	r2,0(r4)
          LowerIRQL();
  8038c8:	08055f80 	call	8055f8 <enable_irq>
          ML_AcknowledgeSETUP();
  8038cc:	0803d9c0 	call	803d9c <ML_AcknowledgeSETUP>
  8038d0:	00002006 	br	803954 <SetupToken_Handler+0x260>
        }
        else
        {
          RaiseIRQL();
  8038d4:	08055a80 	call	8055a8 <disable_irq>
          ML_AcknowledgeSETUP();
  8038d8:	0803d9c0 	call	803d9c <ML_AcknowledgeSETUP>
          Hal4D13_StallEP0InControlWrite();
  8038dc:	0802b400 	call	802b40 <Hal4D13_StallEP0InControlWrite>
          bD13flags.bits.DCP_state = USBFSM4DCP_STALL;
  8038e0:	01002074 	movhi	r4,129
  8038e4:	211c5b04 	addi	r4,r4,29036
  8038e8:	20c00017 	ldw	r3,0(r4)
  8038ec:	00bc3fc4 	movi	r2,-3841
  8038f0:	1884703a 	and	r2,r3,r2
  8038f4:	1081c014 	ori	r2,r2,1792
  8038f8:	20800015 	stw	r2,0(r4)
          printf("bD13flags.bits.DCP_state = x%hx\n Unknow set up command\n", bD13flags.bits.DCP_state);
  8038fc:	00802074 	movhi	r2,129
  803900:	109c5b04 	addi	r2,r2,29036
  803904:	10800017 	ldw	r2,0(r2)
  803908:	1004d23a 	srli	r2,r2,8
  80390c:	108003cc 	andi	r2,r2,15
  803910:	11403fcc 	andi	r5,r2,255
  803914:	01002074 	movhi	r4,129
  803918:	210b4504 	addi	r4,r4,11540
  80391c:	08063e00 	call	8063e0 <printf>
          LowerIRQL();
  803920:	08055f80 	call	8055f8 <enable_irq>
  803924:	00000b06 	br	803954 <SetupToken_Handler+0x260>
      }
    }
  }
  else
  {
    printf("wrong setup command\n");
  803928:	01002074 	movhi	r4,129
  80392c:	210b5304 	addi	r4,r4,11596
  803930:	080651c0 	call	80651c <puts>
    bD13flags.bits.At_IRQL1 = 0;
  803934:	01002074 	movhi	r4,129
  803938:	211c5b04 	addi	r4,r4,29036
  80393c:	20c00017 	ldw	r3,0(r4)
  803940:	00bffec4 	movi	r2,-5
  803944:	1884703a 	and	r2,r3,r2
  803948:	20800015 	stw	r2,0(r4)
    LowerIRQL();
  80394c:	08055f80 	call	8055f8 <enable_irq>
    Chap9_StallEP0();
  803950:	08012140 	call	801214 <Chap9_StallEP0>
  }
  
 // printf("To_Ha_end\n");
}
  803954:	e037883a 	mov	sp,fp
  803958:	dfc00117 	ldw	ra,4(sp)
  80395c:	df000017 	ldw	fp,0(sp)
  803960:	dec00204 	addi	sp,sp,8
  803964:	f800283a 	ret

00803968 <DeviceRequest_Handler>:


void DeviceRequest_Handler(void)
{
  803968:	defffd04 	addi	sp,sp,-12
  80396c:	dfc00215 	stw	ra,8(sp)
  803970:	df000115 	stw	fp,4(sp)
  803974:	df000104 	addi	fp,sp,4
  UCHAR type, req;

  type = ControlData.DeviceRequest.bmRequestType & USB_REQUEST_TYPE_MASK;
  803978:	00802074 	movhi	r2,129
  80397c:	109c7d04 	addi	r2,r2,29172
  803980:	10800083 	ldbu	r2,2(r2)
  803984:	1080180c 	andi	r2,r2,96
  803988:	e0bfff45 	stb	r2,-3(fp)
  req =  ControlData.DeviceRequest.bRequest & USB_REQUEST_MASK;
  80398c:	00802074 	movhi	r2,129
  803990:	109c7d04 	addi	r2,r2,29172
  803994:	108000c3 	ldbu	r2,3(r2)
  803998:	e0bfff05 	stb	r2,-4(fp)
  //if (bD13flags.bits.verbose==1)
 //   printf("type = 0x%02x, req = 0x%02x\n", type, req);

  //help_devreq(type, req); /* print out device request */

  if ((type == USB_STANDARD_REQUEST) && (req < MAX_STANDARD_REQUEST))
  80399c:	e0bfff43 	ldbu	r2,-3(fp)
  8039a0:	1004c03a 	cmpne	r2,r2,zero
  8039a4:	10000c1e 	bne	r2,zero,8039d8 <DeviceRequest_Handler+0x70>
  8039a8:	e0bfff03 	ldbu	r2,-4(fp)
  8039ac:	10800368 	cmpgeui	r2,r2,13
  8039b0:	1000091e 	bne	r2,zero,8039d8 <DeviceRequest_Handler+0x70>
  {
    (*StandardDeviceRequest[req])();
  8039b4:	e0bfff03 	ldbu	r2,-4(fp)
  8039b8:	00c02074 	movhi	r3,129
  8039bc:	18cdd604 	addi	r3,r3,14168
  8039c0:	1085883a 	add	r2,r2,r2
  8039c4:	1085883a 	add	r2,r2,r2
  8039c8:	10c5883a 	add	r2,r2,r3
  8039cc:	10800017 	ldw	r2,0(r2)
  8039d0:	103ee83a 	callr	r2
  //if (bD13flags.bits.verbose==1)
 //   printf("type = 0x%02x, req = 0x%02x\n", type, req);

  //help_devreq(type, req); /* print out device request */

  if ((type == USB_STANDARD_REQUEST) && (req < MAX_STANDARD_REQUEST))
  8039d4:	00002306 	br	803a64 <DeviceRequest_Handler+0xfc>
  {
    (*StandardDeviceRequest[req])();
  }
  else if ((type == USB_CLASS_REQUEST) && (req < MAX_CLASS_REQUEST)) {
  8039d8:	e0bfff43 	ldbu	r2,-3(fp)
  8039dc:	10800818 	cmpnei	r2,r2,32
  8039e0:	1000101e 	bne	r2,zero,803a24 <DeviceRequest_Handler+0xbc>
  8039e4:	e0bfff03 	ldbu	r2,-4(fp)
  8039e8:	108002e8 	cmpgeui	r2,r2,11
  8039ec:	10000d1e 	bne	r2,zero,803a24 <DeviceRequest_Handler+0xbc>
	  printf("Class Req. %d\n", req);
  8039f0:	e17fff03 	ldbu	r5,-4(fp)
  8039f4:	01002074 	movhi	r4,129
  8039f8:	210b5804 	addi	r4,r4,11616
  8039fc:	08063e00 	call	8063e0 <printf>
  	  (*ClassDeviceRequest[req])();
  803a00:	e0bfff03 	ldbu	r2,-4(fp)
  803a04:	00c02074 	movhi	r3,129
  803a08:	18cdf804 	addi	r3,r3,14304
  803a0c:	1085883a 	add	r2,r2,r2
  803a10:	1085883a 	add	r2,r2,r2
  803a14:	10c5883a 	add	r2,r2,r3
  803a18:	10800017 	ldw	r2,0(r2)
  803a1c:	103ee83a 	callr	r2

  if ((type == USB_STANDARD_REQUEST) && (req < MAX_STANDARD_REQUEST))
  {
    (*StandardDeviceRequest[req])();
  }
  else if ((type == USB_CLASS_REQUEST) && (req < MAX_CLASS_REQUEST)) {
  803a20:	00001006 	br	803a64 <DeviceRequest_Handler+0xfc>
	  printf("Class Req. %d\n", req);
  	  (*ClassDeviceRequest[req])();
  }
  else if ((type == USB_VENDOR_REQUEST) && (req   < MAX_VENDOR_REQUEST))
  803a24:	e0bfff43 	ldbu	r2,-3(fp)
  803a28:	10801018 	cmpnei	r2,r2,64
  803a2c:	10000c1e 	bne	r2,zero,803a60 <DeviceRequest_Handler+0xf8>
  803a30:	e0bfff03 	ldbu	r2,-4(fp)
  803a34:	108003e8 	cmpgeui	r2,r2,15
  803a38:	1000091e 	bne	r2,zero,803a60 <DeviceRequest_Handler+0xf8>
    (*VendorDeviceRequest[req])();
  803a3c:	e0bfff03 	ldbu	r2,-4(fp)
  803a40:	00c02074 	movhi	r3,129
  803a44:	18ce1004 	addi	r3,r3,14400
  803a48:	1085883a 	add	r2,r2,r2
  803a4c:	1085883a 	add	r2,r2,r2
  803a50:	10c5883a 	add	r2,r2,r3
  803a54:	10800017 	ldw	r2,0(r2)
  803a58:	103ee83a 	callr	r2
  }
  else if ((type == USB_CLASS_REQUEST) && (req < MAX_CLASS_REQUEST)) {
	  printf("Class Req. %d\n", req);
  	  (*ClassDeviceRequest[req])();
  }
  else if ((type == USB_VENDOR_REQUEST) && (req   < MAX_VENDOR_REQUEST))
  803a5c:	00000106 	br	803a64 <DeviceRequest_Handler+0xfc>
    (*VendorDeviceRequest[req])();
  else{
    Chap9_StallEP0();
  803a60:	08012140 	call	801214 <Chap9_StallEP0>
  }
}
  803a64:	e037883a 	mov	sp,fp
  803a68:	dfc00117 	ldw	ra,4(sp)
  803a6c:	df000017 	ldw	fp,0(sp)
  803a70:	dec00204 	addi	sp,sp,8
  803a74:	f800283a 	ret

00803a78 <help_devreq>:

void help_devreq(UCHAR type, UCHAR req)
{
  803a78:	defffb04 	addi	sp,sp,-20
  803a7c:	dfc00415 	stw	ra,16(sp)
  803a80:	df000315 	stw	fp,12(sp)
  803a84:	df000304 	addi	fp,sp,12
  803a88:	e13ffe05 	stb	r4,-8(fp)
  803a8c:	e17fff05 	stb	r5,-4(fp)
  UCHAR typ = type;
  803a90:	e0bffe03 	ldbu	r2,-8(fp)
  803a94:	e0bffd05 	stb	r2,-12(fp)
  typ >>= 5;
  803a98:	e0bffd03 	ldbu	r2,-12(fp)
  803a9c:	1004d17a 	srli	r2,r2,5
  803aa0:	e0bffd05 	stb	r2,-12(fp)

  if(type == USB_STANDARD_REQUEST)
  803aa4:	e0bffe03 	ldbu	r2,-8(fp)
  803aa8:	1004c03a 	cmpne	r2,r2,zero
  803aac:	1000121e 	bne	r2,zero,803af8 <help_devreq+0x80>
  {
    printf("Request Type = %s, Request = %s.\n", _NAME_USB_REQUEST_TYPE[typ],
  803ab0:	e0bffd03 	ldbu	r2,-12(fp)
  803ab4:	00c02074 	movhi	r3,129
  803ab8:	18cde704 	addi	r3,r3,14236
  803abc:	1085883a 	add	r2,r2,r2
  803ac0:	1085883a 	add	r2,r2,r2
  803ac4:	10c5883a 	add	r2,r2,r3
  803ac8:	11400017 	ldw	r5,0(r2)
  803acc:	e0bfff03 	ldbu	r2,-4(fp)
  803ad0:	00c02074 	movhi	r3,129
  803ad4:	18cdeb04 	addi	r3,r3,14252
  803ad8:	1085883a 	add	r2,r2,r2
  803adc:	1085883a 	add	r2,r2,r2
  803ae0:	10c5883a 	add	r2,r2,r3
  803ae4:	11800017 	ldw	r6,0(r2)
  803ae8:	01002074 	movhi	r4,129
  803aec:	210b5c04 	addi	r4,r4,11632
  803af0:	08063e00 	call	8063e0 <printf>
  803af4:	00002606 	br	803b90 <help_devreq+0x118>
      _NAME_USB_STANDARD_REQUEST[req]);
  }
  else if(type == USB_CLASS_REQUEST)
  803af8:	e0bffe03 	ldbu	r2,-8(fp)
  803afc:	10800818 	cmpnei	r2,r2,32
  803b00:	1000121e 	bne	r2,zero,803b4c <help_devreq+0xd4>
  {
    printf("Request Type = %s, Request = %s.\n", _NAME_USB_REQUEST_TYPE[typ],
  803b04:	e0bffd03 	ldbu	r2,-12(fp)
  803b08:	00c02074 	movhi	r3,129
  803b0c:	18cde704 	addi	r3,r3,14236
  803b10:	1085883a 	add	r2,r2,r2
  803b14:	1085883a 	add	r2,r2,r2
  803b18:	10c5883a 	add	r2,r2,r3
  803b1c:	11400017 	ldw	r5,0(r2)
  803b20:	e0bfff03 	ldbu	r2,-4(fp)
  803b24:	00c02074 	movhi	r3,129
  803b28:	18ce0404 	addi	r3,r3,14352
  803b2c:	1085883a 	add	r2,r2,r2
  803b30:	1085883a 	add	r2,r2,r2
  803b34:	10c5883a 	add	r2,r2,r3
  803b38:	11800017 	ldw	r6,0(r2)
  803b3c:	01002074 	movhi	r4,129
  803b40:	210b5c04 	addi	r4,r4,11632
  803b44:	08063e00 	call	8063e0 <printf>
  803b48:	00001106 	br	803b90 <help_devreq+0x118>
      _NAME_USB_CLASS_REQUEST[req]);
  }
  else
  {
    if(bD13flags.bits.verbose)
  803b4c:	00802074 	movhi	r2,129
  803b50:	109c5b04 	addi	r2,r2,29036
  803b54:	10800017 	ldw	r2,0(r2)
  803b58:	1080402c 	andhi	r2,r2,256
  803b5c:	1005003a 	cmpeq	r2,r2,zero
  803b60:	10000b1e 	bne	r2,zero,803b90 <help_devreq+0x118>
      printf("Request Type = %s, bRequest = 0x%x.\n", _NAME_USB_REQUEST_TYPE[typ],
  803b64:	e0bffd03 	ldbu	r2,-12(fp)
  803b68:	00c02074 	movhi	r3,129
  803b6c:	18cde704 	addi	r3,r3,14236
  803b70:	1085883a 	add	r2,r2,r2
  803b74:	1085883a 	add	r2,r2,r2
  803b78:	10c5883a 	add	r2,r2,r3
  803b7c:	11400017 	ldw	r5,0(r2)
  803b80:	e1bfff03 	ldbu	r6,-4(fp)
  803b84:	01002074 	movhi	r4,129
  803b88:	210b6504 	addi	r4,r4,11668
  803b8c:	08063e00 	call	8063e0 <printf>
        req);
  }
}
  803b90:	e037883a 	mov	sp,fp
  803b94:	dfc00117 	ldw	ra,4(sp)
  803b98:	df000017 	ldw	fp,0(sp)
  803b9c:	dec00204 	addi	sp,sp,8
  803ba0:	f800283a 	ret

00803ba4 <disconnect_USB_controller>:

void disconnect_USB_controller(void)
{
  803ba4:	defffe04 	addi	sp,sp,-8
  803ba8:	dfc00115 	stw	ra,4(sp)
  803bac:	df000015 	stw	fp,0(sp)
  803bb0:	d839883a 	mov	fp,sp
  printf("disconnect\n");
  803bb4:	01002074 	movhi	r4,129
  803bb8:	210b6f04 	addi	r4,r4,11708
  803bbc:	080651c0 	call	80651c <puts>
  Hal4D13_SetDevConfig( D13REG_DEVCNFG_NOLAZYCLOCK | D13REG_DEVCNFG_PWROFF | D13REG_DEVCNFG_CLOCKRUNNING );
  803bc0:	010c0104 	movi	r4,12292
  803bc4:	0801bfc0 	call	801bfc <Hal4D13_SetDevConfig>
  Hal4D13_SetMode( D13REG_MODE_INT_EN );           
  803bc8:	01000204 	movi	r4,8
  803bcc:	0801c3c0 	call	801c3c <Hal4D13_SetMode>
}
  803bd0:	e037883a 	mov	sp,fp
  803bd4:	dfc00117 	ldw	ra,4(sp)
  803bd8:	df000017 	ldw	fp,0(sp)
  803bdc:	dec00204 	addi	sp,sp,8
  803be0:	f800283a 	ret

00803be4 <connect_USB_controller>:

void connect_USB_controller(void)
{
  803be4:	defffe04 	addi	sp,sp,-8
  803be8:	dfc00115 	stw	ra,4(sp)
  803bec:	df000015 	stw	fp,0(sp)
  803bf0:	d839883a 	mov	fp,sp
  RaiseIRQL(); //Disconnect irq
  803bf4:	08055a80 	call	8055a8 <disable_irq>
  printf("connect_USB\n");
  803bf8:	01002074 	movhi	r4,129
  803bfc:	210b7204 	addi	r4,r4,11720
  803c00:	080651c0 	call	80651c <puts>
  bD13flags.value = 0; /* reset event flags*/
  803c04:	00802074 	movhi	r2,129
  803c08:	109c5b04 	addi	r2,r2,29036
  803c0c:	10000015 	stw	zero,0(r2)
  bD13flags.bits.DCP_state = USBFSM4DCP_IDLE;
  803c10:	01002074 	movhi	r4,129
  803c14:	211c5b04 	addi	r4,r4,29036
  803c18:	20c00017 	ldw	r3,0(r4)
  803c1c:	00bc3fc4 	movi	r2,-3841
  803c20:	1884703a 	and	r2,r3,r2
  803c24:	20800015 	stw	r2,0(r4)
  config_endpoints();
  803c28:	0803c4c0 	call	803c4c <config_endpoints>
  
  LowerIRQL();
  803c2c:	08055f80 	call	8055f8 <enable_irq>

  Hal4D13_SetMode( D13REG_MODE_SOFTCONNECT | D13REG_MODE_DMA16 |
  803c30:	01002244 	movi	r4,137
  803c34:	0801c3c0 	call	801c3c <Hal4D13_SetMode>
                    // D13REG_MODE_OFFGOODLNK  |
                    //| D13REG_MODE_DBG                 
                      D13REG_MODE_INT_EN              
                    //| D13REG_MODE_SUSPND            
  );
}
  803c38:	e037883a 	mov	sp,fp
  803c3c:	dfc00117 	ldw	ra,4(sp)
  803c40:	df000017 	ldw	fp,0(sp)
  803c44:	dec00204 	addi	sp,sp,8
  803c48:	f800283a 	ret

00803c4c <config_endpoints>:


void config_endpoints(void)
{
  803c4c:	defffe04 	addi	sp,sp,-8
  803c50:	dfc00115 	stw	ra,4(sp)
  803c54:	df000015 	stw	fp,0(sp)
  803c58:	d839883a 	mov	fp,sp
    /*Control Endpoint*/
	//printf("CONFIG\n");
    Hal4D13_SetEndpointConfig(D13REG_EPCNFG_FIFO_EN|D13REG_EPCNFG_NONISOSZ_64,EPINDEX4EP0_CONTROL_OUT);
  803c5c:	010020c4 	movi	r4,131
  803c60:	000b883a 	mov	r5,zero
  803c64:	080290c0 	call	80290c <Hal4D13_SetEndpointConfig>
    Hal4D13_SetEndpointConfig(D13REG_EPCNFG_FIFO_EN|D13REG_EPCNFG_IN_EN|D13REG_EPCNFG_NONISOSZ_64,EPINDEX4EP0_CONTROL_IN);
  803c68:	010030c4 	movi	r4,195
  803c6c:	01400044 	movi	r5,1
  803c70:	080290c0 	call	80290c <Hal4D13_SetEndpointConfig>

    // ENDP01 : HID Keyboard IN
    Hal4D13_SetEndpointConfig(D13REG_EPCNFG_FIFO_EN| ENDPOINT_DIR_IN | D13REG_EPCNFG_DBLBUF_EN | ENDPOINT_NOT_ISO | D13REG_EPCNFG_NONISOSZ_8, EPINDEX4EP01);
  803c74:	01003804 	movi	r4,224
  803c78:	01400084 	movi	r5,2
  803c7c:	080290c0 	call	80290c <Hal4D13_SetEndpointConfig>

    /*DISABLED*/
    Hal4D13_SetEndpointConfig(/*D13REG_EPCNFG_FIFO_EN| */ D13REG_EPCNFG_DBLBUF_EN| D13REG_EPCNFG_IN_EN|D13REG_EPCNFG_NONISOSZ_8,EPINDEX4EP02);
  803c80:	01001804 	movi	r4,96
  803c84:	014000c4 	movi	r5,3
  803c88:	080290c0 	call	80290c <Hal4D13_SetEndpointConfig>
    Hal4D13_SetEndpointConfig(/*D13REG_EPCNFG_FIFO_EN|*/D13REG_EPCNFG_DBLBUF_EN|D13REG_EPCNFG_NONISOSZ_64,EPINDEX4EP03);
  803c8c:	010008c4 	movi	r4,35
  803c90:	01400104 	movi	r5,4
  803c94:	080290c0 	call	80290c <Hal4D13_SetEndpointConfig>
    Hal4D13_SetEndpointConfig(/*D13REG_EPCNFG_FIFO_EN|*/D13REG_EPCNFG_DBLBUF_EN|D13REG_EPCNFG_IN_EN|D13REG_EPCNFG_NONISOSZ_64,EPINDEX4EP04);
  803c98:	010018c4 	movi	r4,99
  803c9c:	01400144 	movi	r5,5
  803ca0:	080290c0 	call	80290c <Hal4D13_SetEndpointConfig>
    Hal4D13_SetEndpointConfig(/*D13REG_EPCNFG_FIFO_EN|*/D13REG_EPCNFG_DBLBUF_EN|D13REG_EPCNFG_ISOSZ_512|D13REG_EPCNFG_ISO_EN,EPINDEX4EP05);
  803ca4:	01000ec4 	movi	r4,59
  803ca8:	01400184 	movi	r5,6
  803cac:	080290c0 	call	80290c <Hal4D13_SetEndpointConfig>
    Hal4D13_SetEndpointConfig(/*D13REG_EPCNFG_FIFO_EN|*/D13REG_EPCNFG_DBLBUF_EN|D13REG_EPCNFG_ISOSZ_512|D13REG_EPCNFG_ISO_EN|D13REG_EPCNFG_IN_EN,EPINDEX4EP06);
  803cb0:	01001ec4 	movi	r4,123
  803cb4:	014001c4 	movi	r5,7
  803cb8:	080290c0 	call	80290c <Hal4D13_SetEndpointConfig>
    Hal4D13_SetEndpointConfig(/*D13REG_EPCNFG_FIFO_EN|*/D13REG_EPCNFG_DBLBUF_EN|D13REG_EPCNFG_ISOSZ_16|D13REG_EPCNFG_ISO_EN,EPINDEX4EP07);
  803cbc:	01000c04 	movi	r4,48
  803cc0:	01400204 	movi	r5,8
  803cc4:	080290c0 	call	80290c <Hal4D13_SetEndpointConfig>
    Hal4D13_SetEndpointConfig(/*D13REG_EPCNFG_FIFO_EN|*/D13REG_EPCNFG_IN_EN|D13REG_EPCNFG_DBLBUF_EN|D13REG_EPCNFG_ISOSZ_16|D13REG_EPCNFG_ISO_EN,EPINDEX4EP08);
  803cc8:	01001c04 	movi	r4,112
  803ccc:	01400244 	movi	r5,9
  803cd0:	080290c0 	call	80290c <Hal4D13_SetEndpointConfig>
    Hal4D13_SetEndpointConfig(/*D13REG_EPCNFG_FIFO_EN|*/D13REG_EPCNFG_DBLBUF_EN|D13REG_EPCNFG_ISOSZ_16|D13REG_EPCNFG_ISO_EN,EPINDEX4EP09);
  803cd4:	01000c04 	movi	r4,48
  803cd8:	01400284 	movi	r5,10
  803cdc:	080290c0 	call	80290c <Hal4D13_SetEndpointConfig>
    Hal4D13_SetEndpointConfig(/*D13REG_EPCNFG_FIFO_EN|*/D13REG_EPCNFG_IN_EN|D13REG_EPCNFG_DBLBUF_EN|D13REG_EPCNFG_ISOSZ_16|D13REG_EPCNFG_ISO_EN,EPINDEX4EP0A);
  803ce0:	01001c04 	movi	r4,112
  803ce4:	014002c4 	movi	r5,11
  803ce8:	080290c0 	call	80290c <Hal4D13_SetEndpointConfig>
    Hal4D13_SetEndpointConfig(/*D13REG_EPCNFG_FIFO_EN|*/D13REG_EPCNFG_DBLBUF_EN|D13REG_EPCNFG_ISOSZ_64|D13REG_EPCNFG_ISO_EN,EPINDEX4EP0B);
  803cec:	01000cc4 	movi	r4,51
  803cf0:	01400304 	movi	r5,12
  803cf4:	080290c0 	call	80290c <Hal4D13_SetEndpointConfig>
    Hal4D13_SetEndpointConfig(/*D13REG_EPCNFG_FIFO_EN|*/D13REG_EPCNFG_IN_EN|D13REG_EPCNFG_DBLBUF_EN|D13REG_EPCNFG_ISOSZ_64|D13REG_EPCNFG_ISO_EN,EPINDEX4EP0C);
  803cf8:	01001cc4 	movi	r4,115
  803cfc:	01400344 	movi	r5,13
  803d00:	080290c0 	call	80290c <Hal4D13_SetEndpointConfig>
    Hal4D13_SetEndpointConfig(/*D13REG_EPCNFG_FIFO_EN|*/D13REG_EPCNFG_DBLBUF_EN|D13REG_EPCNFG_ISOSZ_64|D13REG_EPCNFG_ISO_EN,EPINDEX4EP0D);
  803d04:	01000cc4 	movi	r4,51
  803d08:	01400384 	movi	r5,14
  803d0c:	080290c0 	call	80290c <Hal4D13_SetEndpointConfig>
    Hal4D13_SetEndpointConfig(/*D13REG_EPCNFG_FIFO_EN|*/D13REG_EPCNFG_IN_EN|D13REG_EPCNFG_DBLBUF_EN|D13REG_EPCNFG_ISOSZ_64|D13REG_EPCNFG_ISO_EN,EPINDEX4EP0E);
  803d10:	01001cc4 	movi	r4,115
  803d14:	014003c4 	movi	r5,15
  803d18:	080290c0 	call	80290c <Hal4D13_SetEndpointConfig>
    /*DISABLED*/

    
    /*Set interrupt configuration*/
    Hal4D13_SetIntEnable(
  803d1c:	0101c1c4 	movi	r4,1799
  803d20:	08024180 	call	802418 <Hal4D13_SetIntEnable>
                        |D13REG_INTSRC_RESUME
                        |D13REG_INTSRC_BUSRESET
    );
                        
    /*Set Hardware Configuration*/
    Hal4D13_SetDevConfig(D13REG_DEVCNFG_NOLAZYCLOCK
  803d24:	0108d004 	movi	r4,9024
  803d28:	0801bfc0 	call	801bfc <Hal4D13_SetDevConfig>
                        |D13REG_DEVCNFG_DMARQPOL
//            			|D13REG_DEVCNFG_EXPULLUP
);


}
  803d2c:	e037883a 	mov	sp,fp
  803d30:	dfc00117 	ldw	ra,4(sp)
  803d34:	df000017 	ldw	fp,0(sp)
  803d38:	dec00204 	addi	sp,sp,8
  803d3c:	f800283a 	ret

00803d40 <reconnect_USB_controller>:

void reconnect_USB_controller(void) {
  803d40:	defffe04 	addi	sp,sp,-8
  803d44:	dfc00115 	stw	ra,4(sp)
  803d48:	df000015 	stw	fp,0(sp)
  803d4c:	d839883a 	mov	fp,sp
    disconnect_USB_controller();
  803d50:	0803ba40 	call	803ba4 <disconnect_USB_controller>
    connect_USB_controller();
  803d54:	0803be40 	call	803be4 <connect_USB_controller>
}
  803d58:	e037883a 	mov	sp,fp
  803d5c:	dfc00117 	ldw	ra,4(sp)
  803d60:	df000017 	ldw	fp,0(sp)
  803d64:	dec00204 	addi	sp,sp,8
  803d68:	f800283a 	ret

00803d6c <change_suspend_state>:

void change_suspend_state(void) {
  803d6c:	defffe04 	addi	sp,sp,-8
  803d70:	dfc00115 	stw	ra,4(sp)
  803d74:	df000015 	stw	fp,0(sp)
  803d78:	d839883a 	mov	fp,sp
    printf("SUSPEND CHANGE \n");
  803d7c:	01002074 	movhi	r4,129
  803d80:	210b7504 	addi	r4,r4,11732
  803d84:	080651c0 	call	80651c <puts>
 // disconnect_USB();
//  Suspend_Device_Controller();
}
  803d88:	e037883a 	mov	sp,fp
  803d8c:	dfc00117 	ldw	ra,4(sp)
  803d90:	df000017 	ldw	fp,0(sp)
  803d94:	dec00204 	addi	sp,sp,8
  803d98:	f800283a 	ret

00803d9c <ML_AcknowledgeSETUP>:

void ML_AcknowledgeSETUP(void)
{
  803d9c:	defffe04 	addi	sp,sp,-8
  803da0:	dfc00115 	stw	ra,4(sp)
  803da4:	df000015 	stw	fp,0(sp)
  803da8:	d839883a 	mov	fp,sp

    if( Hal4D13_IsSetupPktInvalid() || ControlData.Abort)
  803dac:	0802bb80 	call	802bb8 <Hal4D13_IsSetupPktInvalid>
  803db0:	10803fcc 	andi	r2,r2,255
  803db4:	1004c03a 	cmpne	r2,r2,zero
  803db8:	10000a1e 	bne	r2,zero,803de4 <ML_AcknowledgeSETUP+0x48>
  803dbc:	00802074 	movhi	r2,129
  803dc0:	109c7d04 	addi	r2,r2,29172
  803dc4:	10800003 	ldbu	r2,0(r2)
  803dc8:	10803fcc 	andi	r2,r2,255
  803dcc:	1005003a 	cmpeq	r2,r2,zero
  803dd0:	1000011e 	bne	r2,zero,803dd8 <ML_AcknowledgeSETUP+0x3c>
    {
        return;
  803dd4:	00000306 	br	803de4 <ML_AcknowledgeSETUP+0x48>
    }

    Hal4D13_AcknowledgeSETUP();
  803dd8:	0801e1c0 	call	801e1c <Hal4D13_AcknowledgeSETUP>
    Hal4D13_ClearBuffer(EPINDEX4EP0_CONTROL_OUT);
  803ddc:	0009883a 	mov	r4,zero
  803de0:	0801e480 	call	801e48 <Hal4D13_ClearBuffer>
}
  803de4:	e037883a 	mov	sp,fp
  803de8:	dfc00117 	ldw	ra,4(sp)
  803dec:	df000017 	ldw	fp,0(sp)
  803df0:	dec00204 	addi	sp,sp,8
  803df4:	f800283a 	ret

00803df8 <ML_Reserved>:

void ML_Reserved(void)
{
  803df8:	defffe04 	addi	sp,sp,-8
  803dfc:	dfc00115 	stw	ra,4(sp)
  803e00:	df000015 	stw	fp,0(sp)
  803e04:	d839883a 	mov	fp,sp
    Hal4D13_ClearBuffer(EPINDEX4EP0_CONTROL_OUT);
  803e08:	0009883a 	mov	r4,zero
  803e0c:	0801e480 	call	801e48 <Hal4D13_ClearBuffer>
    printf("Reserved\n");
  803e10:	01002074 	movhi	r4,129
  803e14:	210aee04 	addi	r4,r4,11192
  803e18:	080651c0 	call	80651c <puts>
}
  803e1c:	e037883a 	mov	sp,fp
  803e20:	dfc00117 	ldw	ra,4(sp)
  803e24:	df000017 	ldw	fp,0(sp)
  803e28:	dec00204 	addi	sp,sp,8
  803e2c:	f800283a 	ret

00803e30 <CHECK_CHIP_ID>:

unsigned short CHECK_CHIP_ID(void)
{
  803e30:	defffb04 	addi	sp,sp,-20
  803e34:	dfc00415 	stw	ra,16(sp)
  803e38:	df000315 	stw	fp,12(sp)
  803e3c:	df000304 	addi	fp,sp,12
    unsigned short CHIP_ID;
    unsigned char LOW_ID, HIGH_ID;

    CHIP_ID = Hal4D13_ReadChipID();
  803e40:	08028240 	call	802824 <Hal4D13_ReadChipID>
  803e44:	e0bffd8d 	sth	r2,-10(fp)
    LOW_ID = (unsigned char)CHIP_ID;
  803e48:	e0bffd8b 	ldhu	r2,-10(fp)
  803e4c:	e0bffd45 	stb	r2,-11(fp)
    HIGH_ID = (unsigned char)(CHIP_ID >> 8) ;
  803e50:	e0bffd8b 	ldhu	r2,-10(fp)
  803e54:	1004d23a 	srli	r2,r2,8
  803e58:	e0bffd05 	stb	r2,-12(fp)

    switch(HIGH_ID)
  803e5c:	e0bffd03 	ldbu	r2,-12(fp)
  803e60:	e0bfff15 	stw	r2,-4(fp)
  803e64:	e0ffff17 	ldw	r3,-4(fp)
  803e68:	18800da0 	cmpeqi	r2,r3,54
  803e6c:	10000d1e 	bne	r2,zero,803ea4 <CHECK_CHIP_ID+0x74>
  803e70:	e0ffff17 	ldw	r3,-4(fp)
  803e74:	18801860 	cmpeqi	r2,r3,97
  803e78:	1000011e 	bne	r2,zero,803e80 <CHECK_CHIP_ID+0x50>
  803e7c:	00001206 	br	803ec8 <CHECK_CHIP_ID+0x98>
    {
     case 0x61 : {
                    
                         printf("               CHIP ID =0x%04x\n\n",CHIP_ID);
  803e80:	e17ffd8b 	ldhu	r5,-10(fp)
  803e84:	01002074 	movhi	r4,129
  803e88:	210b7904 	addi	r4,r4,11748
  803e8c:	08063e00 	call	8063e0 <printf>
                        CHIP_ID =0x1161;
  803e90:	00845844 	movi	r2,4449
  803e94:	e0bffd8d 	sth	r2,-10(fp)
                        return CHIP_ID;
  803e98:	e0bffd8b 	ldhu	r2,-10(fp)
  803e9c:	e0bffe15 	stw	r2,-8(fp)
  803ea0:	00000f06 	br	803ee0 <CHECK_CHIP_ID+0xb0>
                         break;
                 }

     case 0x36 : {
                             printf("               CHIP ID =0x%04x\n\n",CHIP_ID);
  803ea4:	e17ffd8b 	ldhu	r5,-10(fp)
  803ea8:	01002074 	movhi	r4,129
  803eac:	210b7904 	addi	r4,r4,11748
  803eb0:	08063e00 	call	8063e0 <printf>
                         CHIP_ID = 0x1362;
  803eb4:	0084d884 	movi	r2,4962
  803eb8:	e0bffd8d 	sth	r2,-10(fp)
                         return CHIP_ID;
  803ebc:	e0fffd8b 	ldhu	r3,-10(fp)
  803ec0:	e0fffe15 	stw	r3,-8(fp)
  803ec4:	00000606 	br	803ee0 <CHECK_CHIP_ID+0xb0>
                         break;
                 }

     default   : {
                 printf("               UNKNOWN CHIP ID =0x%04x\n\n",CHIP_ID);
  803ec8:	e17ffd8b 	ldhu	r5,-10(fp)
  803ecc:	01002074 	movhi	r4,129
  803ed0:	210b8204 	addi	r4,r4,11784
  803ed4:	08063e00 	call	8063e0 <printf>
                 return CHIP_ID;
  803ed8:	e0bffd8b 	ldhu	r2,-10(fp)
  803edc:	e0bffe15 	stw	r2,-8(fp)
  803ee0:	e0bffe17 	ldw	r2,-8(fp)


    }


}
  803ee4:	e037883a 	mov	sp,fp
  803ee8:	dfc00117 	ldw	ra,4(sp)
  803eec:	df000017 	ldw	fp,0(sp)
  803ef0:	dec00204 	addi	sp,sp,8
  803ef4:	f800283a 	ret

00803ef8 <main>:

//Time tracking functions
alt_u32 clk_ticks; //Ticks elapsed since reset (alt_nticks)
alt_u32 clk_rate; //Ticks per second (call alt_ticks_per_second)

int main() {
  803ef8:	defe7404 	addi	sp,sp,-1584
  803efc:	dfc18b15 	stw	ra,1580(sp)
  803f00:	df018a15 	stw	fp,1576(sp)
  803f04:	dc018915 	stw	r16,1572(sp)
  803f08:	df018904 	addi	fp,sp,1572
	/* Serial - gesture recognition variables */
	alt_u32 write_FIFO_space;
	alt_u16 read_FIFO_used;
	alt_u8 data_W8, data_R8;

	int enter = 0;
  803f0c:	e03ebc15 	stw	zero,-1296(fp)
	unsigned p_error;
	alt_up_rs232_dev* rs232_dev;

	// open the RS232 UART port
	rs232_dev = alt_up_rs232_open_dev("/dev/rs232_0");
  803f10:	01002074 	movhi	r4,129
  803f14:	210b8d04 	addi	r4,r4,11828
  803f18:	08116040 	call	811604 <alt_up_rs232_open_dev>
  803f1c:	e0bebb15 	stw	r2,-1300(fp)
	if (rs232_dev == NULL)
  803f20:	e0bebb17 	ldw	r2,-1300(fp)
  803f24:	1004c03a 	cmpne	r2,r2,zero
  803f28:	1000041e 	bne	r2,zero,803f3c <main+0x44>
		alt_printf("Error: could not open RS232 UART\n");
  803f2c:	01002074 	movhi	r4,129
  803f30:	210b9104 	addi	r4,r4,11844
  803f34:	080ff240 	call	80ff24 <alt_printf>
  803f38:	00000306 	br	803f48 <main+0x50>
	else
		alt_printf("Opened RS232 UART device\n");
  803f3c:	01002074 	movhi	r4,129
  803f40:	210b9a04 	addi	r4,r4,11880
  803f44:	080ff240 	call	80ff24 <alt_printf>
	alt_up_rs232_enable_read_interrupt(rs232_dev);
  803f48:	e13ebb17 	ldw	r4,-1300(fp)
  803f4c:	08112ac0 	call	8112ac <alt_up_rs232_enable_read_interrupt>
	//alt_up_rs232_disable_read_interrupt(rs232_dev);

	alt_u8 test;
	alt_u8 error = 0;
  803f50:	e03eba05 	stb	zero,-1304(fp)
	int streamStart = 0;
  803f54:	e03eb915 	stw	zero,-1308(fp)
	int offsetStart = 0;
  803f58:	e03eb815 	stw	zero,-1312(fp)
	char buffer[8];
	int measurements[6];
	int inc_i = 0;
  803f5c:	e03eb715 	stw	zero,-1316(fp)
	int measurementNumber = 0;
  803f60:	e03eb615 	stw	zero,-1320(fp)
	int clearCounter;
	int axAverage = 0;
  803f64:	e03eb415 	stw	zero,-1328(fp)
	int ayAverage = 0;
  803f68:	e03eb315 	stw	zero,-1332(fp)
	int azAverage = 0;
  803f6c:	e03eb215 	stw	zero,-1336(fp)
	int numberOfMeasurements = 0;
  803f70:	e03eb115 	stw	zero,-1340(fp)
	int aoffsetz;
	int goffsetx;
	int goffsety;
	int goffsetz;

	double pOldx = 0;
  803f74:	e03ea915 	stw	zero,-1372(fp)
  803f78:	e03eaa15 	stw	zero,-1368(fp)
	double pNewx = 0;
  803f7c:	e03ea715 	stw	zero,-1380(fp)
  803f80:	e03ea815 	stw	zero,-1376(fp)
	double pOldy = 0;
  803f84:	e03ea515 	stw	zero,-1388(fp)
  803f88:	e03ea615 	stw	zero,-1384(fp)
	double pNewy = 0;
  803f8c:	e03ea315 	stw	zero,-1396(fp)
  803f90:	e03ea415 	stw	zero,-1392(fp)
	double pOldz = 0;
  803f94:	e03ea115 	stw	zero,-1404(fp)
  803f98:	e03ea215 	stw	zero,-1400(fp)
	double pNewz = 0;
  803f9c:	e03e9f15 	stw	zero,-1412(fp)
  803fa0:	e03ea015 	stw	zero,-1408(fp)

	double aOldx = 0;
  803fa4:	e03e9d15 	stw	zero,-1420(fp)
  803fa8:	e03e9e15 	stw	zero,-1416(fp)
	double aNewx = 0;
  803fac:	e03e9b15 	stw	zero,-1428(fp)
  803fb0:	e03e9c15 	stw	zero,-1424(fp)
	double aOldy = 0;
  803fb4:	e03e9915 	stw	zero,-1436(fp)
  803fb8:	e03e9a15 	stw	zero,-1432(fp)
	double aNewy = 0;
  803fbc:	e03e9715 	stw	zero,-1444(fp)
  803fc0:	e03e9815 	stw	zero,-1440(fp)
	double aOldz = 0;
  803fc4:	e03e9515 	stw	zero,-1452(fp)
  803fc8:	e03e9615 	stw	zero,-1448(fp)
	double aNewz = 0;
  803fcc:	e03e9315 	stw	zero,-1460(fp)
  803fd0:	e03e9415 	stw	zero,-1456(fp)

	double vOldx = 0;
  803fd4:	e03e9115 	stw	zero,-1468(fp)
  803fd8:	e03e9215 	stw	zero,-1464(fp)
	double vNewx = 0;
  803fdc:	e03e8f15 	stw	zero,-1476(fp)
  803fe0:	e03e9015 	stw	zero,-1472(fp)
	double vOldy = 0;
  803fe4:	e03e8d15 	stw	zero,-1484(fp)
  803fe8:	e03e8e15 	stw	zero,-1480(fp)
	double vNewy = 0;
  803fec:	e03e8b15 	stw	zero,-1492(fp)
  803ff0:	e03e8c15 	stw	zero,-1488(fp)
	double vOldz = 0;
  803ff4:	e03e8915 	stw	zero,-1500(fp)
  803ff8:	e03e8a15 	stw	zero,-1496(fp)
	double vNewz = 0;
  803ffc:	e03e8715 	stw	zero,-1508(fp)
  804000:	e03e8815 	stw	zero,-1504(fp)

	int VAveragex = 0;
  804004:	e03e8615 	stw	zero,-1512(fp)
	int VAveragey = 0;
  804008:	e03e8515 	stw	zero,-1516(fp)
	int VAveragez = 0;
  80400c:	e03e8415 	stw	zero,-1520(fp)

	int cycleCount = 0;
  804010:	e03e8315 	stw	zero,-1524(fp)
	int count;
	int countStart = 0;
  804014:	e03e8115 	stw	zero,-1532(fp)
	int counti = 0;
  804018:	e03e8015 	stw	zero,-1536(fp)

	int ax[100];
	int ay[100];
	int az[100];

	int initax = 0;
  80401c:	e03e7f15 	stw	zero,-1540(fp)
	int initay = 0;
  804020:	e03e7e15 	stw	zero,-1544(fp)
	int initaz = 0;
  804024:	e03e7d15 	stw	zero,-1548(fp)

	int initStart = 0;
  804028:	e03e7c15 	stw	zero,-1552(fp)
	int initCounter = 0;
  80402c:	e03e7b15 	stw	zero,-1556(fp)

	int gloveOrientation = 0;
  804030:	e03e7a15 	stw	zero,-1560(fp)
	int movementDirection = 0;
  804034:	e03e7915 	stw	zero,-1564(fp)

	/* Configure ISP1362 chip */
	disable_irq();
  804038:	08055a80 	call	8055a8 <disable_irq>
	disconnect_USB_controller();
  80403c:	0803ba40 	call	803ba4 <disconnect_USB_controller>
	usleep(1000000);
  804040:	010003f4 	movhi	r4,15
  804044:	21109004 	addi	r4,r4,16960
  804048:	08104740 	call	810474 <usleep>
	Hal4D13_ResetDevice(); //This is good because its a legit ISP1362 call
  80404c:	0801b900 	call	801b90 <Hal4D13_ResetDevice>
	//changed state settings to reset values -- If possible I would like to remove these.
	hid_settings.state = reset;
  804050:	00802074 	movhi	r2,129
  804054:	109c6304 	addi	r2,r2,29068
  804058:	10000015 	stw	zero,0(r2)
	watchdog_required = FALSE;
  80405c:	e03ec045 	stb	zero,-1279(fp)
	bUSBCheck_Device_State.State_bits.DEVICE_DEFAULT_STATE = 1;
  804060:	d0a79503 	ldbu	r2,-25004(gp)
  804064:	10800054 	ori	r2,r2,1
  804068:	d0a79505 	stb	r2,-25004(gp)
	bUSBCheck_Device_State.State_bits.DEVICE_ADDRESS_STATE = 0;
  80406c:	d0e79503 	ldbu	r3,-25004(gp)
  804070:	00bfff44 	movi	r2,-3
  804074:	1884703a 	and	r2,r3,r2
  804078:	d0a79505 	stb	r2,-25004(gp)
	bUSBCheck_Device_State.State_bits.DEVICE_CONFIGURATION_STATE = 0;
  80407c:	d0e79503 	ldbu	r3,-25004(gp)
  804080:	00bffec4 	movi	r2,-5
  804084:	1884703a 	and	r2,r3,r2
  804088:	d0a79505 	stb	r2,-25004(gp)
	bUSBCheck_Device_State.State_bits.RESET_BITS = 0;
  80408c:	00802074 	movhi	r2,129
  804090:	109c6484 	addi	r2,r2,29074
  804094:	10000005 	stb	zero,0(r2)
	usleep(1000000);
  804098:	010003f4 	movhi	r4,15
  80409c:	21109004 	addi	r4,r4,16960
  8040a0:	08104740 	call	810474 <usleep>
	reconnect_USB_controller();
  8040a4:	0803d400 	call	803d40 <reconnect_USB_controller>
	CHECK_CHIP_ID(); //Checks chip ID and prints it to console. Is not actually required
  8040a8:	0803e300 	call	803e30 <CHECK_CHIP_ID>
	Hal4D13_AcquireD13(USB_0_BASE,(void*)usb_isr); //Registers main ISR. very important.
  8040ac:	01000804 	movi	r4,32
  8040b0:	01402034 	movhi	r5,128
  8040b4:	294bbb04 	addi	r5,r5,12012
  8040b8:	0801b540 	call	801b54 <Hal4D13_AcquireD13>
	enable_irq();
  8040bc:	08055f80 	call	8055f8 <enable_irq>

	/* Initialise HID report structures to zero */
	new_report.modifier = 0x00;
  8040c0:	d0278e05 	stb	zero,-25032(gp)
	new_report.reserved = 0x00;
  8040c4:	00802074 	movhi	r2,129
  8040c8:	109c5d44 	addi	r2,r2,29045
  8040cc:	10000005 	stb	zero,0(r2)
	for(i=0; i<6; i++){
  8040d0:	e03ebf15 	stw	zero,-1284(fp)
  8040d4:	00000806 	br	8040f8 <main+0x200>
		new_report.keycode[i] = 0x00;
  8040d8:	e0febf17 	ldw	r3,-1284(fp)
  8040dc:	00802074 	movhi	r2,129
  8040e0:	109c5d84 	addi	r2,r2,29046
  8040e4:	10c5883a 	add	r2,r2,r3
  8040e8:	10000005 	stb	zero,0(r2)
	enable_irq();

	/* Initialise HID report structures to zero */
	new_report.modifier = 0x00;
	new_report.reserved = 0x00;
	for(i=0; i<6; i++){
  8040ec:	e0bebf17 	ldw	r2,-1284(fp)
  8040f0:	10800044 	addi	r2,r2,1
  8040f4:	e0bebf15 	stw	r2,-1284(fp)
  8040f8:	e0bebf17 	ldw	r2,-1284(fp)
  8040fc:	10800190 	cmplti	r2,r2,6
  804100:	103ff51e 	bne	r2,zero,8040d8 <main+0x1e0>
		new_report.keycode[i] = 0x00;
	}

	old_report.modifier = 0x00;
  804104:	e03ec105 	stb	zero,-1276(fp)
	old_report.reserved = 0x00;
  804108:	e03ec145 	stb	zero,-1275(fp)
	for(i=0; i<6; i++){
  80410c:	e03ebf15 	stw	zero,-1284(fp)
  804110:	00000706 	br	804130 <main+0x238>
		old_report.keycode[i] = 0x00;
  804114:	e0febf17 	ldw	r3,-1284(fp)
  804118:	e0bec104 	addi	r2,fp,-1276
  80411c:	10c5883a 	add	r2,r2,r3
  804120:	10000085 	stb	zero,2(r2)
		new_report.keycode[i] = 0x00;
	}

	old_report.modifier = 0x00;
	old_report.reserved = 0x00;
	for(i=0; i<6; i++){
  804124:	e0bebf17 	ldw	r2,-1284(fp)
  804128:	10800044 	addi	r2,r2,1
  80412c:	e0bebf15 	stw	r2,-1284(fp)
  804130:	e0bebf17 	ldw	r2,-1284(fp)
  804134:	10800190 	cmplti	r2,r2,6
  804138:	103ff61e 	bne	r2,zero,804114 <main+0x21c>
		old_report.keycode[i] = 0x00;
	}

	gesture = 0x00;
  80413c:	e03ec005 	stb	zero,-1280(fp)
	bufferAvailable = TRUE;
  804140:	00800044 	movi	r2,1
  804144:	e0bec0c5 	stb	r2,-1277(fp)
  804148:	00000006 	br	80414c <main+0x254>

	while(1) {

		/* Interrupt service routines modify state bits, calls handler based on state */
		if (bUSBCheck_Device_State.State_bits.RESET_BITS == 1) {
  80414c:	00802074 	movhi	r2,129
  804150:	109c6484 	addi	r2,r2,29074
  804154:	10800003 	ldbu	r2,0(r2)
  804158:	10803fcc 	andi	r2,r2,255
  80415c:	10800058 	cmpnei	r2,r2,1
  804160:	1000041e 	bne	r2,zero,804174 <main+0x27c>
			disable_irq();
  804164:	08055a80 	call	8055a8 <disable_irq>
			bufferAvailable = TRUE;
		}

  	} //While

  return 0;
  804168:	0005883a 	mov	r2,zero
  80416c:	e0bffc15 	stw	r2,-16(fp)
  804170:	0002a406 	br	804c04 <main+0xd0c>
		/* Interrupt service routines modify state bits, calls handler based on state */
		if (bUSBCheck_Device_State.State_bits.RESET_BITS == 1) {
			disable_irq();
			break;
		}
		if (bD13flags.bits.suspend) {
  804174:	d0a78c17 	ldw	r2,-25040(gp)
  804178:	1080008c 	andi	r2,r2,2
  80417c:	1005003a 	cmpeq	r2,r2,zero
  804180:	1000071e 	bne	r2,zero,8041a0 <main+0x2a8>
			disable_irq();
  804184:	08055a80 	call	8055a8 <disable_irq>
			bD13flags.bits.suspend= 0;
  804188:	d0a78c17 	ldw	r2,-25040(gp)
  80418c:	00ffff44 	movi	r3,-3
  804190:	10c4703a 	and	r2,r2,r3
  804194:	d0a78c15 	stw	r2,-25040(gp)
			enable_irq();
  804198:	08055f80 	call	8055f8 <enable_irq>
			change_suspend_state();
  80419c:	0803d6c0 	call	803d6c <change_suspend_state>
		} // Suspend Change Handler
		if (bD13flags.bits.DCP_state == USBFSM4DCP_SETUPPROC) {
  8041a0:	d0a78c17 	ldw	r2,-25040(gp)
  8041a4:	1083c00c 	andi	r2,r2,3840
  8041a8:	10814018 	cmpnei	r2,r2,1280
  8041ac:	1000031e 	bne	r2,zero,8041bc <main+0x2c4>
			disable_irq();
  8041b0:	08055a80 	call	8055a8 <disable_irq>
			SetupToken_Handler();
  8041b4:	08036f40 	call	8036f4 <SetupToken_Handler>
			enable_irq();
  8041b8:	08055f80 	call	8055f8 <enable_irq>
		} // Setup Token Handler
		if ((bD13flags.bits.DCP_state == USBFSM4DCP_REQUESTPROC) && !ControlData.Abort) {
  8041bc:	d0a78c17 	ldw	r2,-25040(gp)
  8041c0:	1083c00c 	andi	r2,r2,3840
  8041c4:	1080c018 	cmpnei	r2,r2,768
  8041c8:	10000d1e 	bne	r2,zero,804200 <main+0x308>
  8041cc:	00802074 	movhi	r2,129
  8041d0:	109c7d04 	addi	r2,r2,29172
  8041d4:	10800003 	ldbu	r2,0(r2)
  8041d8:	10803fcc 	andi	r2,r2,255
  8041dc:	1004c03a 	cmpne	r2,r2,zero
  8041e0:	1000071e 	bne	r2,zero,804200 <main+0x308>
			disable_irq();
  8041e4:	08055a80 	call	8055a8 <disable_irq>
			bD13flags.bits.DCP_state = 0x00;
  8041e8:	d0a78c17 	ldw	r2,-25040(gp)
  8041ec:	00fc3fc4 	movi	r3,-3841
  8041f0:	10c4703a 	and	r2,r2,r3
  8041f4:	d0a78c15 	stw	r2,-25040(gp)
			DeviceRequest_Handler();
  8041f8:	08039680 	call	803968 <DeviceRequest_Handler>
			enable_irq();
  8041fc:	08055f80 	call	8055f8 <enable_irq>
		} // Device Request Handler

		//TODO: Revisit how toSend is decided. Now bufferAvailable
		if(bD13flags.bits.DCP_state == USBFSM4DCP_INTR1DONE) {
  804200:	d0a78c17 	ldw	r2,-25040(gp)
  804204:	1083c00c 	andi	r2,r2,3840
  804208:	1082c018 	cmpnei	r2,r2,2816
  80420c:	1000161e 	bne	r2,zero,804268 <main+0x370>
			bD13flags.bits.DCP_state = 0x00;
  804210:	d0e78c17 	ldw	r3,-25040(gp)
  804214:	00bc3fc4 	movi	r2,-3841
  804218:	1884703a 	and	r2,r3,r2
  80421c:	d0a78c15 	stw	r2,-25040(gp)
			if(Hal4D13_GetErrorCode(EPINDEX4EP01) & 0x01) {
  804220:	01000084 	movi	r4,2
  804224:	08028640 	call	802864 <Hal4D13_GetErrorCode>
  804228:	10803fcc 	andi	r2,r2,255
  80422c:	1080004c 	andi	r2,r2,1
  804230:	10803fcc 	andi	r2,r2,255
  804234:	1005003a 	cmpeq	r2,r2,zero
  804238:	10000b1e 	bne	r2,zero,804268 <main+0x370>
				//I feel like I need to do something in here. We get interrupts from the other side when packet is received.
				if(old_report.modifier & 0x04) {
  80423c:	e0bec103 	ldbu	r2,-1276(fp)
  804240:	10803fcc 	andi	r2,r2,255
  804244:	1080010c 	andi	r2,r2,4
  804248:	1005003a 	cmpeq	r2,r2,zero
  80424c:	1000031e 	bne	r2,zero,80425c <main+0x364>
					gesture = 0x05;
  804250:	00800144 	movi	r2,5
  804254:	e0bec005 	stb	r2,-1280(fp)
  804258:	00000106 	br	804260 <main+0x368>
				} else {
					gesture = 0x00;
  80425c:	e03ec005 	stb	zero,-1280(fp)
				}

				bufferAvailable = TRUE;
  804260:	00800044 	movi	r2,1
  804264:	e0bec0c5 	stb	r2,-1277(fp)
			}
		}

		if(hid_settings.state == connected) {
  804268:	00802074 	movhi	r2,129
  80426c:	109c6304 	addi	r2,r2,29068
  804270:	10800017 	ldw	r2,0(r2)
  804274:	10800058 	cmpnei	r2,r2,1
  804278:	1002591e 	bne	r2,zero,804be0 <main+0xce8>

			UCHAR status = Hal4D13_GetEndpointStatusWOInteruptClear(EPINDEX4EP01);
  80427c:	01000084 	movi	r4,2
  804280:	080254c0 	call	80254c <Hal4D13_GetEndpointStatusWOInteruptClear>
  804284:	e0be7805 	stb	r2,-1568(fp)
			if(!(status & 0x60)) {
				//bufferAvailable = TRUE;
				//gesture = 0x00;
			}

			read_FIFO_used = alt_up_rs232_get_used_space_in_read_FIFO(rs232_dev);
  804288:	e13ebb17 	ldw	r4,-1300(fp)
  80428c:	08113580 	call	811358 <alt_up_rs232_get_used_space_in_read_FIFO>
  804290:	e0bebd8d 	sth	r2,-1290(fp)
					//printf("tcount %d\n", tcount);
				//}
			}*/

			//printf("Where you at BAE?\n");
			if (read_FIFO_used > READ_FIFO_EMPTY){
  804294:	e0bebd8b 	ldhu	r2,-1290(fp)
  804298:	1005003a 	cmpeq	r2,r2,zero
  80429c:	1001d91e 	bne	r2,zero,804a04 <main+0xb0c>
				//printf("Right he-ya!\n");
				alt_up_rs232_read_data(rs232_dev, &data_R8, &p_error);
  8042a0:	e1bec604 	addi	r6,fp,-1256
  8042a4:	e17ec504 	addi	r5,fp,-1260
  8042a8:	e13ebb17 	ldw	r4,-1300(fp)
  8042ac:	081146c0 	call	81146c <alt_up_rs232_read_data>
				//printf("counti %d\n",counti);
				//printf("streamstart: %d\n", streamStart);
				//printf("countstart: %d\n", countStart);
				//alt_printf("%c", data_R8);
				if(!streamStart && data_R8 == 'C'){
  8042b0:	e0beb917 	ldw	r2,-1308(fp)
  8042b4:	1004c03a 	cmpne	r2,r2,zero
  8042b8:	1000121e 	bne	r2,zero,804304 <main+0x40c>
  8042bc:	e0bec503 	ldbu	r2,-1260(fp)
  8042c0:	10803fcc 	andi	r2,r2,255
  8042c4:	108010d8 	cmpnei	r2,r2,67
  8042c8:	10000e1e 	bne	r2,zero,804304 <main+0x40c>
					printf("Start\n");
  8042cc:	01002074 	movhi	r4,129
  8042d0:	210ba104 	addi	r4,r4,11908
  8042d4:	080651c0 	call	80651c <puts>
					printf("---------\n");
  8042d8:	01002074 	movhi	r4,129
  8042dc:	210ba304 	addi	r4,r4,11916
  8042e0:	080651c0 	call	80651c <puts>
					streamStart = 1;
  8042e4:	00800044 	movi	r2,1
  8042e8:	e0beb915 	stw	r2,-1308(fp)
					countStart = 1;
  8042ec:	00800044 	movi	r2,1
  8042f0:	e0be8115 	stw	r2,-1532(fp)
					cycleCount = 0;
  8042f4:	e03e8315 	stw	zero,-1524(fp)
					counti = 0;
  8042f8:	e03e8015 	stw	zero,-1536(fp)
					inc_i = 0;
  8042fc:	e03eb715 	stw	zero,-1316(fp)
					//printf("%d\n", i);
					continue;
  804300:	003f9206 	br	80414c <main+0x254>
				}


				if(streamStart && countStart && !initStart && (data_R8 == '\n')){
  804304:	e0beb917 	ldw	r2,-1308(fp)
  804308:	1005003a 	cmpeq	r2,r2,zero
  80430c:	1000271e 	bne	r2,zero,8043ac <main+0x4b4>
  804310:	e0be8117 	ldw	r2,-1532(fp)
  804314:	1005003a 	cmpeq	r2,r2,zero
  804318:	1000241e 	bne	r2,zero,8043ac <main+0x4b4>
  80431c:	e0be7c17 	ldw	r2,-1552(fp)
  804320:	1004c03a 	cmpne	r2,r2,zero
  804324:	1000211e 	bne	r2,zero,8043ac <main+0x4b4>
  804328:	e0bec503 	ldbu	r2,-1260(fp)
  80432c:	10803fcc 	andi	r2,r2,255
  804330:	10800298 	cmpnei	r2,r2,10
  804334:	10001d1e 	bne	r2,zero,8043ac <main+0x4b4>
					streamStart = 1;
  804338:	00800044 	movi	r2,1
  80433c:	e0beb915 	stw	r2,-1308(fp)
					countStart = 0;
  804340:	e03e8115 	stw	zero,-1532(fp)
					cycleCount = 0;
  804344:	e03e8315 	stw	zero,-1524(fp)
					count = atoi(buffer);
  804348:	e13ec704 	addi	r4,fp,-1252
  80434c:	08063340 	call	806334 <atoi>
  804350:	e0be8215 	stw	r2,-1528(fp)
					counti = 0;
  804354:	e03e8015 	stw	zero,-1536(fp)
					inc_i=0;
  804358:	e03eb715 	stw	zero,-1316(fp)

					initStart = 1;
  80435c:	00800044 	movi	r2,1
  804360:	e0be7c15 	stw	r2,-1552(fp)
					initCounter = 0;
  804364:	e03e7b15 	stw	zero,-1556(fp)

					printf("Count Start %d----------------------\n",count);
  804368:	01002074 	movhi	r4,129
  80436c:	210ba604 	addi	r4,r4,11928
  804370:	e17e8217 	ldw	r5,-1528(fp)
  804374:	08063e00 	call	8063e0 <printf>
					for(clearCounter = 0; clearCounter <8; clearCounter++){
  804378:	e03eb515 	stw	zero,-1324(fp)
  80437c:	00000706 	br	80439c <main+0x4a4>
						buffer[clearCounter] = '\0';
  804380:	e0feb517 	ldw	r3,-1324(fp)
  804384:	e0bec704 	addi	r2,fp,-1252
  804388:	10c5883a 	add	r2,r2,r3
  80438c:	10000005 	stb	zero,0(r2)

					initStart = 1;
					initCounter = 0;

					printf("Count Start %d----------------------\n",count);
					for(clearCounter = 0; clearCounter <8; clearCounter++){
  804390:	e0beb517 	ldw	r2,-1324(fp)
  804394:	10800044 	addi	r2,r2,1
  804398:	e0beb515 	stw	r2,-1324(fp)
  80439c:	e0beb517 	ldw	r2,-1324(fp)
  8043a0:	10800210 	cmplti	r2,r2,8
  8043a4:	103ff61e 	bne	r2,zero,804380 <main+0x488>
						buffer[clearCounter] = '\0';
					}
					continue;
  8043a8:	003f6806 	br	80414c <main+0x254>
				}

				if(streamStart && !countStart && initStart && data_R8 == '\n'){
  8043ac:	e0beb917 	ldw	r2,-1308(fp)
  8043b0:	1005003a 	cmpeq	r2,r2,zero
  8043b4:	1000381e 	bne	r2,zero,804498 <main+0x5a0>
  8043b8:	e0be8117 	ldw	r2,-1532(fp)
  8043bc:	1004c03a 	cmpne	r2,r2,zero
  8043c0:	1000351e 	bne	r2,zero,804498 <main+0x5a0>
  8043c4:	e0be7c17 	ldw	r2,-1552(fp)
  8043c8:	1005003a 	cmpeq	r2,r2,zero
  8043cc:	1000321e 	bne	r2,zero,804498 <main+0x5a0>
  8043d0:	e0bec503 	ldbu	r2,-1260(fp)
  8043d4:	10803fcc 	andi	r2,r2,255
  8043d8:	10800298 	cmpnei	r2,r2,10
  8043dc:	10002e1e 	bne	r2,zero,804498 <main+0x5a0>
					switch (initCounter){
  8043e0:	e0be7b17 	ldw	r2,-1556(fp)
  8043e4:	e0bffd15 	stw	r2,-12(fp)
  8043e8:	e0fffd17 	ldw	r3,-12(fp)
  8043ec:	18800060 	cmpeqi	r2,r3,1
  8043f0:	10000e1e 	bne	r2,zero,80442c <main+0x534>
  8043f4:	e13ffd17 	ldw	r4,-12(fp)
  8043f8:	208000a0 	cmpeqi	r2,r4,2
  8043fc:	1000121e 	bne	r2,zero,804448 <main+0x550>
  804400:	e0fffd17 	ldw	r3,-12(fp)
  804404:	1805003a 	cmpeq	r2,r3,zero
  804408:	1000011e 	bne	r2,zero,804410 <main+0x518>
  80440c:	00001406 	br	804460 <main+0x568>
						case 0:
							initax = atoi(buffer);
  804410:	e13ec704 	addi	r4,fp,-1252
  804414:	08063340 	call	806334 <atoi>
  804418:	e0be7f15 	stw	r2,-1540(fp)
							initCounter++;
  80441c:	e0be7b17 	ldw	r2,-1556(fp)
  804420:	10800044 	addi	r2,r2,1
  804424:	e0be7b15 	stw	r2,-1556(fp)
							break;
  804428:	00000d06 	br	804460 <main+0x568>
						case 1:
							initay = atoi(buffer);
  80442c:	e13ec704 	addi	r4,fp,-1252
  804430:	08063340 	call	806334 <atoi>
  804434:	e0be7e15 	stw	r2,-1544(fp)
							initCounter++;
  804438:	e0be7b17 	ldw	r2,-1556(fp)
  80443c:	10800044 	addi	r2,r2,1
  804440:	e0be7b15 	stw	r2,-1556(fp)
							break;
  804444:	00000606 	br	804460 <main+0x568>
						case 2:
							initaz = atoi(buffer);
  804448:	e13ec704 	addi	r4,fp,-1252
  80444c:	08063340 	call	806334 <atoi>
  804450:	e0be7d15 	stw	r2,-1548(fp)
							initCounter = 0;
  804454:	e03e7b15 	stw	zero,-1556(fp)
							initStart = 0;
  804458:	e03e7c15 	stw	zero,-1552(fp)
							counti = 0;
  80445c:	e03e8015 	stw	zero,-1536(fp)
							break;
					}

					inc_i=0;
  804460:	e03eb715 	stw	zero,-1316(fp)
					for(clearCounter = 0; clearCounter <8; clearCounter++){
  804464:	e03eb515 	stw	zero,-1324(fp)
  804468:	00000706 	br	804488 <main+0x590>
						buffer[clearCounter] = '\0';
  80446c:	e0feb517 	ldw	r3,-1324(fp)
  804470:	e0bec704 	addi	r2,fp,-1252
  804474:	10c5883a 	add	r2,r2,r3
  804478:	10000005 	stb	zero,0(r2)
							counti = 0;
							break;
					}

					inc_i=0;
					for(clearCounter = 0; clearCounter <8; clearCounter++){
  80447c:	e0beb517 	ldw	r2,-1324(fp)
  804480:	10800044 	addi	r2,r2,1
  804484:	e0beb515 	stw	r2,-1324(fp)
  804488:	e0beb517 	ldw	r2,-1324(fp)
  80448c:	10800210 	cmplti	r2,r2,8
  804490:	103ff61e 	bne	r2,zero,80446c <main+0x574>
						buffer[clearCounter] = '\0';
					}
					continue;
  804494:	003f2d06 	br	80414c <main+0x254>

				}


				if(streamStart && !countStart && !initStart && data_R8 == '\n'){
  804498:	e0beb917 	ldw	r2,-1308(fp)
  80449c:	1005003a 	cmpeq	r2,r2,zero
  8044a0:	10008d1e 	bne	r2,zero,8046d8 <main+0x7e0>
  8044a4:	e0be8117 	ldw	r2,-1532(fp)
  8044a8:	1004c03a 	cmpne	r2,r2,zero
  8044ac:	10008a1e 	bne	r2,zero,8046d8 <main+0x7e0>
  8044b0:	e0be7c17 	ldw	r2,-1552(fp)
  8044b4:	1004c03a 	cmpne	r2,r2,zero
  8044b8:	1000871e 	bne	r2,zero,8046d8 <main+0x7e0>
  8044bc:	e0bec503 	ldbu	r2,-1260(fp)
  8044c0:	10803fcc 	andi	r2,r2,255
  8044c4:	10800298 	cmpnei	r2,r2,10
  8044c8:	1000831e 	bne	r2,zero,8046d8 <main+0x7e0>
					//printf("counti %d\n", counti);
					switch (cycleCount){
  8044cc:	e13e8317 	ldw	r4,-1524(fp)
  8044d0:	e13ffe15 	stw	r4,-8(fp)
  8044d4:	e0fffe17 	ldw	r3,-8(fp)
  8044d8:	1805003a 	cmpeq	r2,r3,zero
  8044dc:	1000041e 	bne	r2,zero,8044f0 <main+0x5f8>
  8044e0:	e13ffe17 	ldw	r4,-8(fp)
  8044e4:	20800060 	cmpeqi	r2,r4,1
  8044e8:	1000371e 	bne	r2,zero,8045c8 <main+0x6d0>
  8044ec:	00006c06 	br	8046a0 <main+0x7a8>

						case 0:
							ay[counti] = atoi(buffer);
  8044f0:	e43e8017 	ldw	r16,-1536(fp)
  8044f4:	e13ec704 	addi	r4,fp,-1252
  8044f8:	08063340 	call	806334 <atoi>
  8044fc:	1007883a 	mov	r3,r2
  804500:	8405883a 	add	r2,r16,r16
  804504:	1085883a 	add	r2,r2,r2
  804508:	e13e7704 	addi	r4,fp,-1572
  80450c:	1105883a 	add	r2,r2,r4
  804510:	1080bc04 	addi	r2,r2,752
  804514:	10c00015 	stw	r3,0(r2)
							//printf("ay: %d\n",ay[counti]);

							vNewy = vOldy + (ay[counti] );
  804518:	e0be8017 	ldw	r2,-1536(fp)
  80451c:	1085883a 	add	r2,r2,r2
  804520:	1085883a 	add	r2,r2,r2
  804524:	e0fe7704 	addi	r3,fp,-1572
  804528:	10c5883a 	add	r2,r2,r3
  80452c:	1080bc04 	addi	r2,r2,752
  804530:	11000017 	ldw	r4,0(r2)
  804534:	0805b400 	call	805b40 <__floatsidf>
  804538:	100b883a 	mov	r5,r2
  80453c:	180d883a 	mov	r6,r3
  804540:	2809883a 	mov	r4,r5
  804544:	300b883a 	mov	r5,r6
  804548:	e1be8d17 	ldw	r6,-1484(fp)
  80454c:	e1fe8e17 	ldw	r7,-1480(fp)
  804550:	0805acc0 	call	805acc <__adddf3>
  804554:	1009883a 	mov	r4,r2
  804558:	180b883a 	mov	r5,r3
  80455c:	e13e8b15 	stw	r4,-1492(fp)
  804560:	e17e8c15 	stw	r5,-1488(fp)
							VAveragey += vNewy;
  804564:	e13e8517 	ldw	r4,-1516(fp)
  804568:	0805b400 	call	805b40 <__floatsidf>
  80456c:	100b883a 	mov	r5,r2
  804570:	180d883a 	mov	r6,r3
  804574:	2809883a 	mov	r4,r5
  804578:	300b883a 	mov	r5,r6
  80457c:	e1be8b17 	ldw	r6,-1492(fp)
  804580:	e1fe8c17 	ldw	r7,-1488(fp)
  804584:	0805acc0 	call	805acc <__adddf3>
  804588:	1009883a 	mov	r4,r2
  80458c:	180b883a 	mov	r5,r3
  804590:	2005883a 	mov	r2,r4
  804594:	2807883a 	mov	r3,r5
  804598:	1009883a 	mov	r4,r2
  80459c:	180b883a 	mov	r5,r3
  8045a0:	0805c380 	call	805c38 <__fixdfsi>
  8045a4:	e0be8515 	stw	r2,-1516(fp)
							vOldy = vNewy;
  8045a8:	e0be8b17 	ldw	r2,-1492(fp)
  8045ac:	e0be8d15 	stw	r2,-1484(fp)
  8045b0:	e0be8c17 	ldw	r2,-1488(fp)
  8045b4:	e0be8e15 	stw	r2,-1480(fp)
							cycleCount++;
  8045b8:	e0be8317 	ldw	r2,-1524(fp)
  8045bc:	10800044 	addi	r2,r2,1
  8045c0:	e0be8315 	stw	r2,-1524(fp)
							break;
  8045c4:	00003606 	br	8046a0 <main+0x7a8>
						case 1:
							az[counti] = atoi(buffer);
  8045c8:	e43e8017 	ldw	r16,-1536(fp)
  8045cc:	e13ec704 	addi	r4,fp,-1252
  8045d0:	08063340 	call	806334 <atoi>
  8045d4:	1007883a 	mov	r3,r2
  8045d8:	8405883a 	add	r2,r16,r16
  8045dc:	1085883a 	add	r2,r2,r2
  8045e0:	e13e7704 	addi	r4,fp,-1572
  8045e4:	1105883a 	add	r2,r2,r4
  8045e8:	10812004 	addi	r2,r2,1152
  8045ec:	10c00015 	stw	r3,0(r2)
							//printf("counti %d\n", counti);
							//printf("az: %d\n",az[counti]);

							vNewz = vOldz + (az[counti] );
  8045f0:	e0be8017 	ldw	r2,-1536(fp)
  8045f4:	1085883a 	add	r2,r2,r2
  8045f8:	1085883a 	add	r2,r2,r2
  8045fc:	e0fe7704 	addi	r3,fp,-1572
  804600:	10c5883a 	add	r2,r2,r3
  804604:	10812004 	addi	r2,r2,1152
  804608:	11000017 	ldw	r4,0(r2)
  80460c:	0805b400 	call	805b40 <__floatsidf>
  804610:	100b883a 	mov	r5,r2
  804614:	180d883a 	mov	r6,r3
  804618:	2809883a 	mov	r4,r5
  80461c:	300b883a 	mov	r5,r6
  804620:	e1be8917 	ldw	r6,-1500(fp)
  804624:	e1fe8a17 	ldw	r7,-1496(fp)
  804628:	0805acc0 	call	805acc <__adddf3>
  80462c:	1009883a 	mov	r4,r2
  804630:	180b883a 	mov	r5,r3
  804634:	e13e8715 	stw	r4,-1508(fp)
  804638:	e17e8815 	stw	r5,-1504(fp)
							VAveragez += vNewz;
  80463c:	e13e8417 	ldw	r4,-1520(fp)
  804640:	0805b400 	call	805b40 <__floatsidf>
  804644:	100b883a 	mov	r5,r2
  804648:	180d883a 	mov	r6,r3
  80464c:	2809883a 	mov	r4,r5
  804650:	300b883a 	mov	r5,r6
  804654:	e1be8717 	ldw	r6,-1508(fp)
  804658:	e1fe8817 	ldw	r7,-1504(fp)
  80465c:	0805acc0 	call	805acc <__adddf3>
  804660:	1009883a 	mov	r4,r2
  804664:	180b883a 	mov	r5,r3
  804668:	2005883a 	mov	r2,r4
  80466c:	2807883a 	mov	r3,r5
  804670:	1009883a 	mov	r4,r2
  804674:	180b883a 	mov	r5,r3
  804678:	0805c380 	call	805c38 <__fixdfsi>
  80467c:	e0be8415 	stw	r2,-1520(fp)
							vOldz = vNewz;
  804680:	e0be8717 	ldw	r2,-1508(fp)
  804684:	e0be8915 	stw	r2,-1500(fp)
  804688:	e0be8817 	ldw	r2,-1504(fp)
  80468c:	e0be8a15 	stw	r2,-1496(fp)
							counti++;
  804690:	e0be8017 	ldw	r2,-1536(fp)
  804694:	10800044 	addi	r2,r2,1
  804698:	e0be8015 	stw	r2,-1536(fp)
							//printf("counti %d\n", counti);
							cycleCount = 0;
  80469c:	e03e8315 	stw	zero,-1524(fp)
							break;
					}

					inc_i = 0;
  8046a0:	e03eb715 	stw	zero,-1316(fp)
					for(clearCounter = 0; clearCounter <8; clearCounter++){
  8046a4:	e03eb515 	stw	zero,-1324(fp)
  8046a8:	00000706 	br	8046c8 <main+0x7d0>
						buffer[clearCounter] = '\0';
  8046ac:	e0feb517 	ldw	r3,-1324(fp)
  8046b0:	e0bec704 	addi	r2,fp,-1252
  8046b4:	10c5883a 	add	r2,r2,r3
  8046b8:	10000005 	stb	zero,0(r2)
							cycleCount = 0;
							break;
					}

					inc_i = 0;
					for(clearCounter = 0; clearCounter <8; clearCounter++){
  8046bc:	e0beb517 	ldw	r2,-1324(fp)
  8046c0:	10800044 	addi	r2,r2,1
  8046c4:	e0beb515 	stw	r2,-1324(fp)
  8046c8:	e0beb517 	ldw	r2,-1324(fp)
  8046cc:	10800210 	cmplti	r2,r2,8
  8046d0:	103ff61e 	bne	r2,zero,8046ac <main+0x7b4>
						buffer[clearCounter] = '\0';
					}
					//printf("%measurement %d: %d\n", measurementNumber, measurements[measurementNumber]);
					continue;
  8046d4:	003e9d06 	br	80414c <main+0x254>
				}

				if(streamStart && !countStart && data_R8 == 'E'){
  8046d8:	e0beb917 	ldw	r2,-1308(fp)
  8046dc:	1005003a 	cmpeq	r2,r2,zero
  8046e0:	1000bb1e 	bne	r2,zero,8049d0 <main+0xad8>
  8046e4:	e0be8117 	ldw	r2,-1532(fp)
  8046e8:	1004c03a 	cmpne	r2,r2,zero
  8046ec:	1000b81e 	bne	r2,zero,8049d0 <main+0xad8>
  8046f0:	e0bec503 	ldbu	r2,-1260(fp)
  8046f4:	10803fcc 	andi	r2,r2,255
  8046f8:	10801158 	cmpnei	r2,r2,69
  8046fc:	1000b41e 	bne	r2,zero,8049d0 <main+0xad8>
									printf("ax: %d\n",ax[test]);
								}*/
								//printf("---------\n");
#endif

								printf("Initial x: %d\n", initax);
  804700:	01002074 	movhi	r4,129
  804704:	210bb004 	addi	r4,r4,11968
  804708:	e17e7f17 	ldw	r5,-1540(fp)
  80470c:	08063e00 	call	8063e0 <printf>
								printf("Initial y: %d\n", initay);
  804710:	01002074 	movhi	r4,129
  804714:	210bb404 	addi	r4,r4,11984
  804718:	e17e7e17 	ldw	r5,-1544(fp)
  80471c:	08063e00 	call	8063e0 <printf>
								printf("Initial z: %d\n", initaz);
  804720:	01002074 	movhi	r4,129
  804724:	210bb804 	addi	r4,r4,12000
  804728:	e17e7d17 	ldw	r5,-1548(fp)
  80472c:	08063e00 	call	8063e0 <printf>

								//VAveragex = VAveragex/count;
								VAveragey = VAveragey/count;
  804730:	e13e8517 	ldw	r4,-1516(fp)
  804734:	e17e8217 	ldw	r5,-1528(fp)
  804738:	0805d8c0 	call	805d8c <__divsi3>
  80473c:	e0be8515 	stw	r2,-1516(fp)
								VAveragez = VAveragez/count;
  804740:	e13e8417 	ldw	r4,-1520(fp)
  804744:	e17e8217 	ldw	r5,-1528(fp)
  804748:	0805d8c0 	call	805d8c <__divsi3>
  80474c:	e0be8415 	stw	r2,-1520(fp)
								//printf("Vx average: %d\n" ,VAveragex);
								printf("Vy average: %d\n" ,VAveragey);
  804750:	01002074 	movhi	r4,129
  804754:	210bbc04 	addi	r4,r4,12016
  804758:	e17e8517 	ldw	r5,-1516(fp)
  80475c:	08063e00 	call	8063e0 <printf>
								printf("Vz average: %d\n" ,VAveragez);
  804760:	01002074 	movhi	r4,129
  804764:	210bc004 	addi	r4,r4,12032
  804768:	e17e8417 	ldw	r5,-1520(fp)
  80476c:	08063e00 	call	8063e0 <printf>
								gloveOrientation = orientation(initax,initay,initaz);
  804770:	e13e7f17 	ldw	r4,-1540(fp)
  804774:	e17e7e17 	ldw	r5,-1544(fp)
  804778:	e1be7d17 	ldw	r6,-1548(fp)
  80477c:	080543c0 	call	80543c <orientation>
  804780:	e0be7a15 	stw	r2,-1560(fp)

								switch (gloveOrientation){
  804784:	e13e7a17 	ldw	r4,-1560(fp)
  804788:	e13fff15 	stw	r4,-4(fp)
  80478c:	e0ffff17 	ldw	r3,-4(fp)
  804790:	18800060 	cmpeqi	r2,r3,1
  804794:	1000171e 	bne	r2,zero,8047f4 <main+0x8fc>
  804798:	e13fff17 	ldw	r4,-4(fp)
  80479c:	20800088 	cmpgei	r2,r4,2
  8047a0:	1000041e 	bne	r2,zero,8047b4 <main+0x8bc>
  8047a4:	e0ffff17 	ldw	r3,-4(fp)
  8047a8:	1805003a 	cmpeq	r2,r3,zero
  8047ac:	1000081e 	bne	r2,zero,8047d0 <main+0x8d8>
  8047b0:	00002a06 	br	80485c <main+0x964>
  8047b4:	e13fff17 	ldw	r4,-4(fp)
  8047b8:	208000a0 	cmpeqi	r2,r4,2
  8047bc:	1000161e 	bne	r2,zero,804818 <main+0x920>
  8047c0:	e0ffff17 	ldw	r3,-4(fp)
  8047c4:	188000e0 	cmpeqi	r2,r3,3
  8047c8:	10001c1e 	bne	r2,zero,80483c <main+0x944>
  8047cc:	00002306 	br	80485c <main+0x964>
									case 0:
										printf("Palm down\n");
  8047d0:	01002074 	movhi	r4,129
  8047d4:	210bc404 	addi	r4,r4,12048
  8047d8:	080651c0 	call	80651c <puts>
										movementDirection = largest(0, VAveragey, VAveragez);
  8047dc:	0009883a 	mov	r4,zero
  8047e0:	e17e8517 	ldw	r5,-1516(fp)
  8047e4:	e1be8417 	ldw	r6,-1520(fp)
  8047e8:	0804e6c0 	call	804e6c <largest>
  8047ec:	e0be7915 	stw	r2,-1564(fp)
										break;
  8047f0:	00001a06 	br	80485c <main+0x964>

									case 1:
										printf("Palm left\n");
  8047f4:	01002074 	movhi	r4,129
  8047f8:	210bc704 	addi	r4,r4,12060
  8047fc:	080651c0 	call	80651c <puts>
										movementDirection = largestPalmLeft(0, VAveragey, VAveragez);
  804800:	0009883a 	mov	r4,zero
  804804:	e17e8517 	ldw	r5,-1516(fp)
  804808:	e1be8417 	ldw	r6,-1520(fp)
  80480c:	0804fe00 	call	804fe0 <largestPalmLeft>
  804810:	e0be7915 	stw	r2,-1564(fp)
										break;
  804814:	00001106 	br	80485c <main+0x964>

									case 2:
										printf("Palm right\n");
  804818:	01002074 	movhi	r4,129
  80481c:	210bca04 	addi	r4,r4,12072
  804820:	080651c0 	call	80651c <puts>
										movementDirection = largestPalmRight(0, VAveragey, VAveragez);
  804824:	0009883a 	mov	r4,zero
  804828:	e17e8517 	ldw	r5,-1516(fp)
  80482c:	e1be8417 	ldw	r6,-1520(fp)
  804830:	08051540 	call	805154 <largestPalmRight>
  804834:	e0be7915 	stw	r2,-1564(fp)
										break;
  804838:	00000806 	br	80485c <main+0x964>
									case 3:
										printf("Palm up\n");
  80483c:	01002074 	movhi	r4,129
  804840:	210bcd04 	addi	r4,r4,12084
  804844:	080651c0 	call	80651c <puts>
										movementDirection = largestPalmUp(0, VAveragey, VAveragez);
  804848:	0009883a 	mov	r4,zero
  80484c:	e17e8517 	ldw	r5,-1516(fp)
  804850:	e1be8417 	ldw	r6,-1520(fp)
  804854:	08052c80 	call	8052c8 <largestPalmUp>
  804858:	e0be7915 	stw	r2,-1564(fp)
										break;

								}

								if(noMovement(0, VAveragey, VAveragez)){
  80485c:	0009883a 	mov	r4,zero
  804860:	e17e8517 	ldw	r5,-1516(fp)
  804864:	e1be8417 	ldw	r6,-1520(fp)
  804868:	0804de80 	call	804de8 <noMovement>
  80486c:	1005003a 	cmpeq	r2,r2,zero
  804870:	1000021e 	bne	r2,zero,80487c <main+0x984>
									movementDirection = 6;
  804874:	00800184 	movi	r2,6
  804878:	e0be7915 	stw	r2,-1564(fp)
								}
								switch (movementDirection){
  80487c:	e0be7917 	ldw	r2,-1564(fp)
  804880:	108001e8 	cmpgeui	r2,r2,7
  804884:	1000331e 	bne	r2,zero,804954 <main+0xa5c>
  804888:	e0be7917 	ldw	r2,-1564(fp)
  80488c:	1085883a 	add	r2,r2,r2
  804890:	1087883a 	add	r3,r2,r2
  804894:	00802034 	movhi	r2,128
  804898:	10922a04 	addi	r2,r2,18600
  80489c:	1885883a 	add	r2,r3,r2
  8048a0:	10800017 	ldw	r2,0(r2)
  8048a4:	1000683a 	jmp	r2
  8048a8:	008048c4 	movi	r2,291
  8048ac:	008048d4 	movui	r2,291
  8048b0:	008048e4 	muli	r2,zero,291
  8048b4:	008048fc 	xorhi	r2,zero,291
  8048b8:	00804914 	movui	r2,292
  8048bc:	0080492c 	andhi	r2,zero,292
  8048c0:	00804944 	movi	r2,293
									case 0:
										printf("Forward\n");
  8048c4:	01002074 	movhi	r4,129
  8048c8:	210bcf04 	addi	r4,r4,12092
  8048cc:	080651c0 	call	80651c <puts>
										break;
  8048d0:	00002006 	br	804954 <main+0xa5c>
									case 1:
										printf("Backward\n");
  8048d4:	01002074 	movhi	r4,129
  8048d8:	210bd104 	addi	r4,r4,12100
  8048dc:	080651c0 	call	80651c <puts>
										break;
  8048e0:	00001c06 	br	804954 <main+0xa5c>
									case 2:
										gesture = GESTURE_LEFT;
  8048e4:	008000c4 	movi	r2,3
  8048e8:	e0bec005 	stb	r2,-1280(fp)
										printf("Left\n");
  8048ec:	01002074 	movhi	r4,129
  8048f0:	210bd404 	addi	r4,r4,12112
  8048f4:	080651c0 	call	80651c <puts>
										break;
  8048f8:	00001606 	br	804954 <main+0xa5c>
									case 3:
										gesture = GESTURE_RIGHT;
  8048fc:	00800104 	movi	r2,4
  804900:	e0bec005 	stb	r2,-1280(fp)
										printf("Right\n");
  804904:	01002074 	movhi	r4,129
  804908:	210bd604 	addi	r4,r4,12120
  80490c:	080651c0 	call	80651c <puts>
										break;
  804910:	00001006 	br	804954 <main+0xa5c>
									case 4:
										gesture = GESTURE_UP;
  804914:	00800044 	movi	r2,1
  804918:	e0bec005 	stb	r2,-1280(fp)
										printf("Up\n");
  80491c:	01002074 	movhi	r4,129
  804920:	210bd804 	addi	r4,r4,12128
  804924:	080651c0 	call	80651c <puts>
										break;
  804928:	00000a06 	br	804954 <main+0xa5c>
									case 5:
										gesture = GESTURE_DOWN;
  80492c:	00800084 	movi	r2,2
  804930:	e0bec005 	stb	r2,-1280(fp)
										printf("Down\n");
  804934:	01002074 	movhi	r4,129
  804938:	210bd904 	addi	r4,r4,12132
  80493c:	080651c0 	call	80651c <puts>
										break;
  804940:	00000406 	br	804954 <main+0xa5c>
									case 6:
										gesture = GESTURE_NULL;
  804944:	e03ec005 	stb	zero,-1280(fp)
										printf("No movement\n");
  804948:	01002074 	movhi	r4,129
  80494c:	210bdb04 	addi	r4,r4,12140
  804950:	080651c0 	call	80651c <puts>
										break;
								}

								if(counti == count){
  804954:	e0fe8017 	ldw	r3,-1536(fp)
  804958:	e0be8217 	ldw	r2,-1528(fp)
  80495c:	1880041e 	bne	r3,r2,804970 <main+0xa78>
									printf("Correct number of Measurements\n");
  804960:	01002074 	movhi	r4,129
  804964:	210bde04 	addi	r4,r4,12152
  804968:	080651c0 	call	80651c <puts>
  80496c:	00000306 	br	80497c <main+0xa84>
								}else{
									printf("Did not get correct count\n");
  804970:	01002074 	movhi	r4,129
  804974:	210be604 	addi	r4,r4,12184
  804978:	080651c0 	call	80651c <puts>
								}
								printf("End\n");
  80497c:	01002074 	movhi	r4,129
  804980:	210bed04 	addi	r4,r4,12212
  804984:	080651c0 	call	80651c <puts>

								streamStart = 0;
  804988:	e03eb915 	stw	zero,-1308(fp)
								cycleCount = 0;
  80498c:	e03e8315 	stw	zero,-1524(fp)
								counti = 0;
  804990:	e03e8015 	stw	zero,-1536(fp)
								inc_i = 0;
  804994:	e03eb715 	stw	zero,-1316(fp)
								VAveragex = 0;
  804998:	e03e8615 	stw	zero,-1512(fp)
								VAveragey = 0;
  80499c:	e03e8515 	stw	zero,-1516(fp)
								VAveragez = 0;
  8049a0:	e03e8415 	stw	zero,-1520(fp)

								count = 0;
  8049a4:	e03e8215 	stw	zero,-1528(fp)


								vOldx = 0;
  8049a8:	e03e9115 	stw	zero,-1468(fp)
  8049ac:	e03e9215 	stw	zero,-1464(fp)
								vOldy = 0;
  8049b0:	e03e8d15 	stw	zero,-1484(fp)
  8049b4:	e03e8e15 	stw	zero,-1480(fp)
								vOldz = 0;
  8049b8:	e03e8915 	stw	zero,-1500(fp)
  8049bc:	e03e8a15 	stw	zero,-1496(fp)
								printf("END----------------------------\n");
  8049c0:	01002074 	movhi	r4,129
  8049c4:	210bee04 	addi	r4,r4,12216
  8049c8:	080651c0 	call	80651c <puts>
								continue;
  8049cc:	003ddf06 	br	80414c <main+0x254>
							}

				if(streamStart){
  8049d0:	e0beb917 	ldw	r2,-1308(fp)
  8049d4:	1005003a 	cmpeq	r2,r2,zero
  8049d8:	10000a1e 	bne	r2,zero,804a04 <main+0xb0c>

					buffer[inc_i] = data_R8;
  8049dc:	e13eb717 	ldw	r4,-1316(fp)
  8049e0:	e0bec503 	ldbu	r2,-1260(fp)
  8049e4:	1007883a 	mov	r3,r2
  8049e8:	e0bec704 	addi	r2,fp,-1252
  8049ec:	1105883a 	add	r2,r2,r4
  8049f0:	10c00005 	stb	r3,0(r2)
					//printf("%d\n", counti);
					//alt_printf("%c", buffer[i]);
					//alt_printf("i:%d, buffer i: %c\n", i, buffer[i]);
					inc_i++;
  8049f4:	e0beb717 	ldw	r2,-1316(fp)
  8049f8:	10800044 	addi	r2,r2,1
  8049fc:	e0beb715 	stw	r2,-1316(fp)
					continue;
  804a00:	003dd206 	br	80414c <main+0x254>
				}
			}

		disable_irq();
  804a04:	08055a80 	call	8055a8 <disable_irq>
		mapGestureToKeycodes(&new_report, gesture);
  804a08:	e17ec003 	ldbu	r5,-1280(fp)
  804a0c:	d1278e04 	addi	r4,gp,-25032
  804a10:	0804ce80 	call	804ce8 <mapGestureToKeycodes>
		enable_irq();
  804a14:	08055f80 	call	8055f8 <enable_irq>

		/* See if we should send the next report */
		disable_irq();
  804a18:	08055a80 	call	8055a8 <disable_irq>
		readyToSend = reportChanged(old_report, new_report) && bufferAvailable;
  804a1c:	e17ec117 	ldw	r5,-1276(fp)
  804a20:	e1bec217 	ldw	r6,-1272(fp)
  804a24:	d0e78e03 	ldbu	r3,-25032(gp)
  804a28:	00802074 	movhi	r2,129
  804a2c:	109c5d44 	addi	r2,r2,29045
  804a30:	10800003 	ldbu	r2,0(r2)
  804a34:	1004923a 	slli	r2,r2,8
  804a38:	10c6b03a 	or	r3,r2,r3
  804a3c:	00802074 	movhi	r2,129
  804a40:	109c5d84 	addi	r2,r2,29046
  804a44:	10800003 	ldbu	r2,0(r2)
  804a48:	1004943a 	slli	r2,r2,16
  804a4c:	10c6b03a 	or	r3,r2,r3
  804a50:	00802074 	movhi	r2,129
  804a54:	109c5dc4 	addi	r2,r2,29047
  804a58:	10800003 	ldbu	r2,0(r2)
  804a5c:	1004963a 	slli	r2,r2,24
  804a60:	10c4b03a 	or	r2,r2,r3
  804a64:	1011883a 	mov	r8,r2
  804a68:	00c02074 	movhi	r3,129
  804a6c:	18dc5e04 	addi	r3,r3,29048
  804a70:	19000003 	ldbu	r4,0(r3)
  804a74:	18800043 	ldbu	r2,1(r3)
  804a78:	1004923a 	slli	r2,r2,8
  804a7c:	1108b03a 	or	r4,r2,r4
  804a80:	18800083 	ldbu	r2,2(r3)
  804a84:	1004943a 	slli	r2,r2,16
  804a88:	1108b03a 	or	r4,r2,r4
  804a8c:	188000c3 	ldbu	r2,3(r3)
  804a90:	1004963a 	slli	r2,r2,24
  804a94:	1104b03a 	or	r2,r2,r4
  804a98:	100f883a 	mov	r7,r2
  804a9c:	2809883a 	mov	r4,r5
  804aa0:	300b883a 	mov	r5,r6
  804aa4:	400d883a 	mov	r6,r8
  804aa8:	0804c200 	call	804c20 <reportChanged>
  804aac:	10803fcc 	andi	r2,r2,255
  804ab0:	1005003a 	cmpeq	r2,r2,zero
  804ab4:	1000061e 	bne	r2,zero,804ad0 <main+0xbd8>
  804ab8:	e0bec0c3 	ldbu	r2,-1277(fp)
  804abc:	1005003a 	cmpeq	r2,r2,zero
  804ac0:	1000031e 	bne	r2,zero,804ad0 <main+0xbd8>
  804ac4:	01000044 	movi	r4,1
  804ac8:	e13ffb15 	stw	r4,-20(fp)
  804acc:	00000106 	br	804ad4 <main+0xbdc>
  804ad0:	e03ffb15 	stw	zero,-20(fp)
  804ad4:	e0bffb17 	ldw	r2,-20(fp)
  804ad8:	e0bec085 	stb	r2,-1278(fp)
		if(readyToSend || watchdog_required) {
  804adc:	e0bec083 	ldbu	r2,-1278(fp)
  804ae0:	1004c03a 	cmpne	r2,r2,zero
  804ae4:	1000031e 	bne	r2,zero,804af4 <main+0xbfc>
  804ae8:	e0bec043 	ldbu	r2,-1279(fp)
  804aec:	1005003a 	cmpeq	r2,r2,zero
  804af0:	1000271e 	bne	r2,zero,804b90 <main+0xc98>
			send_buffer[0] =  new_report.modifier;
  804af4:	d0a78e03 	ldbu	r2,-25032(gp)
  804af8:	e0bec305 	stb	r2,-1268(fp)
			send_buffer[1] =  new_report.reserved;
  804afc:	00802074 	movhi	r2,129
  804b00:	109c5d44 	addi	r2,r2,29045
  804b04:	10800003 	ldbu	r2,0(r2)
  804b08:	e0bec345 	stb	r2,-1267(fp)
			send_buffer[2] =  new_report.keycode[0];
  804b0c:	00802074 	movhi	r2,129
  804b10:	109c5d84 	addi	r2,r2,29046
  804b14:	10800003 	ldbu	r2,0(r2)
  804b18:	e0bec385 	stb	r2,-1266(fp)
			send_buffer[3] =  new_report.keycode[1];
  804b1c:	00802074 	movhi	r2,129
  804b20:	109c5dc4 	addi	r2,r2,29047
  804b24:	10800003 	ldbu	r2,0(r2)
  804b28:	e0bec3c5 	stb	r2,-1265(fp)
			send_buffer[4] =  new_report.keycode[2];
  804b2c:	00802074 	movhi	r2,129
  804b30:	109c5e04 	addi	r2,r2,29048
  804b34:	10800003 	ldbu	r2,0(r2)
  804b38:	e0bec405 	stb	r2,-1264(fp)
			send_buffer[5] =  new_report.keycode[3];
  804b3c:	00802074 	movhi	r2,129
  804b40:	109c5e44 	addi	r2,r2,29049
  804b44:	10800003 	ldbu	r2,0(r2)
  804b48:	e0bec445 	stb	r2,-1263(fp)
			send_buffer[6] =  new_report.keycode[4];
  804b4c:	00802074 	movhi	r2,129
  804b50:	109c5e84 	addi	r2,r2,29050
  804b54:	10800003 	ldbu	r2,0(r2)
  804b58:	e0bec485 	stb	r2,-1262(fp)
			send_buffer[7] =  new_report.keycode[5];
  804b5c:	00802074 	movhi	r2,129
  804b60:	109c5ec4 	addi	r2,r2,29051
  804b64:	10800003 	ldbu	r2,0(r2)
  804b68:	e0bec4c5 	stb	r2,-1261(fp)

			Hal4D13_LockDevice(0);
  804b6c:	0009883a 	mov	r4,zero
  804b70:	08027c80 	call	8027c8 <Hal4D13_LockDevice>
			Hal4D13_WriteEndpoint(EPINDEX4EP01, send_buffer, 8);
  804b74:	e17ec304 	addi	r5,fp,-1268
  804b78:	01000084 	movi	r4,2
  804b7c:	01800204 	movi	r6,8
  804b80:	08021a40 	call	8021a4 <Hal4D13_WriteEndpoint>
			bufferAvailable = FALSE;
  804b84:	e03ec0c5 	stb	zero,-1277(fp)
			readyToSend = FALSE;
  804b88:	e03ec085 	stb	zero,-1278(fp)
			watchdog_required = FALSE;
  804b8c:	e03ec045 	stb	zero,-1279(fp)
		}
		enable_irq();
  804b90:	08055f80 	call	8055f8 <enable_irq>

		/* Update old report */
		old_report.keycode[0] = new_report.keycode[0]; //We only use one key slot so only need to to update one
  804b94:	00802074 	movhi	r2,129
  804b98:	109c5d84 	addi	r2,r2,29046
  804b9c:	10800003 	ldbu	r2,0(r2)
  804ba0:	e0bec185 	stb	r2,-1274(fp)
		old_report.modifier = new_report.modifier;
  804ba4:	d0a78e03 	ldbu	r2,-25032(gp)
  804ba8:	e0bec105 	stb	r2,-1276(fp)

		if(new_report.keycode[0] != 0)
  804bac:	00802074 	movhi	r2,129
  804bb0:	109c5d84 	addi	r2,r2,29046
  804bb4:	10800003 	ldbu	r2,0(r2)
  804bb8:	10803fcc 	andi	r2,r2,255
  804bbc:	1005003a 	cmpeq	r2,r2,zero
  804bc0:	1000071e 	bne	r2,zero,804be0 <main+0xce8>
			IOWR(GREEN_LEDS_BASE, 0, new_report.keycode[0]);
  804bc4:	00802074 	movhi	r2,129
  804bc8:	109c5d84 	addi	r2,r2,29046
  804bcc:	10800003 	ldbu	r2,0(r2)
  804bd0:	10c03fcc 	andi	r3,r2,255
  804bd4:	00804474 	movhi	r2,273
  804bd8:	10a41404 	addi	r2,r2,-28592
  804bdc:	10c00035 	stwio	r3,0(r2)
		} //If Connected

		if(hid_settings.state == reset){
  804be0:	00802074 	movhi	r2,129
  804be4:	109c6304 	addi	r2,r2,29068
  804be8:	10800017 	ldw	r2,0(r2)
  804bec:	1004c03a 	cmpne	r2,r2,zero
  804bf0:	103d561e 	bne	r2,zero,80414c <main+0x254>
			gesture = 0x00;
  804bf4:	e03ec005 	stb	zero,-1280(fp)
			bufferAvailable = TRUE;
  804bf8:	00800044 	movi	r2,1
  804bfc:	e0bec0c5 	stb	r2,-1277(fp)
		}

  	} //While
  804c00:	003d5206 	br	80414c <main+0x254>

  return 0;
}//Main
  804c04:	e0bffc17 	ldw	r2,-16(fp)
  804c08:	e037883a 	mov	sp,fp
  804c0c:	dfc00217 	ldw	ra,8(sp)
  804c10:	df000117 	ldw	fp,4(sp)
  804c14:	dc000017 	ldw	r16,0(sp)
  804c18:	dec00304 	addi	sp,sp,12
  804c1c:	f800283a 	ret

00804c20 <reportChanged>:

/* Check to see if data in report has changed */
BOOL reportChanged(HID_KEYS_REPORT old, HID_KEYS_REPORT new) {
  804c20:	defff904 	addi	sp,sp,-28
  804c24:	df000615 	stw	fp,24(sp)
  804c28:	df000604 	addi	fp,sp,24
  804c2c:	e13ffc15 	stw	r4,-16(fp)
  804c30:	e17ffd15 	stw	r5,-12(fp)
  804c34:	e1bffe15 	stw	r6,-8(fp)
  804c38:	e1ffff15 	stw	r7,-4(fp)
	BOOL rv = FALSE;
  804c3c:	e03ffb05 	stb	zero,-20(fp)
	int i;

	if(old.modifier != new.modifier) {
  804c40:	e0bffc03 	ldbu	r2,-16(fp)
  804c44:	e0fffe03 	ldbu	r3,-8(fp)
  804c48:	11003fcc 	andi	r4,r2,255
  804c4c:	18803fcc 	andi	r2,r3,255
  804c50:	20800226 	beq	r4,r2,804c5c <reportChanged+0x3c>
		rv = TRUE;
  804c54:	00800044 	movi	r2,1
  804c58:	e0bffb05 	stb	r2,-20(fp)
	}
	for(i=0; i<6; i++){
  804c5c:	e03ffa15 	stw	zero,-24(fp)
  804c60:	00001006 	br	804ca4 <reportChanged+0x84>
		if(old.keycode[i] != new.keycode[i]){
  804c64:	e0fffa17 	ldw	r3,-24(fp)
  804c68:	e0bffc04 	addi	r2,fp,-16
  804c6c:	10c5883a 	add	r2,r2,r3
  804c70:	11000083 	ldbu	r4,2(r2)
  804c74:	e0fffa17 	ldw	r3,-24(fp)
  804c78:	e0bffe04 	addi	r2,fp,-8
  804c7c:	10c5883a 	add	r2,r2,r3
  804c80:	10800083 	ldbu	r2,2(r2)
  804c84:	20c03fcc 	andi	r3,r4,255
  804c88:	10803fcc 	andi	r2,r2,255
  804c8c:	18800226 	beq	r3,r2,804c98 <reportChanged+0x78>
			rv = TRUE;
  804c90:	00800044 	movi	r2,1
  804c94:	e0bffb05 	stb	r2,-20(fp)
	int i;

	if(old.modifier != new.modifier) {
		rv = TRUE;
	}
	for(i=0; i<6; i++){
  804c98:	e0bffa17 	ldw	r2,-24(fp)
  804c9c:	10800044 	addi	r2,r2,1
  804ca0:	e0bffa15 	stw	r2,-24(fp)
  804ca4:	e0bffa17 	ldw	r2,-24(fp)
  804ca8:	10800190 	cmplti	r2,r2,6
  804cac:	103fed1e 	bne	r2,zero,804c64 <reportChanged+0x44>
		if(old.keycode[i] != new.keycode[i]){
			rv = TRUE;
		}
	}
	return rv;
  804cb0:	e0bffb03 	ldbu	r2,-20(fp)
}
  804cb4:	e037883a 	mov	sp,fp
  804cb8:	df000017 	ldw	fp,0(sp)
  804cbc:	dec00104 	addi	sp,sp,4
  804cc0:	f800283a 	ret

00804cc4 <readGesture>:

UCHAR readGesture() {
  804cc4:	defffe04 	addi	sp,sp,-8
  804cc8:	df000115 	stw	fp,4(sp)
  804ccc:	df000104 	addi	fp,sp,4
	UCHAR gest_code = 0x00;
  804cd0:	e03fff05 	stb	zero,-4(fp)
	//Place gesture recognition code here. TODO.
	return gest_code;
  804cd4:	e0bfff03 	ldbu	r2,-4(fp)
}
  804cd8:	e037883a 	mov	sp,fp
  804cdc:	df000017 	ldw	fp,0(sp)
  804ce0:	dec00104 	addi	sp,sp,4
  804ce4:	f800283a 	ret

00804ce8 <mapGestureToKeycodes>:

void mapGestureToKeycodes(HID_KEYS_REPORT * new, UCHAR gesture_code) {
  804ce8:	defffc04 	addi	sp,sp,-16
  804cec:	df000315 	stw	fp,12(sp)
  804cf0:	df000304 	addi	fp,sp,12
  804cf4:	e13ffd15 	stw	r4,-12(fp)
  804cf8:	e17ffe05 	stb	r5,-8(fp)
	switch(gesture_code) {
  804cfc:	e0bffe03 	ldbu	r2,-8(fp)
  804d00:	e0bfff15 	stw	r2,-4(fp)
  804d04:	e0ffff17 	ldw	r3,-4(fp)
  804d08:	18800168 	cmpgeui	r2,r3,5
  804d0c:	10002d1e 	bne	r2,zero,804dc4 <mapGestureToKeycodes+0xdc>
  804d10:	e13fff17 	ldw	r4,-4(fp)
  804d14:	e13fff17 	ldw	r4,-4(fp)
  804d18:	2105883a 	add	r2,r4,r4
  804d1c:	1087883a 	add	r3,r2,r2
  804d20:	00802034 	movhi	r2,128
  804d24:	10934d04 	addi	r2,r2,19764
  804d28:	1885883a 	add	r2,r3,r2
  804d2c:	10800017 	ldw	r2,0(r2)
  804d30:	1000683a 	jmp	r2
  804d34:	00804d48 	cmpgei	r2,zero,309
  804d38:	00804d5c 	xori	r2,zero,309
  804d3c:	00804d74 	movhi	r2,309
  804d40:	00804d8c 	andi	r2,zero,310
  804d44:	00804da8 	cmpgeui	r2,zero,310
		case(GESTURE_NULL) :
			new->modifier = 0x00;
  804d48:	e0bffd17 	ldw	r2,-12(fp)
  804d4c:	10000005 	stb	zero,0(r2)
			new->keycode[0] = 0x00;	//Pg-Up
  804d50:	e0bffd17 	ldw	r2,-12(fp)
  804d54:	10000085 	stb	zero,2(r2)
			break;
  804d58:	00001f06 	br	804dd8 <mapGestureToKeycodes+0xf0>
		case(GESTURE_UP) :
			new->modifier = 0x00;
  804d5c:	e0bffd17 	ldw	r2,-12(fp)
  804d60:	10000005 	stb	zero,0(r2)
			new->keycode[0] = 0x61;	//Pg-Up
  804d64:	e0fffd17 	ldw	r3,-12(fp)
  804d68:	00801844 	movi	r2,97
  804d6c:	18800085 	stb	r2,2(r3)
			break;
  804d70:	00001906 	br	804dd8 <mapGestureToKeycodes+0xf0>
		case(GESTURE_DOWN) :
			new->modifier = 0x00;
  804d74:	e0bffd17 	ldw	r2,-12(fp)
  804d78:	10000005 	stb	zero,0(r2)
			new->keycode[0] = 0x5B;	//Pg-Dn
  804d7c:	e0fffd17 	ldw	r3,-12(fp)
  804d80:	008016c4 	movi	r2,91
  804d84:	18800085 	stb	r2,2(r3)
			break;
  804d88:	00001306 	br	804dd8 <mapGestureToKeycodes+0xf0>
		case(GESTURE_LEFT) :
			new->modifier = 0x06;	//Left Alt
  804d8c:	e0fffd17 	ldw	r3,-12(fp)
  804d90:	00800184 	movi	r2,6
  804d94:	18800005 	stb	r2,0(r3)
			new->keycode[0] = 0x2B;	//Tab
  804d98:	e0fffd17 	ldw	r3,-12(fp)
  804d9c:	00800ac4 	movi	r2,43
  804da0:	18800085 	stb	r2,2(r3)
			break;
  804da4:	00000c06 	br	804dd8 <mapGestureToKeycodes+0xf0>
		case(GESTURE_RIGHT) :
			new->modifier = 0x04;	//Left Alt
  804da8:	e0fffd17 	ldw	r3,-12(fp)
  804dac:	00800104 	movi	r2,4
  804db0:	18800005 	stb	r2,0(r3)
			new->keycode[0] = 0x2B;	//Tab
  804db4:	e0fffd17 	ldw	r3,-12(fp)
  804db8:	00800ac4 	movi	r2,43
  804dbc:	18800085 	stb	r2,2(r3)
			break;
  804dc0:	00000506 	br	804dd8 <mapGestureToKeycodes+0xf0>
		default :
			new->modifier = 0x04;
  804dc4:	e0bffd17 	ldw	r2,-12(fp)
  804dc8:	00c00104 	movi	r3,4
  804dcc:	10c00005 	stb	r3,0(r2)
			new->keycode[0] = 0x00;
  804dd0:	e0bffd17 	ldw	r2,-12(fp)
  804dd4:	10000085 	stb	zero,2(r2)
			break;
	}
}
  804dd8:	e037883a 	mov	sp,fp
  804ddc:	df000017 	ldw	fp,0(sp)
  804de0:	dec00104 	addi	sp,sp,4
  804de4:	f800283a 	ret

00804de8 <noMovement>:

int noMovement(int x, int y, int z){
  804de8:	defffb04 	addi	sp,sp,-20
  804dec:	df000415 	stw	fp,16(sp)
  804df0:	df000404 	addi	fp,sp,16
  804df4:	e13ffc15 	stw	r4,-16(fp)
  804df8:	e17ffd15 	stw	r5,-12(fp)
  804dfc:	e1bffe15 	stw	r6,-8(fp)
	if((abs(x) < 1500) && (abs(y) < 1500) && (abs(z) < 1500) ){
  804e00:	e0bffc17 	ldw	r2,-16(fp)
  804e04:	10be8950 	cmplti	r2,r2,-1499
  804e08:	1000121e 	bne	r2,zero,804e54 <noMovement+0x6c>
  804e0c:	e0bffc17 	ldw	r2,-16(fp)
  804e10:	10817708 	cmpgei	r2,r2,1500
  804e14:	10000f1e 	bne	r2,zero,804e54 <noMovement+0x6c>
  804e18:	e0bffd17 	ldw	r2,-12(fp)
  804e1c:	10be8950 	cmplti	r2,r2,-1499
  804e20:	10000c1e 	bne	r2,zero,804e54 <noMovement+0x6c>
  804e24:	e0bffd17 	ldw	r2,-12(fp)
  804e28:	10817708 	cmpgei	r2,r2,1500
  804e2c:	1000091e 	bne	r2,zero,804e54 <noMovement+0x6c>
  804e30:	e0bffe17 	ldw	r2,-8(fp)
  804e34:	10be8950 	cmplti	r2,r2,-1499
  804e38:	1000061e 	bne	r2,zero,804e54 <noMovement+0x6c>
  804e3c:	e0bffe17 	ldw	r2,-8(fp)
  804e40:	10817708 	cmpgei	r2,r2,1500
  804e44:	1000031e 	bne	r2,zero,804e54 <noMovement+0x6c>
		return 1;
  804e48:	00800044 	movi	r2,1
  804e4c:	e0bfff15 	stw	r2,-4(fp)
  804e50:	00000106 	br	804e58 <noMovement+0x70>
	}
	return 0;
  804e54:	e03fff15 	stw	zero,-4(fp)
  804e58:	e0bfff17 	ldw	r2,-4(fp)
}
  804e5c:	e037883a 	mov	sp,fp
  804e60:	df000017 	ldw	fp,0(sp)
  804e64:	dec00104 	addi	sp,sp,4
  804e68:	f800283a 	ret

00804e6c <largest>:

int largest(int x,int y,int z){
  804e6c:	defff504 	addi	sp,sp,-44
  804e70:	df000a15 	stw	fp,40(sp)
  804e74:	df000a04 	addi	fp,sp,40
  804e78:	e13ff615 	stw	r4,-40(fp)
  804e7c:	e17ff715 	stw	r5,-36(fp)
  804e80:	e1bff815 	stw	r6,-32(fp)
	if(abs(x) >= abs(y) && abs(x) >= abs(z)){
  804e84:	e0bff617 	ldw	r2,-40(fp)
  804e88:	e0bfff15 	stw	r2,-4(fp)
  804e8c:	e0ffff17 	ldw	r3,-4(fp)
  804e90:	1804403a 	cmpge	r2,r3,zero
  804e94:	1000031e 	bne	r2,zero,804ea4 <largest+0x38>
  804e98:	e0bfff17 	ldw	r2,-4(fp)
  804e9c:	0085c83a 	sub	r2,zero,r2
  804ea0:	e0bfff15 	stw	r2,-4(fp)
  804ea4:	e0fff717 	ldw	r3,-36(fp)
  804ea8:	e0fffe15 	stw	r3,-8(fp)
  804eac:	e0fffe17 	ldw	r3,-8(fp)
  804eb0:	1804403a 	cmpge	r2,r3,zero
  804eb4:	1000031e 	bne	r2,zero,804ec4 <largest+0x58>
  804eb8:	e0bffe17 	ldw	r2,-8(fp)
  804ebc:	0085c83a 	sub	r2,zero,r2
  804ec0:	e0bffe15 	stw	r2,-8(fp)
  804ec4:	e0ffff17 	ldw	r3,-4(fp)
  804ec8:	e0bffe17 	ldw	r2,-8(fp)
  804ecc:	18801b16 	blt	r3,r2,804f3c <largest+0xd0>
  804ed0:	e0fff617 	ldw	r3,-40(fp)
  804ed4:	e0fffd15 	stw	r3,-12(fp)
  804ed8:	e0fffd17 	ldw	r3,-12(fp)
  804edc:	1804403a 	cmpge	r2,r3,zero
  804ee0:	1000031e 	bne	r2,zero,804ef0 <largest+0x84>
  804ee4:	e0bffd17 	ldw	r2,-12(fp)
  804ee8:	0085c83a 	sub	r2,zero,r2
  804eec:	e0bffd15 	stw	r2,-12(fp)
  804ef0:	e0fff817 	ldw	r3,-32(fp)
  804ef4:	e0fffc15 	stw	r3,-16(fp)
  804ef8:	e0fffc17 	ldw	r3,-16(fp)
  804efc:	1804403a 	cmpge	r2,r3,zero
  804f00:	1000031e 	bne	r2,zero,804f10 <largest+0xa4>
  804f04:	e0bffc17 	ldw	r2,-16(fp)
  804f08:	0085c83a 	sub	r2,zero,r2
  804f0c:	e0bffc15 	stw	r2,-16(fp)
  804f10:	e0fffd17 	ldw	r3,-12(fp)
  804f14:	e0bffc17 	ldw	r2,-16(fp)
  804f18:	18800816 	blt	r3,r2,804f3c <largest+0xd0>
		if(x>=0){
  804f1c:	e0bff617 	ldw	r2,-40(fp)
  804f20:	1004803a 	cmplt	r2,r2,zero
  804f24:	1000021e 	bne	r2,zero,804f30 <largest+0xc4>
			return 0;
  804f28:	e03ffb15 	stw	zero,-20(fp)
  804f2c:	00002706 	br	804fcc <largest+0x160>
		} else{
			return 1;
  804f30:	00c00044 	movi	r3,1
  804f34:	e0fffb15 	stw	r3,-20(fp)
  804f38:	00002406 	br	804fcc <largest+0x160>
		}
	}else if(abs(y) >= abs(z)){
  804f3c:	e0bff717 	ldw	r2,-36(fp)
  804f40:	e0bffa15 	stw	r2,-24(fp)
  804f44:	e0fffa17 	ldw	r3,-24(fp)
  804f48:	1804403a 	cmpge	r2,r3,zero
  804f4c:	1000031e 	bne	r2,zero,804f5c <largest+0xf0>
  804f50:	e0bffa17 	ldw	r2,-24(fp)
  804f54:	0085c83a 	sub	r2,zero,r2
  804f58:	e0bffa15 	stw	r2,-24(fp)
  804f5c:	e0fff817 	ldw	r3,-32(fp)
  804f60:	e0fff915 	stw	r3,-28(fp)
  804f64:	e0fff917 	ldw	r3,-28(fp)
  804f68:	1804403a 	cmpge	r2,r3,zero
  804f6c:	1000031e 	bne	r2,zero,804f7c <largest+0x110>
  804f70:	e0bff917 	ldw	r2,-28(fp)
  804f74:	0085c83a 	sub	r2,zero,r2
  804f78:	e0bff915 	stw	r2,-28(fp)
  804f7c:	e0fffa17 	ldw	r3,-24(fp)
  804f80:	e0bff917 	ldw	r2,-28(fp)
  804f84:	18800916 	blt	r3,r2,804fac <largest+0x140>
		if(y>=0){
  804f88:	e0bff717 	ldw	r2,-36(fp)
  804f8c:	1004803a 	cmplt	r2,r2,zero
  804f90:	1000031e 	bne	r2,zero,804fa0 <largest+0x134>
			return 2;
  804f94:	00c00084 	movi	r3,2
  804f98:	e0fffb15 	stw	r3,-20(fp)
  804f9c:	00000b06 	br	804fcc <largest+0x160>
		} else{
			return 3;
  804fa0:	008000c4 	movi	r2,3
  804fa4:	e0bffb15 	stw	r2,-20(fp)
  804fa8:	00000806 	br	804fcc <largest+0x160>
		}
	}else {
		if(z>=0){
  804fac:	e0bff817 	ldw	r2,-32(fp)
  804fb0:	1004803a 	cmplt	r2,r2,zero
  804fb4:	1000031e 	bne	r2,zero,804fc4 <largest+0x158>
			return 4;
  804fb8:	00c00104 	movi	r3,4
  804fbc:	e0fffb15 	stw	r3,-20(fp)
  804fc0:	00000206 	br	804fcc <largest+0x160>
		} else{
			return 5;
  804fc4:	00800144 	movi	r2,5
  804fc8:	e0bffb15 	stw	r2,-20(fp)
  804fcc:	e0bffb17 	ldw	r2,-20(fp)
		}
	}
}
  804fd0:	e037883a 	mov	sp,fp
  804fd4:	df000017 	ldw	fp,0(sp)
  804fd8:	dec00104 	addi	sp,sp,4
  804fdc:	f800283a 	ret

00804fe0 <largestPalmLeft>:
int largestPalmLeft(int x,int y,int z){
  804fe0:	defff504 	addi	sp,sp,-44
  804fe4:	df000a15 	stw	fp,40(sp)
  804fe8:	df000a04 	addi	fp,sp,40
  804fec:	e13ff615 	stw	r4,-40(fp)
  804ff0:	e17ff715 	stw	r5,-36(fp)
  804ff4:	e1bff815 	stw	r6,-32(fp)
	if(abs(x) >= abs(y) && abs(x) >= abs(z)){
  804ff8:	e0bff617 	ldw	r2,-40(fp)
  804ffc:	e0bfff15 	stw	r2,-4(fp)
  805000:	e0ffff17 	ldw	r3,-4(fp)
  805004:	1804403a 	cmpge	r2,r3,zero
  805008:	1000031e 	bne	r2,zero,805018 <largestPalmLeft+0x38>
  80500c:	e0bfff17 	ldw	r2,-4(fp)
  805010:	0085c83a 	sub	r2,zero,r2
  805014:	e0bfff15 	stw	r2,-4(fp)
  805018:	e0fff717 	ldw	r3,-36(fp)
  80501c:	e0fffe15 	stw	r3,-8(fp)
  805020:	e0fffe17 	ldw	r3,-8(fp)
  805024:	1804403a 	cmpge	r2,r3,zero
  805028:	1000031e 	bne	r2,zero,805038 <largestPalmLeft+0x58>
  80502c:	e0bffe17 	ldw	r2,-8(fp)
  805030:	0085c83a 	sub	r2,zero,r2
  805034:	e0bffe15 	stw	r2,-8(fp)
  805038:	e0ffff17 	ldw	r3,-4(fp)
  80503c:	e0bffe17 	ldw	r2,-8(fp)
  805040:	18801b16 	blt	r3,r2,8050b0 <largestPalmLeft+0xd0>
  805044:	e0fff617 	ldw	r3,-40(fp)
  805048:	e0fffd15 	stw	r3,-12(fp)
  80504c:	e0fffd17 	ldw	r3,-12(fp)
  805050:	1804403a 	cmpge	r2,r3,zero
  805054:	1000031e 	bne	r2,zero,805064 <largestPalmLeft+0x84>
  805058:	e0bffd17 	ldw	r2,-12(fp)
  80505c:	0085c83a 	sub	r2,zero,r2
  805060:	e0bffd15 	stw	r2,-12(fp)
  805064:	e0fff817 	ldw	r3,-32(fp)
  805068:	e0fffc15 	stw	r3,-16(fp)
  80506c:	e0fffc17 	ldw	r3,-16(fp)
  805070:	1804403a 	cmpge	r2,r3,zero
  805074:	1000031e 	bne	r2,zero,805084 <largestPalmLeft+0xa4>
  805078:	e0bffc17 	ldw	r2,-16(fp)
  80507c:	0085c83a 	sub	r2,zero,r2
  805080:	e0bffc15 	stw	r2,-16(fp)
  805084:	e0fffd17 	ldw	r3,-12(fp)
  805088:	e0bffc17 	ldw	r2,-16(fp)
  80508c:	18800816 	blt	r3,r2,8050b0 <largestPalmLeft+0xd0>
		if(x>=0){
  805090:	e0bff617 	ldw	r2,-40(fp)
  805094:	1004803a 	cmplt	r2,r2,zero
  805098:	1000021e 	bne	r2,zero,8050a4 <largestPalmLeft+0xc4>
			return 0;
  80509c:	e03ffb15 	stw	zero,-20(fp)
  8050a0:	00002706 	br	805140 <largestPalmLeft+0x160>
		} else{
			return 1;
  8050a4:	00c00044 	movi	r3,1
  8050a8:	e0fffb15 	stw	r3,-20(fp)
  8050ac:	00002406 	br	805140 <largestPalmLeft+0x160>
		}
	}else if(abs(y) >= abs(z)){
  8050b0:	e0bff717 	ldw	r2,-36(fp)
  8050b4:	e0bffa15 	stw	r2,-24(fp)
  8050b8:	e0fffa17 	ldw	r3,-24(fp)
  8050bc:	1804403a 	cmpge	r2,r3,zero
  8050c0:	1000031e 	bne	r2,zero,8050d0 <largestPalmLeft+0xf0>
  8050c4:	e0bffa17 	ldw	r2,-24(fp)
  8050c8:	0085c83a 	sub	r2,zero,r2
  8050cc:	e0bffa15 	stw	r2,-24(fp)
  8050d0:	e0fff817 	ldw	r3,-32(fp)
  8050d4:	e0fff915 	stw	r3,-28(fp)
  8050d8:	e0fff917 	ldw	r3,-28(fp)
  8050dc:	1804403a 	cmpge	r2,r3,zero
  8050e0:	1000031e 	bne	r2,zero,8050f0 <largestPalmLeft+0x110>
  8050e4:	e0bff917 	ldw	r2,-28(fp)
  8050e8:	0085c83a 	sub	r2,zero,r2
  8050ec:	e0bff915 	stw	r2,-28(fp)
  8050f0:	e0fffa17 	ldw	r3,-24(fp)
  8050f4:	e0bff917 	ldw	r2,-28(fp)
  8050f8:	18800916 	blt	r3,r2,805120 <largestPalmLeft+0x140>
		if(y>=0){
  8050fc:	e0bff717 	ldw	r2,-36(fp)
  805100:	1004803a 	cmplt	r2,r2,zero
  805104:	1000031e 	bne	r2,zero,805114 <largestPalmLeft+0x134>
			return 4;
  805108:	00c00104 	movi	r3,4
  80510c:	e0fffb15 	stw	r3,-20(fp)
  805110:	00000b06 	br	805140 <largestPalmLeft+0x160>
		} else{
			return 5;
  805114:	00800144 	movi	r2,5
  805118:	e0bffb15 	stw	r2,-20(fp)
  80511c:	00000806 	br	805140 <largestPalmLeft+0x160>
		}
	}else {
		if(z>=0){
  805120:	e0bff817 	ldw	r2,-32(fp)
  805124:	1004803a 	cmplt	r2,r2,zero
  805128:	1000031e 	bne	r2,zero,805138 <largestPalmLeft+0x158>
			return 3;
  80512c:	00c000c4 	movi	r3,3
  805130:	e0fffb15 	stw	r3,-20(fp)
  805134:	00000206 	br	805140 <largestPalmLeft+0x160>
		} else{
			return 2;
  805138:	00800084 	movi	r2,2
  80513c:	e0bffb15 	stw	r2,-20(fp)
  805140:	e0bffb17 	ldw	r2,-20(fp)
		}
	}
}
  805144:	e037883a 	mov	sp,fp
  805148:	df000017 	ldw	fp,0(sp)
  80514c:	dec00104 	addi	sp,sp,4
  805150:	f800283a 	ret

00805154 <largestPalmRight>:

int largestPalmRight(int x,int y,int z){
  805154:	defff504 	addi	sp,sp,-44
  805158:	df000a15 	stw	fp,40(sp)
  80515c:	df000a04 	addi	fp,sp,40
  805160:	e13ff615 	stw	r4,-40(fp)
  805164:	e17ff715 	stw	r5,-36(fp)
  805168:	e1bff815 	stw	r6,-32(fp)
	if(abs(x) >= abs(y) && abs(x) >= abs(z)){
  80516c:	e0bff617 	ldw	r2,-40(fp)
  805170:	e0bfff15 	stw	r2,-4(fp)
  805174:	e0ffff17 	ldw	r3,-4(fp)
  805178:	1804403a 	cmpge	r2,r3,zero
  80517c:	1000031e 	bne	r2,zero,80518c <largestPalmRight+0x38>
  805180:	e0bfff17 	ldw	r2,-4(fp)
  805184:	0085c83a 	sub	r2,zero,r2
  805188:	e0bfff15 	stw	r2,-4(fp)
  80518c:	e0fff717 	ldw	r3,-36(fp)
  805190:	e0fffe15 	stw	r3,-8(fp)
  805194:	e0fffe17 	ldw	r3,-8(fp)
  805198:	1804403a 	cmpge	r2,r3,zero
  80519c:	1000031e 	bne	r2,zero,8051ac <largestPalmRight+0x58>
  8051a0:	e0bffe17 	ldw	r2,-8(fp)
  8051a4:	0085c83a 	sub	r2,zero,r2
  8051a8:	e0bffe15 	stw	r2,-8(fp)
  8051ac:	e0ffff17 	ldw	r3,-4(fp)
  8051b0:	e0bffe17 	ldw	r2,-8(fp)
  8051b4:	18801b16 	blt	r3,r2,805224 <largestPalmRight+0xd0>
  8051b8:	e0fff617 	ldw	r3,-40(fp)
  8051bc:	e0fffd15 	stw	r3,-12(fp)
  8051c0:	e0fffd17 	ldw	r3,-12(fp)
  8051c4:	1804403a 	cmpge	r2,r3,zero
  8051c8:	1000031e 	bne	r2,zero,8051d8 <largestPalmRight+0x84>
  8051cc:	e0bffd17 	ldw	r2,-12(fp)
  8051d0:	0085c83a 	sub	r2,zero,r2
  8051d4:	e0bffd15 	stw	r2,-12(fp)
  8051d8:	e0fff817 	ldw	r3,-32(fp)
  8051dc:	e0fffc15 	stw	r3,-16(fp)
  8051e0:	e0fffc17 	ldw	r3,-16(fp)
  8051e4:	1804403a 	cmpge	r2,r3,zero
  8051e8:	1000031e 	bne	r2,zero,8051f8 <largestPalmRight+0xa4>
  8051ec:	e0bffc17 	ldw	r2,-16(fp)
  8051f0:	0085c83a 	sub	r2,zero,r2
  8051f4:	e0bffc15 	stw	r2,-16(fp)
  8051f8:	e0fffd17 	ldw	r3,-12(fp)
  8051fc:	e0bffc17 	ldw	r2,-16(fp)
  805200:	18800816 	blt	r3,r2,805224 <largestPalmRight+0xd0>
		if(x>=0){
  805204:	e0bff617 	ldw	r2,-40(fp)
  805208:	1004803a 	cmplt	r2,r2,zero
  80520c:	1000021e 	bne	r2,zero,805218 <largestPalmRight+0xc4>
			return 0;
  805210:	e03ffb15 	stw	zero,-20(fp)
  805214:	00002706 	br	8052b4 <largestPalmRight+0x160>
		} else{
			return 1;
  805218:	00c00044 	movi	r3,1
  80521c:	e0fffb15 	stw	r3,-20(fp)
  805220:	00002406 	br	8052b4 <largestPalmRight+0x160>
		}
	}else if(abs(y) >= abs(z)){
  805224:	e0bff717 	ldw	r2,-36(fp)
  805228:	e0bffa15 	stw	r2,-24(fp)
  80522c:	e0fffa17 	ldw	r3,-24(fp)
  805230:	1804403a 	cmpge	r2,r3,zero
  805234:	1000031e 	bne	r2,zero,805244 <largestPalmRight+0xf0>
  805238:	e0bffa17 	ldw	r2,-24(fp)
  80523c:	0085c83a 	sub	r2,zero,r2
  805240:	e0bffa15 	stw	r2,-24(fp)
  805244:	e0fff817 	ldw	r3,-32(fp)
  805248:	e0fff915 	stw	r3,-28(fp)
  80524c:	e0fff917 	ldw	r3,-28(fp)
  805250:	1804403a 	cmpge	r2,r3,zero
  805254:	1000031e 	bne	r2,zero,805264 <largestPalmRight+0x110>
  805258:	e0bff917 	ldw	r2,-28(fp)
  80525c:	0085c83a 	sub	r2,zero,r2
  805260:	e0bff915 	stw	r2,-28(fp)
  805264:	e0fffa17 	ldw	r3,-24(fp)
  805268:	e0bff917 	ldw	r2,-28(fp)
  80526c:	18800916 	blt	r3,r2,805294 <largestPalmRight+0x140>
		if(y>=0){
  805270:	e0bff717 	ldw	r2,-36(fp)
  805274:	1004803a 	cmplt	r2,r2,zero
  805278:	1000031e 	bne	r2,zero,805288 <largestPalmRight+0x134>
			return 5;
  80527c:	00c00144 	movi	r3,5
  805280:	e0fffb15 	stw	r3,-20(fp)
  805284:	00000b06 	br	8052b4 <largestPalmRight+0x160>
		} else{
			return 4;
  805288:	00800104 	movi	r2,4
  80528c:	e0bffb15 	stw	r2,-20(fp)
  805290:	00000806 	br	8052b4 <largestPalmRight+0x160>
		}
	}else {
		if(z>=0){
  805294:	e0bff817 	ldw	r2,-32(fp)
  805298:	1004803a 	cmplt	r2,r2,zero
  80529c:	1000031e 	bne	r2,zero,8052ac <largestPalmRight+0x158>
			return 2;
  8052a0:	00c00084 	movi	r3,2
  8052a4:	e0fffb15 	stw	r3,-20(fp)
  8052a8:	00000206 	br	8052b4 <largestPalmRight+0x160>
		} else{
			return 3;
  8052ac:	008000c4 	movi	r2,3
  8052b0:	e0bffb15 	stw	r2,-20(fp)
  8052b4:	e0bffb17 	ldw	r2,-20(fp)
		}
	}
}
  8052b8:	e037883a 	mov	sp,fp
  8052bc:	df000017 	ldw	fp,0(sp)
  8052c0:	dec00104 	addi	sp,sp,4
  8052c4:	f800283a 	ret

008052c8 <largestPalmUp>:

int largestPalmUp(int x,int y,int z){
  8052c8:	defff504 	addi	sp,sp,-44
  8052cc:	df000a15 	stw	fp,40(sp)
  8052d0:	df000a04 	addi	fp,sp,40
  8052d4:	e13ff615 	stw	r4,-40(fp)
  8052d8:	e17ff715 	stw	r5,-36(fp)
  8052dc:	e1bff815 	stw	r6,-32(fp)
	if(abs(x) >= abs(y) && abs(x) >= abs(z)){
  8052e0:	e0bff617 	ldw	r2,-40(fp)
  8052e4:	e0bfff15 	stw	r2,-4(fp)
  8052e8:	e0ffff17 	ldw	r3,-4(fp)
  8052ec:	1804403a 	cmpge	r2,r3,zero
  8052f0:	1000031e 	bne	r2,zero,805300 <largestPalmUp+0x38>
  8052f4:	e0bfff17 	ldw	r2,-4(fp)
  8052f8:	0085c83a 	sub	r2,zero,r2
  8052fc:	e0bfff15 	stw	r2,-4(fp)
  805300:	e0fff717 	ldw	r3,-36(fp)
  805304:	e0fffe15 	stw	r3,-8(fp)
  805308:	e0fffe17 	ldw	r3,-8(fp)
  80530c:	1804403a 	cmpge	r2,r3,zero
  805310:	1000031e 	bne	r2,zero,805320 <largestPalmUp+0x58>
  805314:	e0bffe17 	ldw	r2,-8(fp)
  805318:	0085c83a 	sub	r2,zero,r2
  80531c:	e0bffe15 	stw	r2,-8(fp)
  805320:	e0ffff17 	ldw	r3,-4(fp)
  805324:	e0bffe17 	ldw	r2,-8(fp)
  805328:	18801b16 	blt	r3,r2,805398 <largestPalmUp+0xd0>
  80532c:	e0fff617 	ldw	r3,-40(fp)
  805330:	e0fffd15 	stw	r3,-12(fp)
  805334:	e0fffd17 	ldw	r3,-12(fp)
  805338:	1804403a 	cmpge	r2,r3,zero
  80533c:	1000031e 	bne	r2,zero,80534c <largestPalmUp+0x84>
  805340:	e0bffd17 	ldw	r2,-12(fp)
  805344:	0085c83a 	sub	r2,zero,r2
  805348:	e0bffd15 	stw	r2,-12(fp)
  80534c:	e0fff817 	ldw	r3,-32(fp)
  805350:	e0fffc15 	stw	r3,-16(fp)
  805354:	e0fffc17 	ldw	r3,-16(fp)
  805358:	1804403a 	cmpge	r2,r3,zero
  80535c:	1000031e 	bne	r2,zero,80536c <largestPalmUp+0xa4>
  805360:	e0bffc17 	ldw	r2,-16(fp)
  805364:	0085c83a 	sub	r2,zero,r2
  805368:	e0bffc15 	stw	r2,-16(fp)
  80536c:	e0fffd17 	ldw	r3,-12(fp)
  805370:	e0bffc17 	ldw	r2,-16(fp)
  805374:	18800816 	blt	r3,r2,805398 <largestPalmUp+0xd0>
		if(x>=0){
  805378:	e0bff617 	ldw	r2,-40(fp)
  80537c:	1004803a 	cmplt	r2,r2,zero
  805380:	1000021e 	bne	r2,zero,80538c <largestPalmUp+0xc4>
			return 0;
  805384:	e03ffb15 	stw	zero,-20(fp)
  805388:	00002706 	br	805428 <largestPalmUp+0x160>
		} else{
			return 1;
  80538c:	00c00044 	movi	r3,1
  805390:	e0fffb15 	stw	r3,-20(fp)
  805394:	00002406 	br	805428 <largestPalmUp+0x160>
		}
	}else if(abs(y) >= abs(z)){
  805398:	e0bff717 	ldw	r2,-36(fp)
  80539c:	e0bffa15 	stw	r2,-24(fp)
  8053a0:	e0fffa17 	ldw	r3,-24(fp)
  8053a4:	1804403a 	cmpge	r2,r3,zero
  8053a8:	1000031e 	bne	r2,zero,8053b8 <largestPalmUp+0xf0>
  8053ac:	e0bffa17 	ldw	r2,-24(fp)
  8053b0:	0085c83a 	sub	r2,zero,r2
  8053b4:	e0bffa15 	stw	r2,-24(fp)
  8053b8:	e0fff817 	ldw	r3,-32(fp)
  8053bc:	e0fff915 	stw	r3,-28(fp)
  8053c0:	e0fff917 	ldw	r3,-28(fp)
  8053c4:	1804403a 	cmpge	r2,r3,zero
  8053c8:	1000031e 	bne	r2,zero,8053d8 <largestPalmUp+0x110>
  8053cc:	e0bff917 	ldw	r2,-28(fp)
  8053d0:	0085c83a 	sub	r2,zero,r2
  8053d4:	e0bff915 	stw	r2,-28(fp)
  8053d8:	e0fffa17 	ldw	r3,-24(fp)
  8053dc:	e0bff917 	ldw	r2,-28(fp)
  8053e0:	18800916 	blt	r3,r2,805408 <largestPalmUp+0x140>
		if(y>=0){
  8053e4:	e0bff717 	ldw	r2,-36(fp)
  8053e8:	1004803a 	cmplt	r2,r2,zero
  8053ec:	1000031e 	bne	r2,zero,8053fc <largestPalmUp+0x134>
			return 3;
  8053f0:	00c000c4 	movi	r3,3
  8053f4:	e0fffb15 	stw	r3,-20(fp)
  8053f8:	00000b06 	br	805428 <largestPalmUp+0x160>
		} else{
			return 2;
  8053fc:	00800084 	movi	r2,2
  805400:	e0bffb15 	stw	r2,-20(fp)
  805404:	00000806 	br	805428 <largestPalmUp+0x160>
		}
	}else {
		if(z>=0){
  805408:	e0bff817 	ldw	r2,-32(fp)
  80540c:	1004803a 	cmplt	r2,r2,zero
  805410:	1000031e 	bne	r2,zero,805420 <largestPalmUp+0x158>
			return 5;
  805414:	00c00144 	movi	r3,5
  805418:	e0fffb15 	stw	r3,-20(fp)
  80541c:	00000206 	br	805428 <largestPalmUp+0x160>
		} else{
			return 4;
  805420:	00800104 	movi	r2,4
  805424:	e0bffb15 	stw	r2,-20(fp)
  805428:	e0bffb17 	ldw	r2,-20(fp)
		}
	}
}
  80542c:	e037883a 	mov	sp,fp
  805430:	df000017 	ldw	fp,0(sp)
  805434:	dec00104 	addi	sp,sp,4
  805438:	f800283a 	ret

0080543c <orientation>:

//function to get the orientations. 0 means palm towards the floor. 1 is palm towards the left
//2 is palm towards the right. 3 is palm towards the roof.
int orientation(int x, int y, int z){
  80543c:	defff504 	addi	sp,sp,-44
  805440:	df000a15 	stw	fp,40(sp)
  805444:	df000a04 	addi	fp,sp,40
  805448:	e13ff615 	stw	r4,-40(fp)
  80544c:	e17ff715 	stw	r5,-36(fp)
  805450:	e1bff815 	stw	r6,-32(fp)
	if(abs(z) >= abs(y) && abs(z) >= abs(x)){
  805454:	e0bff817 	ldw	r2,-32(fp)
  805458:	e0bfff15 	stw	r2,-4(fp)
  80545c:	e0ffff17 	ldw	r3,-4(fp)
  805460:	1804403a 	cmpge	r2,r3,zero
  805464:	1000031e 	bne	r2,zero,805474 <orientation+0x38>
  805468:	e0bfff17 	ldw	r2,-4(fp)
  80546c:	0085c83a 	sub	r2,zero,r2
  805470:	e0bfff15 	stw	r2,-4(fp)
  805474:	e0fff717 	ldw	r3,-36(fp)
  805478:	e0fffe15 	stw	r3,-8(fp)
  80547c:	e0fffe17 	ldw	r3,-8(fp)
  805480:	1804403a 	cmpge	r2,r3,zero
  805484:	1000031e 	bne	r2,zero,805494 <orientation+0x58>
  805488:	e0bffe17 	ldw	r2,-8(fp)
  80548c:	0085c83a 	sub	r2,zero,r2
  805490:	e0bffe15 	stw	r2,-8(fp)
  805494:	e0ffff17 	ldw	r3,-4(fp)
  805498:	e0bffe17 	ldw	r2,-8(fp)
  80549c:	18801b16 	blt	r3,r2,80550c <orientation+0xd0>
  8054a0:	e0fff817 	ldw	r3,-32(fp)
  8054a4:	e0fffd15 	stw	r3,-12(fp)
  8054a8:	e0fffd17 	ldw	r3,-12(fp)
  8054ac:	1804403a 	cmpge	r2,r3,zero
  8054b0:	1000031e 	bne	r2,zero,8054c0 <orientation+0x84>
  8054b4:	e0bffd17 	ldw	r2,-12(fp)
  8054b8:	0085c83a 	sub	r2,zero,r2
  8054bc:	e0bffd15 	stw	r2,-12(fp)
  8054c0:	e0fff617 	ldw	r3,-40(fp)
  8054c4:	e0fffc15 	stw	r3,-16(fp)
  8054c8:	e0fffc17 	ldw	r3,-16(fp)
  8054cc:	1804403a 	cmpge	r2,r3,zero
  8054d0:	1000031e 	bne	r2,zero,8054e0 <orientation+0xa4>
  8054d4:	e0bffc17 	ldw	r2,-16(fp)
  8054d8:	0085c83a 	sub	r2,zero,r2
  8054dc:	e0bffc15 	stw	r2,-16(fp)
  8054e0:	e0fffd17 	ldw	r3,-12(fp)
  8054e4:	e0bffc17 	ldw	r2,-16(fp)
  8054e8:	18800816 	blt	r3,r2,80550c <orientation+0xd0>
			if(z>=0){
  8054ec:	e0bff817 	ldw	r2,-32(fp)
  8054f0:	1004803a 	cmplt	r2,r2,zero
  8054f4:	1000021e 	bne	r2,zero,805500 <orientation+0xc4>
				return 0;
  8054f8:	e03ffb15 	stw	zero,-20(fp)
  8054fc:	00002506 	br	805594 <orientation+0x158>
			} else{
				return 3;
  805500:	00c000c4 	movi	r3,3
  805504:	e0fffb15 	stw	r3,-20(fp)
  805508:	00002206 	br	805594 <orientation+0x158>
			}
		}else if(abs(y) >= abs(x)){
  80550c:	e0bff717 	ldw	r2,-36(fp)
  805510:	e0bffa15 	stw	r2,-24(fp)
  805514:	e0fffa17 	ldw	r3,-24(fp)
  805518:	1804403a 	cmpge	r2,r3,zero
  80551c:	1000031e 	bne	r2,zero,80552c <orientation+0xf0>
  805520:	e0bffa17 	ldw	r2,-24(fp)
  805524:	0085c83a 	sub	r2,zero,r2
  805528:	e0bffa15 	stw	r2,-24(fp)
  80552c:	e0fff617 	ldw	r3,-40(fp)
  805530:	e0fff915 	stw	r3,-28(fp)
  805534:	e0fff917 	ldw	r3,-28(fp)
  805538:	1804403a 	cmpge	r2,r3,zero
  80553c:	1000031e 	bne	r2,zero,80554c <orientation+0x110>
  805540:	e0bff917 	ldw	r2,-28(fp)
  805544:	0085c83a 	sub	r2,zero,r2
  805548:	e0bff915 	stw	r2,-28(fp)
  80554c:	e0fffa17 	ldw	r3,-24(fp)
  805550:	e0bff917 	ldw	r2,-28(fp)
  805554:	18800916 	blt	r3,r2,80557c <orientation+0x140>
			if(y>=0){
  805558:	e0bff717 	ldw	r2,-36(fp)
  80555c:	1004803a 	cmplt	r2,r2,zero
  805560:	1000031e 	bne	r2,zero,805570 <orientation+0x134>
				return 1;
  805564:	00c00044 	movi	r3,1
  805568:	e0fffb15 	stw	r3,-20(fp)
  80556c:	00000906 	br	805594 <orientation+0x158>
			} else{
				return 2;
  805570:	00800084 	movi	r2,2
  805574:	e0bffb15 	stw	r2,-20(fp)
  805578:	00000606 	br	805594 <orientation+0x158>
			}
		}else {
			if(x>=0){
  80557c:	e0bff617 	ldw	r2,-40(fp)
  805580:	1004803a 	cmplt	r2,r2,zero
  805584:	1000021e 	bne	r2,zero,805590 <orientation+0x154>
				return 0;
  805588:	e03ffb15 	stw	zero,-20(fp)
  80558c:	00000106 	br	805594 <orientation+0x158>
			} else{
				return 0;
  805590:	e03ffb15 	stw	zero,-20(fp)
  805594:	e0bffb17 	ldw	r2,-20(fp)
			}
		}
}
  805598:	e037883a 	mov	sp,fp
  80559c:	df000017 	ldw	fp,0(sp)
  8055a0:	dec00104 	addi	sp,sp,4
  8055a4:	f800283a 	ret

008055a8 <disable_irq>:

alt_irq_context status;
unsigned char INT_Enabled=1;

void disable_irq(void)
{
  8055a8:	defffe04 	addi	sp,sp,-8
  8055ac:	df000115 	stw	fp,4(sp)
  8055b0:	df000104 	addi	fp,sp,4
  if(INT_Enabled)
  8055b4:	d0a00303 	ldbu	r2,-32756(gp)
  8055b8:	10803fcc 	andi	r2,r2,255
  8055bc:	1005003a 	cmpeq	r2,r2,zero
  8055c0:	1000091e 	bne	r2,zero,8055e8 <disable_irq+0x40>
static ALT_INLINE alt_irq_context ALT_ALWAYS_INLINE 
       alt_irq_disable_all (void)
{
  alt_irq_context context;

  NIOS2_READ_STATUS (context);
  8055c4:	0005303a 	rdctl	r2,status
  8055c8:	e0bfff15 	stw	r2,-4(fp)

  NIOS2_WRITE_STATUS (context & ~NIOS2_STATUS_PIE_MSK);
  8055cc:	e0ffff17 	ldw	r3,-4(fp)
  8055d0:	00bfff84 	movi	r2,-2
  8055d4:	1884703a 	and	r2,r3,r2
  8055d8:	1001703a 	wrctl	status,r2
  
  return context;
  8055dc:	e0bfff17 	ldw	r2,-4(fp)
  {
    status=alt_irq_disable_all();
  8055e0:	d0a79615 	stw	r2,-25000(gp)
    INT_Enabled=0;
  8055e4:	d0200305 	stb	zero,-32756(gp)
  }
}
  8055e8:	e037883a 	mov	sp,fp
  8055ec:	df000017 	ldw	fp,0(sp)
  8055f0:	dec00104 	addi	sp,sp,4
  8055f4:	f800283a 	ret

008055f8 <enable_irq>:

void enable_irq(void)
{
  8055f8:	defffe04 	addi	sp,sp,-8
  8055fc:	df000115 	stw	fp,4(sp)
  805600:	df000104 	addi	fp,sp,4
  if(!INT_Enabled)
  805604:	d0a00303 	ldbu	r2,-32756(gp)
  805608:	10803fcc 	andi	r2,r2,255
  80560c:	1004c03a 	cmpne	r2,r2,zero
  805610:	1000061e 	bne	r2,zero,80562c <enable_irq+0x34>
  {
    alt_irq_enable_all(status);
  805614:	d0a79617 	ldw	r2,-25000(gp)
  805618:	e0bfff15 	stw	r2,-4(fp)
  status &= ~NIOS2_STATUS_PIE_MSK;
  status |= (context & NIOS2_STATUS_PIE_MSK);
  
  NIOS2_WRITE_STATUS (status);
#else
  NIOS2_WRITE_STATUS (context);
  80561c:	e0bfff17 	ldw	r2,-4(fp)
  805620:	1001703a 	wrctl	status,r2
    INT_Enabled=1;    
  805624:	00800044 	movi	r2,1
  805628:	d0a00305 	stb	r2,-32756(gp)
  }
}
  80562c:	e037883a 	mov	sp,fp
  805630:	df000017 	ldw	fp,0(sp)
  805634:	dec00104 	addi	sp,sp,4
  805638:	f800283a 	ret

0080563c <_fpadd_parts>:
  80563c:	defff804 	addi	sp,sp,-32
  805640:	dcc00315 	stw	r19,12(sp)
  805644:	2027883a 	mov	r19,r4
  805648:	21000017 	ldw	r4,0(r4)
  80564c:	00c00044 	movi	r3,1
  805650:	dd400515 	stw	r21,20(sp)
  805654:	dd000415 	stw	r20,16(sp)
  805658:	ddc00715 	stw	r23,28(sp)
  80565c:	dd800615 	stw	r22,24(sp)
  805660:	dc800215 	stw	r18,8(sp)
  805664:	dc400115 	stw	r17,4(sp)
  805668:	dc000015 	stw	r16,0(sp)
  80566c:	282b883a 	mov	r21,r5
  805670:	3029883a 	mov	r20,r6
  805674:	1900632e 	bgeu	r3,r4,805804 <_fpadd_parts+0x1c8>
  805678:	28800017 	ldw	r2,0(r5)
  80567c:	1880812e 	bgeu	r3,r2,805884 <_fpadd_parts+0x248>
  805680:	00c00104 	movi	r3,4
  805684:	20c0dc26 	beq	r4,r3,8059f8 <_fpadd_parts+0x3bc>
  805688:	10c07e26 	beq	r2,r3,805884 <_fpadd_parts+0x248>
  80568c:	00c00084 	movi	r3,2
  805690:	10c06726 	beq	r2,r3,805830 <_fpadd_parts+0x1f4>
  805694:	20c07b26 	beq	r4,r3,805884 <_fpadd_parts+0x248>
  805698:	9dc00217 	ldw	r23,8(r19)
  80569c:	28c00217 	ldw	r3,8(r5)
  8056a0:	9c400317 	ldw	r17,12(r19)
  8056a4:	2bc00317 	ldw	r15,12(r5)
  8056a8:	b8cdc83a 	sub	r6,r23,r3
  8056ac:	9c800417 	ldw	r18,16(r19)
  8056b0:	2c000417 	ldw	r16,16(r5)
  8056b4:	3009883a 	mov	r4,r6
  8056b8:	30009716 	blt	r6,zero,805918 <_fpadd_parts+0x2dc>
  8056bc:	00800fc4 	movi	r2,63
  8056c0:	11806b16 	blt	r2,r6,805870 <_fpadd_parts+0x234>
  8056c4:	0100a40e 	bge	zero,r4,805958 <_fpadd_parts+0x31c>
  8056c8:	35bff804 	addi	r22,r6,-32
  8056cc:	b000bc16 	blt	r22,zero,8059c0 <_fpadd_parts+0x384>
  8056d0:	8596d83a 	srl	r11,r16,r22
  8056d4:	0019883a 	mov	r12,zero
  8056d8:	0013883a 	mov	r9,zero
  8056dc:	01000044 	movi	r4,1
  8056e0:	0015883a 	mov	r10,zero
  8056e4:	b000be16 	blt	r22,zero,8059e0 <_fpadd_parts+0x3a4>
  8056e8:	2590983a 	sll	r8,r4,r22
  8056ec:	000f883a 	mov	r7,zero
  8056f0:	00bfffc4 	movi	r2,-1
  8056f4:	3889883a 	add	r4,r7,r2
  8056f8:	408b883a 	add	r5,r8,r2
  8056fc:	21cd803a 	cmpltu	r6,r4,r7
  805700:	314b883a 	add	r5,r6,r5
  805704:	7904703a 	and	r2,r15,r4
  805708:	8146703a 	and	r3,r16,r5
  80570c:	10c4b03a 	or	r2,r2,r3
  805710:	10000226 	beq	r2,zero,80571c <_fpadd_parts+0xe0>
  805714:	02400044 	movi	r9,1
  805718:	0015883a 	mov	r10,zero
  80571c:	5a5eb03a 	or	r15,r11,r9
  805720:	62a0b03a 	or	r16,r12,r10
  805724:	99400117 	ldw	r5,4(r19)
  805728:	a8800117 	ldw	r2,4(r21)
  80572c:	28806e26 	beq	r5,r2,8058e8 <_fpadd_parts+0x2ac>
  805730:	28006626 	beq	r5,zero,8058cc <_fpadd_parts+0x290>
  805734:	7c45c83a 	sub	r2,r15,r17
  805738:	7889803a 	cmpltu	r4,r15,r2
  80573c:	8487c83a 	sub	r3,r16,r18
  805740:	1909c83a 	sub	r4,r3,r4
  805744:	100d883a 	mov	r6,r2
  805748:	200f883a 	mov	r7,r4
  80574c:	38007716 	blt	r7,zero,80592c <_fpadd_parts+0x2f0>
  805750:	a5c00215 	stw	r23,8(r20)
  805754:	a1c00415 	stw	r7,16(r20)
  805758:	a0000115 	stw	zero,4(r20)
  80575c:	a1800315 	stw	r6,12(r20)
  805760:	a2000317 	ldw	r8,12(r20)
  805764:	a2400417 	ldw	r9,16(r20)
  805768:	00bfffc4 	movi	r2,-1
  80576c:	408b883a 	add	r5,r8,r2
  805770:	2a09803a 	cmpltu	r4,r5,r8
  805774:	488d883a 	add	r6,r9,r2
  805778:	01c40034 	movhi	r7,4096
  80577c:	39ffffc4 	addi	r7,r7,-1
  805780:	218d883a 	add	r6,r4,r6
  805784:	39801736 	bltu	r7,r6,8057e4 <_fpadd_parts+0x1a8>
  805788:	31c06526 	beq	r6,r7,805920 <_fpadd_parts+0x2e4>
  80578c:	a3000217 	ldw	r12,8(r20)
  805790:	4209883a 	add	r4,r8,r8
  805794:	00bfffc4 	movi	r2,-1
  805798:	220f803a 	cmpltu	r7,r4,r8
  80579c:	4a4b883a 	add	r5,r9,r9
  8057a0:	394f883a 	add	r7,r7,r5
  8057a4:	2095883a 	add	r10,r4,r2
  8057a8:	3897883a 	add	r11,r7,r2
  8057ac:	510d803a 	cmpltu	r6,r10,r4
  8057b0:	6099883a 	add	r12,r12,r2
  8057b4:	32d7883a 	add	r11,r6,r11
  8057b8:	00840034 	movhi	r2,4096
  8057bc:	10bfffc4 	addi	r2,r2,-1
  8057c0:	2011883a 	mov	r8,r4
  8057c4:	3813883a 	mov	r9,r7
  8057c8:	a1000315 	stw	r4,12(r20)
  8057cc:	a1c00415 	stw	r7,16(r20)
  8057d0:	a3000215 	stw	r12,8(r20)
  8057d4:	12c00336 	bltu	r2,r11,8057e4 <_fpadd_parts+0x1a8>
  8057d8:	58bfed1e 	bne	r11,r2,805790 <_fpadd_parts+0x154>
  8057dc:	00bfff84 	movi	r2,-2
  8057e0:	12bfeb2e 	bgeu	r2,r10,805790 <_fpadd_parts+0x154>
  8057e4:	a2800417 	ldw	r10,16(r20)
  8057e8:	008000c4 	movi	r2,3
  8057ec:	00c80034 	movhi	r3,8192
  8057f0:	18ffffc4 	addi	r3,r3,-1
  8057f4:	a2400317 	ldw	r9,12(r20)
  8057f8:	a0800015 	stw	r2,0(r20)
  8057fc:	1a802336 	bltu	r3,r10,80588c <_fpadd_parts+0x250>
  805800:	a027883a 	mov	r19,r20
  805804:	9805883a 	mov	r2,r19
  805808:	ddc00717 	ldw	r23,28(sp)
  80580c:	dd800617 	ldw	r22,24(sp)
  805810:	dd400517 	ldw	r21,20(sp)
  805814:	dd000417 	ldw	r20,16(sp)
  805818:	dcc00317 	ldw	r19,12(sp)
  80581c:	dc800217 	ldw	r18,8(sp)
  805820:	dc400117 	ldw	r17,4(sp)
  805824:	dc000017 	ldw	r16,0(sp)
  805828:	dec00804 	addi	sp,sp,32
  80582c:	f800283a 	ret
  805830:	20fff41e 	bne	r4,r3,805804 <_fpadd_parts+0x1c8>
  805834:	31000015 	stw	r4,0(r6)
  805838:	98800117 	ldw	r2,4(r19)
  80583c:	30800115 	stw	r2,4(r6)
  805840:	98c00217 	ldw	r3,8(r19)
  805844:	30c00215 	stw	r3,8(r6)
  805848:	98800317 	ldw	r2,12(r19)
  80584c:	30800315 	stw	r2,12(r6)
  805850:	98c00417 	ldw	r3,16(r19)
  805854:	30c00415 	stw	r3,16(r6)
  805858:	98800117 	ldw	r2,4(r19)
  80585c:	28c00117 	ldw	r3,4(r5)
  805860:	3027883a 	mov	r19,r6
  805864:	10c4703a 	and	r2,r2,r3
  805868:	30800115 	stw	r2,4(r6)
  80586c:	003fe506 	br	805804 <_fpadd_parts+0x1c8>
  805870:	1dc02616 	blt	r3,r23,80590c <_fpadd_parts+0x2d0>
  805874:	0023883a 	mov	r17,zero
  805878:	182f883a 	mov	r23,r3
  80587c:	0025883a 	mov	r18,zero
  805880:	003fa806 	br	805724 <_fpadd_parts+0xe8>
  805884:	a827883a 	mov	r19,r21
  805888:	003fde06 	br	805804 <_fpadd_parts+0x1c8>
  80588c:	01800044 	movi	r6,1
  805890:	500497fa 	slli	r2,r10,31
  805894:	4808d07a 	srli	r4,r9,1
  805898:	518ad83a 	srl	r5,r10,r6
  80589c:	a2000217 	ldw	r8,8(r20)
  8058a0:	1108b03a 	or	r4,r2,r4
  8058a4:	0007883a 	mov	r3,zero
  8058a8:	4984703a 	and	r2,r9,r6
  8058ac:	208cb03a 	or	r6,r4,r2
  8058b0:	28ceb03a 	or	r7,r5,r3
  8058b4:	42000044 	addi	r8,r8,1
  8058b8:	a027883a 	mov	r19,r20
  8058bc:	a1c00415 	stw	r7,16(r20)
  8058c0:	a2000215 	stw	r8,8(r20)
  8058c4:	a1800315 	stw	r6,12(r20)
  8058c8:	003fce06 	br	805804 <_fpadd_parts+0x1c8>
  8058cc:	8bc5c83a 	sub	r2,r17,r15
  8058d0:	8889803a 	cmpltu	r4,r17,r2
  8058d4:	9407c83a 	sub	r3,r18,r16
  8058d8:	1909c83a 	sub	r4,r3,r4
  8058dc:	100d883a 	mov	r6,r2
  8058e0:	200f883a 	mov	r7,r4
  8058e4:	003f9906 	br	80574c <_fpadd_parts+0x110>
  8058e8:	7c45883a 	add	r2,r15,r17
  8058ec:	13c9803a 	cmpltu	r4,r2,r15
  8058f0:	8487883a 	add	r3,r16,r18
  8058f4:	20c9883a 	add	r4,r4,r3
  8058f8:	a1400115 	stw	r5,4(r20)
  8058fc:	a5c00215 	stw	r23,8(r20)
  805900:	a0800315 	stw	r2,12(r20)
  805904:	a1000415 	stw	r4,16(r20)
  805908:	003fb606 	br	8057e4 <_fpadd_parts+0x1a8>
  80590c:	001f883a 	mov	r15,zero
  805910:	0021883a 	mov	r16,zero
  805914:	003f8306 	br	805724 <_fpadd_parts+0xe8>
  805918:	018dc83a 	sub	r6,zero,r6
  80591c:	003f6706 	br	8056bc <_fpadd_parts+0x80>
  805920:	00bfff84 	movi	r2,-2
  805924:	117faf36 	bltu	r2,r5,8057e4 <_fpadd_parts+0x1a8>
  805928:	003f9806 	br	80578c <_fpadd_parts+0x150>
  80592c:	0005883a 	mov	r2,zero
  805930:	1189c83a 	sub	r4,r2,r6
  805934:	1105803a 	cmpltu	r2,r2,r4
  805938:	01cbc83a 	sub	r5,zero,r7
  80593c:	2885c83a 	sub	r2,r5,r2
  805940:	01800044 	movi	r6,1
  805944:	a1800115 	stw	r6,4(r20)
  805948:	a5c00215 	stw	r23,8(r20)
  80594c:	a1000315 	stw	r4,12(r20)
  805950:	a0800415 	stw	r2,16(r20)
  805954:	003f8206 	br	805760 <_fpadd_parts+0x124>
  805958:	203f7226 	beq	r4,zero,805724 <_fpadd_parts+0xe8>
  80595c:	35bff804 	addi	r22,r6,-32
  805960:	b9af883a 	add	r23,r23,r6
  805964:	b0003116 	blt	r22,zero,805a2c <_fpadd_parts+0x3f0>
  805968:	959ad83a 	srl	r13,r18,r22
  80596c:	001d883a 	mov	r14,zero
  805970:	000f883a 	mov	r7,zero
  805974:	01000044 	movi	r4,1
  805978:	0011883a 	mov	r8,zero
  80597c:	b0002516 	blt	r22,zero,805a14 <_fpadd_parts+0x3d8>
  805980:	2594983a 	sll	r10,r4,r22
  805984:	0013883a 	mov	r9,zero
  805988:	00bfffc4 	movi	r2,-1
  80598c:	4889883a 	add	r4,r9,r2
  805990:	508b883a 	add	r5,r10,r2
  805994:	224d803a 	cmpltu	r6,r4,r9
  805998:	314b883a 	add	r5,r6,r5
  80599c:	8904703a 	and	r2,r17,r4
  8059a0:	9146703a 	and	r3,r18,r5
  8059a4:	10c4b03a 	or	r2,r2,r3
  8059a8:	10000226 	beq	r2,zero,8059b4 <_fpadd_parts+0x378>
  8059ac:	01c00044 	movi	r7,1
  8059b0:	0011883a 	mov	r8,zero
  8059b4:	69e2b03a 	or	r17,r13,r7
  8059b8:	7224b03a 	or	r18,r14,r8
  8059bc:	003f5906 	br	805724 <_fpadd_parts+0xe8>
  8059c0:	8407883a 	add	r3,r16,r16
  8059c4:	008007c4 	movi	r2,31
  8059c8:	1185c83a 	sub	r2,r2,r6
  8059cc:	1886983a 	sll	r3,r3,r2
  8059d0:	7996d83a 	srl	r11,r15,r6
  8059d4:	8198d83a 	srl	r12,r16,r6
  8059d8:	1ad6b03a 	or	r11,r3,r11
  8059dc:	003f3e06 	br	8056d8 <_fpadd_parts+0x9c>
  8059e0:	2006d07a 	srli	r3,r4,1
  8059e4:	008007c4 	movi	r2,31
  8059e8:	1185c83a 	sub	r2,r2,r6
  8059ec:	1890d83a 	srl	r8,r3,r2
  8059f0:	218e983a 	sll	r7,r4,r6
  8059f4:	003f3e06 	br	8056f0 <_fpadd_parts+0xb4>
  8059f8:	113f821e 	bne	r2,r4,805804 <_fpadd_parts+0x1c8>
  8059fc:	28c00117 	ldw	r3,4(r5)
  805a00:	98800117 	ldw	r2,4(r19)
  805a04:	10ff7f26 	beq	r2,r3,805804 <_fpadd_parts+0x1c8>
  805a08:	04c02074 	movhi	r19,129
  805a0c:	9ccbf604 	addi	r19,r19,12248
  805a10:	003f7c06 	br	805804 <_fpadd_parts+0x1c8>
  805a14:	2006d07a 	srli	r3,r4,1
  805a18:	008007c4 	movi	r2,31
  805a1c:	1185c83a 	sub	r2,r2,r6
  805a20:	1894d83a 	srl	r10,r3,r2
  805a24:	2192983a 	sll	r9,r4,r6
  805a28:	003fd706 	br	805988 <_fpadd_parts+0x34c>
  805a2c:	9487883a 	add	r3,r18,r18
  805a30:	008007c4 	movi	r2,31
  805a34:	1185c83a 	sub	r2,r2,r6
  805a38:	1886983a 	sll	r3,r3,r2
  805a3c:	899ad83a 	srl	r13,r17,r6
  805a40:	919cd83a 	srl	r14,r18,r6
  805a44:	1b5ab03a 	or	r13,r3,r13
  805a48:	003fc906 	br	805970 <_fpadd_parts+0x334>

00805a4c <__subdf3>:
  805a4c:	deffea04 	addi	sp,sp,-88
  805a50:	dcc01415 	stw	r19,80(sp)
  805a54:	dcc00404 	addi	r19,sp,16
  805a58:	2011883a 	mov	r8,r4
  805a5c:	2813883a 	mov	r9,r5
  805a60:	dc401315 	stw	r17,76(sp)
  805a64:	d809883a 	mov	r4,sp
  805a68:	980b883a 	mov	r5,r19
  805a6c:	dc400904 	addi	r17,sp,36
  805a70:	dfc01515 	stw	ra,84(sp)
  805a74:	da400115 	stw	r9,4(sp)
  805a78:	d9c00315 	stw	r7,12(sp)
  805a7c:	da000015 	stw	r8,0(sp)
  805a80:	d9800215 	stw	r6,8(sp)
  805a84:	08061f00 	call	8061f0 <__unpack_d>
  805a88:	d9000204 	addi	r4,sp,8
  805a8c:	880b883a 	mov	r5,r17
  805a90:	08061f00 	call	8061f0 <__unpack_d>
  805a94:	d8800a17 	ldw	r2,40(sp)
  805a98:	880b883a 	mov	r5,r17
  805a9c:	9809883a 	mov	r4,r19
  805aa0:	d9800e04 	addi	r6,sp,56
  805aa4:	1080005c 	xori	r2,r2,1
  805aa8:	d8800a15 	stw	r2,40(sp)
  805aac:	080563c0 	call	80563c <_fpadd_parts>
  805ab0:	1009883a 	mov	r4,r2
  805ab4:	0805edc0 	call	805edc <__pack_d>
  805ab8:	dfc01517 	ldw	ra,84(sp)
  805abc:	dcc01417 	ldw	r19,80(sp)
  805ac0:	dc401317 	ldw	r17,76(sp)
  805ac4:	dec01604 	addi	sp,sp,88
  805ac8:	f800283a 	ret

00805acc <__adddf3>:
  805acc:	deffea04 	addi	sp,sp,-88
  805ad0:	dcc01415 	stw	r19,80(sp)
  805ad4:	dcc00404 	addi	r19,sp,16
  805ad8:	2011883a 	mov	r8,r4
  805adc:	2813883a 	mov	r9,r5
  805ae0:	dc401315 	stw	r17,76(sp)
  805ae4:	d809883a 	mov	r4,sp
  805ae8:	980b883a 	mov	r5,r19
  805aec:	dc400904 	addi	r17,sp,36
  805af0:	dfc01515 	stw	ra,84(sp)
  805af4:	da400115 	stw	r9,4(sp)
  805af8:	d9c00315 	stw	r7,12(sp)
  805afc:	da000015 	stw	r8,0(sp)
  805b00:	d9800215 	stw	r6,8(sp)
  805b04:	08061f00 	call	8061f0 <__unpack_d>
  805b08:	d9000204 	addi	r4,sp,8
  805b0c:	880b883a 	mov	r5,r17
  805b10:	08061f00 	call	8061f0 <__unpack_d>
  805b14:	d9800e04 	addi	r6,sp,56
  805b18:	9809883a 	mov	r4,r19
  805b1c:	880b883a 	mov	r5,r17
  805b20:	080563c0 	call	80563c <_fpadd_parts>
  805b24:	1009883a 	mov	r4,r2
  805b28:	0805edc0 	call	805edc <__pack_d>
  805b2c:	dfc01517 	ldw	ra,84(sp)
  805b30:	dcc01417 	ldw	r19,80(sp)
  805b34:	dc401317 	ldw	r17,76(sp)
  805b38:	dec01604 	addi	sp,sp,88
  805b3c:	f800283a 	ret

00805b40 <__floatsidf>:
  805b40:	2006d7fa 	srli	r3,r4,31
  805b44:	defff604 	addi	sp,sp,-40
  805b48:	008000c4 	movi	r2,3
  805b4c:	dfc00915 	stw	ra,36(sp)
  805b50:	dcc00815 	stw	r19,32(sp)
  805b54:	dc800715 	stw	r18,28(sp)
  805b58:	dc400615 	stw	r17,24(sp)
  805b5c:	dc000515 	stw	r16,20(sp)
  805b60:	d8800015 	stw	r2,0(sp)
  805b64:	d8c00115 	stw	r3,4(sp)
  805b68:	20000f1e 	bne	r4,zero,805ba8 <__floatsidf+0x68>
  805b6c:	00800084 	movi	r2,2
  805b70:	d8800015 	stw	r2,0(sp)
  805b74:	d809883a 	mov	r4,sp
  805b78:	0805edc0 	call	805edc <__pack_d>
  805b7c:	1009883a 	mov	r4,r2
  805b80:	180b883a 	mov	r5,r3
  805b84:	2005883a 	mov	r2,r4
  805b88:	2807883a 	mov	r3,r5
  805b8c:	dfc00917 	ldw	ra,36(sp)
  805b90:	dcc00817 	ldw	r19,32(sp)
  805b94:	dc800717 	ldw	r18,28(sp)
  805b98:	dc400617 	ldw	r17,24(sp)
  805b9c:	dc000517 	ldw	r16,20(sp)
  805ba0:	dec00a04 	addi	sp,sp,40
  805ba4:	f800283a 	ret
  805ba8:	00800f04 	movi	r2,60
  805bac:	1807003a 	cmpeq	r3,r3,zero
  805bb0:	d8800215 	stw	r2,8(sp)
  805bb4:	18001126 	beq	r3,zero,805bfc <__floatsidf+0xbc>
  805bb8:	0027883a 	mov	r19,zero
  805bbc:	2025883a 	mov	r18,r4
  805bc0:	d9000315 	stw	r4,12(sp)
  805bc4:	dcc00415 	stw	r19,16(sp)
  805bc8:	0805e5c0 	call	805e5c <__clzsi2>
  805bcc:	11000744 	addi	r4,r2,29
  805bd0:	013fe80e 	bge	zero,r4,805b74 <__floatsidf+0x34>
  805bd4:	10bfff44 	addi	r2,r2,-3
  805bd8:	10000c16 	blt	r2,zero,805c0c <__floatsidf+0xcc>
  805bdc:	90a2983a 	sll	r17,r18,r2
  805be0:	0021883a 	mov	r16,zero
  805be4:	d8800217 	ldw	r2,8(sp)
  805be8:	dc400415 	stw	r17,16(sp)
  805bec:	dc000315 	stw	r16,12(sp)
  805bf0:	1105c83a 	sub	r2,r2,r4
  805bf4:	d8800215 	stw	r2,8(sp)
  805bf8:	003fde06 	br	805b74 <__floatsidf+0x34>
  805bfc:	00a00034 	movhi	r2,32768
  805c00:	20800a26 	beq	r4,r2,805c2c <__floatsidf+0xec>
  805c04:	0109c83a 	sub	r4,zero,r4
  805c08:	003feb06 	br	805bb8 <__floatsidf+0x78>
  805c0c:	9006d07a 	srli	r3,r18,1
  805c10:	008007c4 	movi	r2,31
  805c14:	1105c83a 	sub	r2,r2,r4
  805c18:	1886d83a 	srl	r3,r3,r2
  805c1c:	9922983a 	sll	r17,r19,r4
  805c20:	9120983a 	sll	r16,r18,r4
  805c24:	1c62b03a 	or	r17,r3,r17
  805c28:	003fee06 	br	805be4 <__floatsidf+0xa4>
  805c2c:	0009883a 	mov	r4,zero
  805c30:	01707834 	movhi	r5,49632
  805c34:	003fd306 	br	805b84 <__floatsidf+0x44>

00805c38 <__fixdfsi>:
  805c38:	defff804 	addi	sp,sp,-32
  805c3c:	2005883a 	mov	r2,r4
  805c40:	2807883a 	mov	r3,r5
  805c44:	d809883a 	mov	r4,sp
  805c48:	d9400204 	addi	r5,sp,8
  805c4c:	d8c00115 	stw	r3,4(sp)
  805c50:	d8800015 	stw	r2,0(sp)
  805c54:	dfc00715 	stw	ra,28(sp)
  805c58:	08061f00 	call	8061f0 <__unpack_d>
  805c5c:	d8c00217 	ldw	r3,8(sp)
  805c60:	00800084 	movi	r2,2
  805c64:	1880051e 	bne	r3,r2,805c7c <__fixdfsi+0x44>
  805c68:	0007883a 	mov	r3,zero
  805c6c:	1805883a 	mov	r2,r3
  805c70:	dfc00717 	ldw	ra,28(sp)
  805c74:	dec00804 	addi	sp,sp,32
  805c78:	f800283a 	ret
  805c7c:	00800044 	movi	r2,1
  805c80:	10fff92e 	bgeu	r2,r3,805c68 <__fixdfsi+0x30>
  805c84:	00800104 	movi	r2,4
  805c88:	18800426 	beq	r3,r2,805c9c <__fixdfsi+0x64>
  805c8c:	d8c00417 	ldw	r3,16(sp)
  805c90:	183ff516 	blt	r3,zero,805c68 <__fixdfsi+0x30>
  805c94:	00800784 	movi	r2,30
  805c98:	10c0080e 	bge	r2,r3,805cbc <__fixdfsi+0x84>
  805c9c:	d8800317 	ldw	r2,12(sp)
  805ca0:	1000121e 	bne	r2,zero,805cec <__fixdfsi+0xb4>
  805ca4:	00e00034 	movhi	r3,32768
  805ca8:	18ffffc4 	addi	r3,r3,-1
  805cac:	1805883a 	mov	r2,r3
  805cb0:	dfc00717 	ldw	ra,28(sp)
  805cb4:	dec00804 	addi	sp,sp,32
  805cb8:	f800283a 	ret
  805cbc:	00800f04 	movi	r2,60
  805cc0:	10d1c83a 	sub	r8,r2,r3
  805cc4:	40bff804 	addi	r2,r8,-32
  805cc8:	d9800517 	ldw	r6,20(sp)
  805ccc:	d9c00617 	ldw	r7,24(sp)
  805cd0:	10000816 	blt	r2,zero,805cf4 <__fixdfsi+0xbc>
  805cd4:	3888d83a 	srl	r4,r7,r2
  805cd8:	d8800317 	ldw	r2,12(sp)
  805cdc:	2007883a 	mov	r3,r4
  805ce0:	103fe226 	beq	r2,zero,805c6c <__fixdfsi+0x34>
  805ce4:	0107c83a 	sub	r3,zero,r4
  805ce8:	003fe006 	br	805c6c <__fixdfsi+0x34>
  805cec:	00e00034 	movhi	r3,32768
  805cf0:	003fde06 	br	805c6c <__fixdfsi+0x34>
  805cf4:	39c7883a 	add	r3,r7,r7
  805cf8:	008007c4 	movi	r2,31
  805cfc:	1205c83a 	sub	r2,r2,r8
  805d00:	1886983a 	sll	r3,r3,r2
  805d04:	3208d83a 	srl	r4,r6,r8
  805d08:	1908b03a 	or	r4,r3,r4
  805d0c:	003ff206 	br	805cd8 <__fixdfsi+0xa0>

00805d10 <udivmodsi4>:
  805d10:	29001b2e 	bgeu	r5,r4,805d80 <udivmodsi4+0x70>
  805d14:	28001a16 	blt	r5,zero,805d80 <udivmodsi4+0x70>
  805d18:	00800044 	movi	r2,1
  805d1c:	0007883a 	mov	r3,zero
  805d20:	01c007c4 	movi	r7,31
  805d24:	00000306 	br	805d34 <udivmodsi4+0x24>
  805d28:	19c01326 	beq	r3,r7,805d78 <udivmodsi4+0x68>
  805d2c:	18c00044 	addi	r3,r3,1
  805d30:	28000416 	blt	r5,zero,805d44 <udivmodsi4+0x34>
  805d34:	294b883a 	add	r5,r5,r5
  805d38:	1085883a 	add	r2,r2,r2
  805d3c:	293ffa36 	bltu	r5,r4,805d28 <udivmodsi4+0x18>
  805d40:	10000d26 	beq	r2,zero,805d78 <udivmodsi4+0x68>
  805d44:	0007883a 	mov	r3,zero
  805d48:	21400236 	bltu	r4,r5,805d54 <udivmodsi4+0x44>
  805d4c:	2149c83a 	sub	r4,r4,r5
  805d50:	1886b03a 	or	r3,r3,r2
  805d54:	1004d07a 	srli	r2,r2,1
  805d58:	280ad07a 	srli	r5,r5,1
  805d5c:	103ffa1e 	bne	r2,zero,805d48 <udivmodsi4+0x38>
  805d60:	30000226 	beq	r6,zero,805d6c <udivmodsi4+0x5c>
  805d64:	2005883a 	mov	r2,r4
  805d68:	f800283a 	ret
  805d6c:	1809883a 	mov	r4,r3
  805d70:	2005883a 	mov	r2,r4
  805d74:	f800283a 	ret
  805d78:	0007883a 	mov	r3,zero
  805d7c:	003ff806 	br	805d60 <udivmodsi4+0x50>
  805d80:	00800044 	movi	r2,1
  805d84:	0007883a 	mov	r3,zero
  805d88:	003fef06 	br	805d48 <udivmodsi4+0x38>

00805d8c <__divsi3>:
  805d8c:	defffe04 	addi	sp,sp,-8
  805d90:	dc000015 	stw	r16,0(sp)
  805d94:	dfc00115 	stw	ra,4(sp)
  805d98:	0021883a 	mov	r16,zero
  805d9c:	20000c16 	blt	r4,zero,805dd0 <__divsi3+0x44>
  805da0:	000d883a 	mov	r6,zero
  805da4:	28000e16 	blt	r5,zero,805de0 <__divsi3+0x54>
  805da8:	0805d100 	call	805d10 <udivmodsi4>
  805dac:	1007883a 	mov	r3,r2
  805db0:	8005003a 	cmpeq	r2,r16,zero
  805db4:	1000011e 	bne	r2,zero,805dbc <__divsi3+0x30>
  805db8:	00c7c83a 	sub	r3,zero,r3
  805dbc:	1805883a 	mov	r2,r3
  805dc0:	dfc00117 	ldw	ra,4(sp)
  805dc4:	dc000017 	ldw	r16,0(sp)
  805dc8:	dec00204 	addi	sp,sp,8
  805dcc:	f800283a 	ret
  805dd0:	0109c83a 	sub	r4,zero,r4
  805dd4:	04000044 	movi	r16,1
  805dd8:	000d883a 	mov	r6,zero
  805ddc:	283ff20e 	bge	r5,zero,805da8 <__divsi3+0x1c>
  805de0:	014bc83a 	sub	r5,zero,r5
  805de4:	8021003a 	cmpeq	r16,r16,zero
  805de8:	003fef06 	br	805da8 <__divsi3+0x1c>

00805dec <__modsi3>:
  805dec:	deffff04 	addi	sp,sp,-4
  805df0:	dfc00015 	stw	ra,0(sp)
  805df4:	01800044 	movi	r6,1
  805df8:	2807883a 	mov	r3,r5
  805dfc:	20000416 	blt	r4,zero,805e10 <__modsi3+0x24>
  805e00:	28000c16 	blt	r5,zero,805e34 <__modsi3+0x48>
  805e04:	dfc00017 	ldw	ra,0(sp)
  805e08:	dec00104 	addi	sp,sp,4
  805e0c:	0805d101 	jmpi	805d10 <udivmodsi4>
  805e10:	0109c83a 	sub	r4,zero,r4
  805e14:	28000b16 	blt	r5,zero,805e44 <__modsi3+0x58>
  805e18:	180b883a 	mov	r5,r3
  805e1c:	01800044 	movi	r6,1
  805e20:	0805d100 	call	805d10 <udivmodsi4>
  805e24:	0085c83a 	sub	r2,zero,r2
  805e28:	dfc00017 	ldw	ra,0(sp)
  805e2c:	dec00104 	addi	sp,sp,4
  805e30:	f800283a 	ret
  805e34:	014bc83a 	sub	r5,zero,r5
  805e38:	dfc00017 	ldw	ra,0(sp)
  805e3c:	dec00104 	addi	sp,sp,4
  805e40:	0805d101 	jmpi	805d10 <udivmodsi4>
  805e44:	0147c83a 	sub	r3,zero,r5
  805e48:	003ff306 	br	805e18 <__modsi3+0x2c>

00805e4c <__udivsi3>:
  805e4c:	000d883a 	mov	r6,zero
  805e50:	0805d101 	jmpi	805d10 <udivmodsi4>

00805e54 <__umodsi3>:
  805e54:	01800044 	movi	r6,1
  805e58:	0805d101 	jmpi	805d10 <udivmodsi4>

00805e5c <__clzsi2>:
  805e5c:	00bfffd4 	movui	r2,65535
  805e60:	11000e36 	bltu	r2,r4,805e9c <__clzsi2+0x40>
  805e64:	00803fc4 	movi	r2,255
  805e68:	01400204 	movi	r5,8
  805e6c:	0007883a 	mov	r3,zero
  805e70:	11001036 	bltu	r2,r4,805eb4 <__clzsi2+0x58>
  805e74:	000b883a 	mov	r5,zero
  805e78:	20c6d83a 	srl	r3,r4,r3
  805e7c:	00802074 	movhi	r2,129
  805e80:	108bfb04 	addi	r2,r2,12268
  805e84:	1887883a 	add	r3,r3,r2
  805e88:	18800003 	ldbu	r2,0(r3)
  805e8c:	00c00804 	movi	r3,32
  805e90:	2885883a 	add	r2,r5,r2
  805e94:	1885c83a 	sub	r2,r3,r2
  805e98:	f800283a 	ret
  805e9c:	01400404 	movi	r5,16
  805ea0:	00804034 	movhi	r2,256
  805ea4:	10bfffc4 	addi	r2,r2,-1
  805ea8:	2807883a 	mov	r3,r5
  805eac:	113ff22e 	bgeu	r2,r4,805e78 <__clzsi2+0x1c>
  805eb0:	01400604 	movi	r5,24
  805eb4:	2807883a 	mov	r3,r5
  805eb8:	20c6d83a 	srl	r3,r4,r3
  805ebc:	00802074 	movhi	r2,129
  805ec0:	108bfb04 	addi	r2,r2,12268
  805ec4:	1887883a 	add	r3,r3,r2
  805ec8:	18800003 	ldbu	r2,0(r3)
  805ecc:	00c00804 	movi	r3,32
  805ed0:	2885883a 	add	r2,r5,r2
  805ed4:	1885c83a 	sub	r2,r3,r2
  805ed8:	f800283a 	ret

00805edc <__pack_d>:
  805edc:	20c00017 	ldw	r3,0(r4)
  805ee0:	defffd04 	addi	sp,sp,-12
  805ee4:	dc000015 	stw	r16,0(sp)
  805ee8:	dc800215 	stw	r18,8(sp)
  805eec:	dc400115 	stw	r17,4(sp)
  805ef0:	00800044 	movi	r2,1
  805ef4:	22000317 	ldw	r8,12(r4)
  805ef8:	001f883a 	mov	r15,zero
  805efc:	22400417 	ldw	r9,16(r4)
  805f00:	24000117 	ldw	r16,4(r4)
  805f04:	10c0552e 	bgeu	r2,r3,80605c <__pack_d+0x180>
  805f08:	00800104 	movi	r2,4
  805f0c:	18804f26 	beq	r3,r2,80604c <__pack_d+0x170>
  805f10:	00800084 	movi	r2,2
  805f14:	18800226 	beq	r3,r2,805f20 <__pack_d+0x44>
  805f18:	4244b03a 	or	r2,r8,r9
  805f1c:	10001a1e 	bne	r2,zero,805f88 <__pack_d+0xac>
  805f20:	000d883a 	mov	r6,zero
  805f24:	000f883a 	mov	r7,zero
  805f28:	0011883a 	mov	r8,zero
  805f2c:	00800434 	movhi	r2,16
  805f30:	10bfffc4 	addi	r2,r2,-1
  805f34:	301d883a 	mov	r14,r6
  805f38:	3884703a 	and	r2,r7,r2
  805f3c:	400a953a 	slli	r5,r8,20
  805f40:	79bffc2c 	andhi	r6,r15,65520
  805f44:	308cb03a 	or	r6,r6,r2
  805f48:	00e00434 	movhi	r3,32784
  805f4c:	18ffffc4 	addi	r3,r3,-1
  805f50:	800497fa 	slli	r2,r16,31
  805f54:	30c6703a 	and	r3,r6,r3
  805f58:	1946b03a 	or	r3,r3,r5
  805f5c:	01600034 	movhi	r5,32768
  805f60:	297fffc4 	addi	r5,r5,-1
  805f64:	194a703a 	and	r5,r3,r5
  805f68:	288ab03a 	or	r5,r5,r2
  805f6c:	2807883a 	mov	r3,r5
  805f70:	7005883a 	mov	r2,r14
  805f74:	dc800217 	ldw	r18,8(sp)
  805f78:	dc400117 	ldw	r17,4(sp)
  805f7c:	dc000017 	ldw	r16,0(sp)
  805f80:	dec00304 	addi	sp,sp,12
  805f84:	f800283a 	ret
  805f88:	21000217 	ldw	r4,8(r4)
  805f8c:	00bf0084 	movi	r2,-1022
  805f90:	20803f16 	blt	r4,r2,806090 <__pack_d+0x1b4>
  805f94:	0080ffc4 	movi	r2,1023
  805f98:	11002c16 	blt	r2,r4,80604c <__pack_d+0x170>
  805f9c:	00803fc4 	movi	r2,255
  805fa0:	408c703a 	and	r6,r8,r2
  805fa4:	00802004 	movi	r2,128
  805fa8:	0007883a 	mov	r3,zero
  805fac:	000f883a 	mov	r7,zero
  805fb0:	2280ffc4 	addi	r10,r4,1023
  805fb4:	30801e26 	beq	r6,r2,806030 <__pack_d+0x154>
  805fb8:	00801fc4 	movi	r2,127
  805fbc:	4089883a 	add	r4,r8,r2
  805fc0:	220d803a 	cmpltu	r6,r4,r8
  805fc4:	324d883a 	add	r6,r6,r9
  805fc8:	2011883a 	mov	r8,r4
  805fcc:	3013883a 	mov	r9,r6
  805fd0:	00880034 	movhi	r2,8192
  805fd4:	10bfffc4 	addi	r2,r2,-1
  805fd8:	12400d36 	bltu	r2,r9,806010 <__pack_d+0x134>
  805fdc:	4804963a 	slli	r2,r9,24
  805fe0:	400cd23a 	srli	r6,r8,8
  805fe4:	480ed23a 	srli	r7,r9,8
  805fe8:	013fffc4 	movi	r4,-1
  805fec:	118cb03a 	or	r6,r2,r6
  805ff0:	01400434 	movhi	r5,16
  805ff4:	297fffc4 	addi	r5,r5,-1
  805ff8:	3104703a 	and	r2,r6,r4
  805ffc:	3946703a 	and	r3,r7,r5
  806000:	5201ffcc 	andi	r8,r10,2047
  806004:	100d883a 	mov	r6,r2
  806008:	180f883a 	mov	r7,r3
  80600c:	003fc706 	br	805f2c <__pack_d+0x50>
  806010:	480897fa 	slli	r4,r9,31
  806014:	4004d07a 	srli	r2,r8,1
  806018:	4806d07a 	srli	r3,r9,1
  80601c:	52800044 	addi	r10,r10,1
  806020:	2084b03a 	or	r2,r4,r2
  806024:	1011883a 	mov	r8,r2
  806028:	1813883a 	mov	r9,r3
  80602c:	003feb06 	br	805fdc <__pack_d+0x100>
  806030:	383fe11e 	bne	r7,zero,805fb8 <__pack_d+0xdc>
  806034:	01004004 	movi	r4,256
  806038:	4104703a 	and	r2,r8,r4
  80603c:	10c4b03a 	or	r2,r2,r3
  806040:	103fe326 	beq	r2,zero,805fd0 <__pack_d+0xf4>
  806044:	3005883a 	mov	r2,r6
  806048:	003fdc06 	br	805fbc <__pack_d+0xe0>
  80604c:	000d883a 	mov	r6,zero
  806050:	000f883a 	mov	r7,zero
  806054:	0201ffc4 	movi	r8,2047
  806058:	003fb406 	br	805f2c <__pack_d+0x50>
  80605c:	0005883a 	mov	r2,zero
  806060:	00c00234 	movhi	r3,8
  806064:	408cb03a 	or	r6,r8,r2
  806068:	48ceb03a 	or	r7,r9,r3
  80606c:	013fffc4 	movi	r4,-1
  806070:	01400434 	movhi	r5,16
  806074:	297fffc4 	addi	r5,r5,-1
  806078:	3104703a 	and	r2,r6,r4
  80607c:	3946703a 	and	r3,r7,r5
  806080:	100d883a 	mov	r6,r2
  806084:	180f883a 	mov	r7,r3
  806088:	0201ffc4 	movi	r8,2047
  80608c:	003fa706 	br	805f2c <__pack_d+0x50>
  806090:	1109c83a 	sub	r4,r2,r4
  806094:	00800e04 	movi	r2,56
  806098:	11004316 	blt	r2,r4,8061a8 <__pack_d+0x2cc>
  80609c:	21fff804 	addi	r7,r4,-32
  8060a0:	38004516 	blt	r7,zero,8061b8 <__pack_d+0x2dc>
  8060a4:	49d8d83a 	srl	r12,r9,r7
  8060a8:	001b883a 	mov	r13,zero
  8060ac:	0023883a 	mov	r17,zero
  8060b0:	01400044 	movi	r5,1
  8060b4:	0025883a 	mov	r18,zero
  8060b8:	38004716 	blt	r7,zero,8061d8 <__pack_d+0x2fc>
  8060bc:	29d6983a 	sll	r11,r5,r7
  8060c0:	0015883a 	mov	r10,zero
  8060c4:	00bfffc4 	movi	r2,-1
  8060c8:	5089883a 	add	r4,r10,r2
  8060cc:	588b883a 	add	r5,r11,r2
  8060d0:	228d803a 	cmpltu	r6,r4,r10
  8060d4:	314b883a 	add	r5,r6,r5
  8060d8:	4104703a 	and	r2,r8,r4
  8060dc:	4946703a 	and	r3,r9,r5
  8060e0:	10c4b03a 	or	r2,r2,r3
  8060e4:	10000226 	beq	r2,zero,8060f0 <__pack_d+0x214>
  8060e8:	04400044 	movi	r17,1
  8060ec:	0025883a 	mov	r18,zero
  8060f0:	00803fc4 	movi	r2,255
  8060f4:	644eb03a 	or	r7,r12,r17
  8060f8:	3892703a 	and	r9,r7,r2
  8060fc:	00802004 	movi	r2,128
  806100:	6c90b03a 	or	r8,r13,r18
  806104:	0015883a 	mov	r10,zero
  806108:	48801626 	beq	r9,r2,806164 <__pack_d+0x288>
  80610c:	01001fc4 	movi	r4,127
  806110:	3905883a 	add	r2,r7,r4
  806114:	11cd803a 	cmpltu	r6,r2,r7
  806118:	320d883a 	add	r6,r6,r8
  80611c:	100f883a 	mov	r7,r2
  806120:	00840034 	movhi	r2,4096
  806124:	10bfffc4 	addi	r2,r2,-1
  806128:	3011883a 	mov	r8,r6
  80612c:	0007883a 	mov	r3,zero
  806130:	11801b36 	bltu	r2,r6,8061a0 <__pack_d+0x2c4>
  806134:	4004963a 	slli	r2,r8,24
  806138:	3808d23a 	srli	r4,r7,8
  80613c:	400ad23a 	srli	r5,r8,8
  806140:	1813883a 	mov	r9,r3
  806144:	1108b03a 	or	r4,r2,r4
  806148:	00bfffc4 	movi	r2,-1
  80614c:	00c00434 	movhi	r3,16
  806150:	18ffffc4 	addi	r3,r3,-1
  806154:	208c703a 	and	r6,r4,r2
  806158:	28ce703a 	and	r7,r5,r3
  80615c:	4a01ffcc 	andi	r8,r9,2047
  806160:	003f7206 	br	805f2c <__pack_d+0x50>
  806164:	503fe91e 	bne	r10,zero,80610c <__pack_d+0x230>
  806168:	01004004 	movi	r4,256
  80616c:	3904703a 	and	r2,r7,r4
  806170:	0007883a 	mov	r3,zero
  806174:	10c4b03a 	or	r2,r2,r3
  806178:	10000626 	beq	r2,zero,806194 <__pack_d+0x2b8>
  80617c:	3a45883a 	add	r2,r7,r9
  806180:	11cd803a 	cmpltu	r6,r2,r7
  806184:	320d883a 	add	r6,r6,r8
  806188:	100f883a 	mov	r7,r2
  80618c:	3011883a 	mov	r8,r6
  806190:	0007883a 	mov	r3,zero
  806194:	00840034 	movhi	r2,4096
  806198:	10bfffc4 	addi	r2,r2,-1
  80619c:	123fe52e 	bgeu	r2,r8,806134 <__pack_d+0x258>
  8061a0:	00c00044 	movi	r3,1
  8061a4:	003fe306 	br	806134 <__pack_d+0x258>
  8061a8:	0009883a 	mov	r4,zero
  8061ac:	0013883a 	mov	r9,zero
  8061b0:	000b883a 	mov	r5,zero
  8061b4:	003fe406 	br	806148 <__pack_d+0x26c>
  8061b8:	4a47883a 	add	r3,r9,r9
  8061bc:	008007c4 	movi	r2,31
  8061c0:	1105c83a 	sub	r2,r2,r4
  8061c4:	1886983a 	sll	r3,r3,r2
  8061c8:	4118d83a 	srl	r12,r8,r4
  8061cc:	491ad83a 	srl	r13,r9,r4
  8061d0:	1b18b03a 	or	r12,r3,r12
  8061d4:	003fb506 	br	8060ac <__pack_d+0x1d0>
  8061d8:	2806d07a 	srli	r3,r5,1
  8061dc:	008007c4 	movi	r2,31
  8061e0:	1105c83a 	sub	r2,r2,r4
  8061e4:	1896d83a 	srl	r11,r3,r2
  8061e8:	2914983a 	sll	r10,r5,r4
  8061ec:	003fb506 	br	8060c4 <__pack_d+0x1e8>

008061f0 <__unpack_d>:
  8061f0:	20c00117 	ldw	r3,4(r4)
  8061f4:	22400017 	ldw	r9,0(r4)
  8061f8:	00800434 	movhi	r2,16
  8061fc:	10bfffc4 	addi	r2,r2,-1
  806200:	1808d53a 	srli	r4,r3,20
  806204:	180cd7fa 	srli	r6,r3,31
  806208:	1894703a 	and	r10,r3,r2
  80620c:	2201ffcc 	andi	r8,r4,2047
  806210:	281b883a 	mov	r13,r5
  806214:	4817883a 	mov	r11,r9
  806218:	29800115 	stw	r6,4(r5)
  80621c:	5019883a 	mov	r12,r10
  806220:	40001e1e 	bne	r8,zero,80629c <__unpack_d+0xac>
  806224:	4a84b03a 	or	r2,r9,r10
  806228:	10001926 	beq	r2,zero,806290 <__unpack_d+0xa0>
  80622c:	4804d63a 	srli	r2,r9,24
  806230:	500c923a 	slli	r6,r10,8
  806234:	013f0084 	movi	r4,-1022
  806238:	00c40034 	movhi	r3,4096
  80623c:	18ffffc4 	addi	r3,r3,-1
  806240:	118cb03a 	or	r6,r2,r6
  806244:	008000c4 	movi	r2,3
  806248:	480a923a 	slli	r5,r9,8
  80624c:	68800015 	stw	r2,0(r13)
  806250:	69000215 	stw	r4,8(r13)
  806254:	19800b36 	bltu	r3,r6,806284 <__unpack_d+0x94>
  806258:	200f883a 	mov	r7,r4
  80625c:	1811883a 	mov	r8,r3
  806260:	2945883a 	add	r2,r5,r5
  806264:	1149803a 	cmpltu	r4,r2,r5
  806268:	3187883a 	add	r3,r6,r6
  80626c:	20c9883a 	add	r4,r4,r3
  806270:	100b883a 	mov	r5,r2
  806274:	200d883a 	mov	r6,r4
  806278:	39ffffc4 	addi	r7,r7,-1
  80627c:	413ff82e 	bgeu	r8,r4,806260 <__unpack_d+0x70>
  806280:	69c00215 	stw	r7,8(r13)
  806284:	69800415 	stw	r6,16(r13)
  806288:	69400315 	stw	r5,12(r13)
  80628c:	f800283a 	ret
  806290:	00800084 	movi	r2,2
  806294:	28800015 	stw	r2,0(r5)
  806298:	f800283a 	ret
  80629c:	0081ffc4 	movi	r2,2047
  8062a0:	40800f26 	beq	r8,r2,8062e0 <__unpack_d+0xf0>
  8062a4:	480cd63a 	srli	r6,r9,24
  8062a8:	5006923a 	slli	r3,r10,8
  8062ac:	4804923a 	slli	r2,r9,8
  8062b0:	0009883a 	mov	r4,zero
  8062b4:	30c6b03a 	or	r3,r6,r3
  8062b8:	01440034 	movhi	r5,4096
  8062bc:	110cb03a 	or	r6,r2,r4
  8062c0:	423f0044 	addi	r8,r8,-1023
  8062c4:	194eb03a 	or	r7,r3,r5
  8062c8:	008000c4 	movi	r2,3
  8062cc:	69c00415 	stw	r7,16(r13)
  8062d0:	6a000215 	stw	r8,8(r13)
  8062d4:	68800015 	stw	r2,0(r13)
  8062d8:	69800315 	stw	r6,12(r13)
  8062dc:	f800283a 	ret
  8062e0:	4a84b03a 	or	r2,r9,r10
  8062e4:	1000031e 	bne	r2,zero,8062f4 <__unpack_d+0x104>
  8062e8:	00800104 	movi	r2,4
  8062ec:	28800015 	stw	r2,0(r5)
  8062f0:	f800283a 	ret
  8062f4:	0009883a 	mov	r4,zero
  8062f8:	01400234 	movhi	r5,8
  8062fc:	4904703a 	and	r2,r9,r4
  806300:	5146703a 	and	r3,r10,r5
  806304:	10c4b03a 	or	r2,r2,r3
  806308:	10000526 	beq	r2,zero,806320 <__unpack_d+0x130>
  80630c:	00800044 	movi	r2,1
  806310:	68800015 	stw	r2,0(r13)
  806314:	6b000415 	stw	r12,16(r13)
  806318:	6ac00315 	stw	r11,12(r13)
  80631c:	f800283a 	ret
  806320:	68000015 	stw	zero,0(r13)
  806324:	003ffb06 	br	806314 <__unpack_d+0x124>

00806328 <_atoi_r>:
  806328:	000d883a 	mov	r6,zero
  80632c:	01c00284 	movi	r7,10
  806330:	08065a41 	jmpi	8065a4 <_strtol_r>

00806334 <atoi>:
  806334:	000b883a 	mov	r5,zero
  806338:	01800284 	movi	r6,10
  80633c:	08067f41 	jmpi	8067f4 <strtol>

00806340 <memcpy>:
  806340:	01c003c4 	movi	r7,15
  806344:	2007883a 	mov	r3,r4
  806348:	3980032e 	bgeu	r7,r6,806358 <memcpy+0x18>
  80634c:	2904b03a 	or	r2,r5,r4
  806350:	108000cc 	andi	r2,r2,3
  806354:	10000926 	beq	r2,zero,80637c <memcpy+0x3c>
  806358:	30000626 	beq	r6,zero,806374 <memcpy+0x34>
  80635c:	30cd883a 	add	r6,r6,r3
  806360:	28800003 	ldbu	r2,0(r5)
  806364:	29400044 	addi	r5,r5,1
  806368:	18800005 	stb	r2,0(r3)
  80636c:	18c00044 	addi	r3,r3,1
  806370:	30fffb1e 	bne	r6,r3,806360 <memcpy+0x20>
  806374:	2005883a 	mov	r2,r4
  806378:	f800283a 	ret
  80637c:	3811883a 	mov	r8,r7
  806380:	200f883a 	mov	r7,r4
  806384:	28c00017 	ldw	r3,0(r5)
  806388:	31bffc04 	addi	r6,r6,-16
  80638c:	38c00015 	stw	r3,0(r7)
  806390:	28800117 	ldw	r2,4(r5)
  806394:	38800115 	stw	r2,4(r7)
  806398:	28c00217 	ldw	r3,8(r5)
  80639c:	38c00215 	stw	r3,8(r7)
  8063a0:	28800317 	ldw	r2,12(r5)
  8063a4:	29400404 	addi	r5,r5,16
  8063a8:	38800315 	stw	r2,12(r7)
  8063ac:	39c00404 	addi	r7,r7,16
  8063b0:	41bff436 	bltu	r8,r6,806384 <memcpy+0x44>
  8063b4:	008000c4 	movi	r2,3
  8063b8:	1180072e 	bgeu	r2,r6,8063d8 <memcpy+0x98>
  8063bc:	1007883a 	mov	r3,r2
  8063c0:	28800017 	ldw	r2,0(r5)
  8063c4:	31bfff04 	addi	r6,r6,-4
  8063c8:	29400104 	addi	r5,r5,4
  8063cc:	38800015 	stw	r2,0(r7)
  8063d0:	39c00104 	addi	r7,r7,4
  8063d4:	19bffa36 	bltu	r3,r6,8063c0 <memcpy+0x80>
  8063d8:	3807883a 	mov	r3,r7
  8063dc:	003fde06 	br	806358 <memcpy+0x18>

008063e0 <printf>:
  8063e0:	defffb04 	addi	sp,sp,-20
  8063e4:	dfc00115 	stw	ra,4(sp)
  8063e8:	d9400215 	stw	r5,8(sp)
  8063ec:	d9800315 	stw	r6,12(sp)
  8063f0:	d9c00415 	stw	r7,16(sp)
  8063f4:	00802074 	movhi	r2,129
  8063f8:	1094d404 	addi	r2,r2,21328
  8063fc:	10c00017 	ldw	r3,0(r2)
  806400:	200b883a 	mov	r5,r4
  806404:	d8800204 	addi	r2,sp,8
  806408:	19000217 	ldw	r4,8(r3)
  80640c:	100d883a 	mov	r6,r2
  806410:	d8800015 	stw	r2,0(sp)
  806414:	08087340 	call	808734 <__vfprintf_internal>
  806418:	dfc00117 	ldw	ra,4(sp)
  80641c:	dec00504 	addi	sp,sp,20
  806420:	f800283a 	ret

00806424 <_printf_r>:
  806424:	defffc04 	addi	sp,sp,-16
  806428:	dfc00115 	stw	ra,4(sp)
  80642c:	d9800215 	stw	r6,8(sp)
  806430:	d9c00315 	stw	r7,12(sp)
  806434:	280d883a 	mov	r6,r5
  806438:	21400217 	ldw	r5,8(r4)
  80643c:	d8c00204 	addi	r3,sp,8
  806440:	180f883a 	mov	r7,r3
  806444:	d8c00015 	stw	r3,0(sp)
  806448:	08068700 	call	806870 <___vfprintf_internal_r>
  80644c:	dfc00117 	ldw	ra,4(sp)
  806450:	dec00404 	addi	sp,sp,16
  806454:	f800283a 	ret

00806458 <putchar>:
  806458:	00802074 	movhi	r2,129
  80645c:	1094d404 	addi	r2,r2,21328
  806460:	11800017 	ldw	r6,0(r2)
  806464:	200b883a 	mov	r5,r4
  806468:	3009883a 	mov	r4,r6
  80646c:	31800217 	ldw	r6,8(r6)
  806470:	080cd901 	jmpi	80cd90 <_putc_r>

00806474 <_putchar_r>:
  806474:	21800217 	ldw	r6,8(r4)
  806478:	080cd901 	jmpi	80cd90 <_putc_r>

0080647c <_puts_r>:
  80647c:	defff604 	addi	sp,sp,-40
  806480:	dc400715 	stw	r17,28(sp)
  806484:	2023883a 	mov	r17,r4
  806488:	2809883a 	mov	r4,r5
  80648c:	dfc00915 	stw	ra,36(sp)
  806490:	dcc00815 	stw	r19,32(sp)
  806494:	2827883a 	mov	r19,r5
  806498:	08065300 	call	806530 <strlen>
  80649c:	89400217 	ldw	r5,8(r17)
  8064a0:	00c02074 	movhi	r3,129
  8064a4:	18cc3b04 	addi	r3,r3,12524
  8064a8:	01c00044 	movi	r7,1
  8064ac:	12000044 	addi	r8,r2,1
  8064b0:	d8c00515 	stw	r3,20(sp)
  8064b4:	d9c00615 	stw	r7,24(sp)
  8064b8:	d8c00304 	addi	r3,sp,12
  8064bc:	01c00084 	movi	r7,2
  8064c0:	8809883a 	mov	r4,r17
  8064c4:	d80d883a 	mov	r6,sp
  8064c8:	d8c00015 	stw	r3,0(sp)
  8064cc:	dcc00315 	stw	r19,12(sp)
  8064d0:	da000215 	stw	r8,8(sp)
  8064d4:	d9c00115 	stw	r7,4(sp)
  8064d8:	d8800415 	stw	r2,16(sp)
  8064dc:	080a9f00 	call	80a9f0 <__sfvwrite_r>
  8064e0:	00ffffc4 	movi	r3,-1
  8064e4:	10000626 	beq	r2,zero,806500 <_puts_r+0x84>
  8064e8:	1805883a 	mov	r2,r3
  8064ec:	dfc00917 	ldw	ra,36(sp)
  8064f0:	dcc00817 	ldw	r19,32(sp)
  8064f4:	dc400717 	ldw	r17,28(sp)
  8064f8:	dec00a04 	addi	sp,sp,40
  8064fc:	f800283a 	ret
  806500:	00c00284 	movi	r3,10
  806504:	1805883a 	mov	r2,r3
  806508:	dfc00917 	ldw	ra,36(sp)
  80650c:	dcc00817 	ldw	r19,32(sp)
  806510:	dc400717 	ldw	r17,28(sp)
  806514:	dec00a04 	addi	sp,sp,40
  806518:	f800283a 	ret

0080651c <puts>:
  80651c:	00802074 	movhi	r2,129
  806520:	1094d404 	addi	r2,r2,21328
  806524:	200b883a 	mov	r5,r4
  806528:	11000017 	ldw	r4,0(r2)
  80652c:	080647c1 	jmpi	80647c <_puts_r>

00806530 <strlen>:
  806530:	208000cc 	andi	r2,r4,3
  806534:	2011883a 	mov	r8,r4
  806538:	1000161e 	bne	r2,zero,806594 <strlen+0x64>
  80653c:	20c00017 	ldw	r3,0(r4)
  806540:	017fbff4 	movhi	r5,65279
  806544:	297fbfc4 	addi	r5,r5,-257
  806548:	01e02074 	movhi	r7,32897
  80654c:	39e02004 	addi	r7,r7,-32640
  806550:	1945883a 	add	r2,r3,r5
  806554:	11c4703a 	and	r2,r2,r7
  806558:	00c6303a 	nor	r3,zero,r3
  80655c:	1886703a 	and	r3,r3,r2
  806560:	18000c1e 	bne	r3,zero,806594 <strlen+0x64>
  806564:	280d883a 	mov	r6,r5
  806568:	380b883a 	mov	r5,r7
  80656c:	21000104 	addi	r4,r4,4
  806570:	20800017 	ldw	r2,0(r4)
  806574:	1187883a 	add	r3,r2,r6
  806578:	1946703a 	and	r3,r3,r5
  80657c:	0084303a 	nor	r2,zero,r2
  806580:	10c4703a 	and	r2,r2,r3
  806584:	103ff926 	beq	r2,zero,80656c <strlen+0x3c>
  806588:	20800007 	ldb	r2,0(r4)
  80658c:	10000326 	beq	r2,zero,80659c <strlen+0x6c>
  806590:	21000044 	addi	r4,r4,1
  806594:	20800007 	ldb	r2,0(r4)
  806598:	103ffd1e 	bne	r2,zero,806590 <strlen+0x60>
  80659c:	2205c83a 	sub	r2,r4,r8
  8065a0:	f800283a 	ret

008065a4 <_strtol_r>:
  8065a4:	defff304 	addi	sp,sp,-52
  8065a8:	00802074 	movhi	r2,129
  8065ac:	1094d304 	addi	r2,r2,21324
  8065b0:	dd000715 	stw	r20,28(sp)
  8065b4:	15000017 	ldw	r20,0(r2)
  8065b8:	ddc00a15 	stw	r23,40(sp)
  8065bc:	dc800515 	stw	r18,20(sp)
  8065c0:	dc400415 	stw	r17,16(sp)
  8065c4:	dfc00c15 	stw	ra,48(sp)
  8065c8:	df000b15 	stw	fp,44(sp)
  8065cc:	dd800915 	stw	r22,36(sp)
  8065d0:	dd400815 	stw	r21,32(sp)
  8065d4:	dcc00615 	stw	r19,24(sp)
  8065d8:	dc000315 	stw	r16,12(sp)
  8065dc:	282f883a 	mov	r23,r5
  8065e0:	d9000115 	stw	r4,4(sp)
  8065e4:	d9800215 	stw	r6,8(sp)
  8065e8:	3825883a 	mov	r18,r7
  8065ec:	2823883a 	mov	r17,r5
  8065f0:	8c000007 	ldb	r16,0(r17)
  8065f4:	8c400044 	addi	r17,r17,1
  8065f8:	a407883a 	add	r3,r20,r16
  8065fc:	18800003 	ldbu	r2,0(r3)
  806600:	1080020c 	andi	r2,r2,8
  806604:	103ffa1e 	bne	r2,zero,8065f0 <_strtol_r+0x4c>
  806608:	00800b44 	movi	r2,45
  80660c:	80805c26 	beq	r16,r2,806780 <_strtol_r+0x1dc>
  806610:	00800ac4 	movi	r2,43
  806614:	80805726 	beq	r16,r2,806774 <_strtol_r+0x1d0>
  806618:	d8000015 	stw	zero,0(sp)
  80661c:	9007003a 	cmpeq	r3,r18,zero
  806620:	1800431e 	bne	r3,zero,806730 <_strtol_r+0x18c>
  806624:	00800404 	movi	r2,16
  806628:	90804126 	beq	r18,r2,806730 <_strtol_r+0x18c>
  80662c:	902b883a 	mov	r21,r18
  806630:	d8c00017 	ldw	r3,0(sp)
  806634:	1838c03a 	cmpne	fp,r3,zero
  806638:	e0004a1e 	bne	fp,zero,806764 <_strtol_r+0x1c0>
  80663c:	04e00034 	movhi	r19,32768
  806640:	9cffffc4 	addi	r19,r19,-1
  806644:	9809883a 	mov	r4,r19
  806648:	a80b883a 	mov	r5,r21
  80664c:	0805e540 	call	805e54 <__umodsi3>
  806650:	9809883a 	mov	r4,r19
  806654:	a80b883a 	mov	r5,r21
  806658:	102d883a 	mov	r22,r2
  80665c:	0805e4c0 	call	805e4c <__udivsi3>
  806660:	1027883a 	mov	r19,r2
  806664:	a405883a 	add	r2,r20,r16
  806668:	11400003 	ldbu	r5,0(r2)
  80666c:	0009883a 	mov	r4,zero
  806670:	000d883a 	mov	r6,zero
  806674:	28c0010c 	andi	r3,r5,4
  806678:	18000f26 	beq	r3,zero,8066b8 <_strtol_r+0x114>
  80667c:	843ff404 	addi	r16,r16,-48
  806680:	8480150e 	bge	r16,r18,8066d8 <_strtol_r+0x134>
  806684:	30003216 	blt	r6,zero,806750 <_strtol_r+0x1ac>
  806688:	99003136 	bltu	r19,r4,806750 <_strtol_r+0x1ac>
  80668c:	24c02f26 	beq	r4,r19,80674c <_strtol_r+0x1a8>
  806690:	a80b883a 	mov	r5,r21
  806694:	080f46c0 	call	80f46c <__mulsi3>
  806698:	1409883a 	add	r4,r2,r16
  80669c:	01800044 	movi	r6,1
  8066a0:	8c000007 	ldb	r16,0(r17)
  8066a4:	8c400044 	addi	r17,r17,1
  8066a8:	a405883a 	add	r2,r20,r16
  8066ac:	11400003 	ldbu	r5,0(r2)
  8066b0:	28c0010c 	andi	r3,r5,4
  8066b4:	183ff11e 	bne	r3,zero,80667c <_strtol_r+0xd8>
  8066b8:	288000cc 	andi	r2,r5,3
  8066bc:	10000626 	beq	r2,zero,8066d8 <_strtol_r+0x134>
  8066c0:	2880004c 	andi	r2,r5,1
  8066c4:	1005003a 	cmpeq	r2,r2,zero
  8066c8:	1000231e 	bne	r2,zero,806758 <_strtol_r+0x1b4>
  8066cc:	00800dc4 	movi	r2,55
  8066d0:	80a1c83a 	sub	r16,r16,r2
  8066d4:	84bfeb16 	blt	r16,r18,806684 <_strtol_r+0xe0>
  8066d8:	30002e16 	blt	r6,zero,806794 <_strtol_r+0x1f0>
  8066dc:	e000231e 	bne	fp,zero,80676c <_strtol_r+0x1c8>
  8066e0:	2007883a 	mov	r3,r4
  8066e4:	d8800217 	ldw	r2,8(sp)
  8066e8:	10000426 	beq	r2,zero,8066fc <_strtol_r+0x158>
  8066ec:	30000126 	beq	r6,zero,8066f4 <_strtol_r+0x150>
  8066f0:	8dffffc4 	addi	r23,r17,-1
  8066f4:	d9000217 	ldw	r4,8(sp)
  8066f8:	25c00015 	stw	r23,0(r4)
  8066fc:	1805883a 	mov	r2,r3
  806700:	dfc00c17 	ldw	ra,48(sp)
  806704:	df000b17 	ldw	fp,44(sp)
  806708:	ddc00a17 	ldw	r23,40(sp)
  80670c:	dd800917 	ldw	r22,36(sp)
  806710:	dd400817 	ldw	r21,32(sp)
  806714:	dd000717 	ldw	r20,28(sp)
  806718:	dcc00617 	ldw	r19,24(sp)
  80671c:	dc800517 	ldw	r18,20(sp)
  806720:	dc400417 	ldw	r17,16(sp)
  806724:	dc000317 	ldw	r16,12(sp)
  806728:	dec00d04 	addi	sp,sp,52
  80672c:	f800283a 	ret
  806730:	00800c04 	movi	r2,48
  806734:	80801f26 	beq	r16,r2,8067b4 <_strtol_r+0x210>
  806738:	183fbc26 	beq	r3,zero,80662c <_strtol_r+0x88>
  80673c:	00800c04 	movi	r2,48
  806740:	80802926 	beq	r16,r2,8067e8 <_strtol_r+0x244>
  806744:	04800284 	movi	r18,10
  806748:	003fb806 	br	80662c <_strtol_r+0x88>
  80674c:	b43fd00e 	bge	r22,r16,806690 <_strtol_r+0xec>
  806750:	01bfffc4 	movi	r6,-1
  806754:	003fd206 	br	8066a0 <_strtol_r+0xfc>
  806758:	008015c4 	movi	r2,87
  80675c:	80a1c83a 	sub	r16,r16,r2
  806760:	003fdc06 	br	8066d4 <_strtol_r+0x130>
  806764:	04e00034 	movhi	r19,32768
  806768:	003fb606 	br	806644 <_strtol_r+0xa0>
  80676c:	0107c83a 	sub	r3,zero,r4
  806770:	003fdc06 	br	8066e4 <_strtol_r+0x140>
  806774:	8c000007 	ldb	r16,0(r17)
  806778:	8c400044 	addi	r17,r17,1
  80677c:	003fa606 	br	806618 <_strtol_r+0x74>
  806780:	8c000007 	ldb	r16,0(r17)
  806784:	00800044 	movi	r2,1
  806788:	8c400044 	addi	r17,r17,1
  80678c:	d8800015 	stw	r2,0(sp)
  806790:	003fa206 	br	80661c <_strtol_r+0x78>
  806794:	d9000017 	ldw	r4,0(sp)
  806798:	2005003a 	cmpeq	r2,r4,zero
  80679c:	10000f1e 	bne	r2,zero,8067dc <_strtol_r+0x238>
  8067a0:	00e00034 	movhi	r3,32768
  8067a4:	d9000117 	ldw	r4,4(sp)
  8067a8:	00800884 	movi	r2,34
  8067ac:	20800015 	stw	r2,0(r4)
  8067b0:	003fcc06 	br	8066e4 <_strtol_r+0x140>
  8067b4:	89000007 	ldb	r4,0(r17)
  8067b8:	00801e04 	movi	r2,120
  8067bc:	20800226 	beq	r4,r2,8067c8 <_strtol_r+0x224>
  8067c0:	00801604 	movi	r2,88
  8067c4:	20bfdc1e 	bne	r4,r2,806738 <_strtol_r+0x194>
  8067c8:	8c000047 	ldb	r16,1(r17)
  8067cc:	04800404 	movi	r18,16
  8067d0:	8c400084 	addi	r17,r17,2
  8067d4:	902b883a 	mov	r21,r18
  8067d8:	003f9506 	br	806630 <_strtol_r+0x8c>
  8067dc:	00e00034 	movhi	r3,32768
  8067e0:	18ffffc4 	addi	r3,r3,-1
  8067e4:	003fef06 	br	8067a4 <_strtol_r+0x200>
  8067e8:	04800204 	movi	r18,8
  8067ec:	902b883a 	mov	r21,r18
  8067f0:	003f8f06 	br	806630 <_strtol_r+0x8c>

008067f4 <strtol>:
  8067f4:	00802074 	movhi	r2,129
  8067f8:	1094d404 	addi	r2,r2,21328
  8067fc:	2013883a 	mov	r9,r4
  806800:	11000017 	ldw	r4,0(r2)
  806804:	2805883a 	mov	r2,r5
  806808:	300f883a 	mov	r7,r6
  80680c:	480b883a 	mov	r5,r9
  806810:	100d883a 	mov	r6,r2
  806814:	08065a41 	jmpi	8065a4 <_strtol_r>

00806818 <__sprint_r>:
  806818:	30800217 	ldw	r2,8(r6)
  80681c:	defffe04 	addi	sp,sp,-8
  806820:	dc000015 	stw	r16,0(sp)
  806824:	dfc00115 	stw	ra,4(sp)
  806828:	3021883a 	mov	r16,r6
  80682c:	0007883a 	mov	r3,zero
  806830:	1000061e 	bne	r2,zero,80684c <__sprint_r+0x34>
  806834:	1805883a 	mov	r2,r3
  806838:	30000115 	stw	zero,4(r6)
  80683c:	dfc00117 	ldw	ra,4(sp)
  806840:	dc000017 	ldw	r16,0(sp)
  806844:	dec00204 	addi	sp,sp,8
  806848:	f800283a 	ret
  80684c:	080a9f00 	call	80a9f0 <__sfvwrite_r>
  806850:	1007883a 	mov	r3,r2
  806854:	1805883a 	mov	r2,r3
  806858:	80000115 	stw	zero,4(r16)
  80685c:	80000215 	stw	zero,8(r16)
  806860:	dfc00117 	ldw	ra,4(sp)
  806864:	dc000017 	ldw	r16,0(sp)
  806868:	dec00204 	addi	sp,sp,8
  80686c:	f800283a 	ret

00806870 <___vfprintf_internal_r>:
  806870:	defea404 	addi	sp,sp,-1392
  806874:	dd815815 	stw	r22,1376(sp)
  806878:	dc015215 	stw	r16,1352(sp)
  80687c:	d9c15115 	stw	r7,1348(sp)
  806880:	dfc15b15 	stw	ra,1388(sp)
  806884:	df015a15 	stw	fp,1384(sp)
  806888:	ddc15915 	stw	r23,1380(sp)
  80688c:	dd415715 	stw	r21,1372(sp)
  806890:	dd015615 	stw	r20,1368(sp)
  806894:	dcc15515 	stw	r19,1364(sp)
  806898:	dc815415 	stw	r18,1360(sp)
  80689c:	dc415315 	stw	r17,1356(sp)
  8068a0:	282d883a 	mov	r22,r5
  8068a4:	3021883a 	mov	r16,r6
  8068a8:	d9014f15 	stw	r4,1340(sp)
  8068ac:	080b0140 	call	80b014 <_localeconv_r>
  8068b0:	10800017 	ldw	r2,0(r2)
  8068b4:	d9c15117 	ldw	r7,1348(sp)
  8068b8:	d8814915 	stw	r2,1316(sp)
  8068bc:	d8814f17 	ldw	r2,1340(sp)
  8068c0:	10000226 	beq	r2,zero,8068cc <___vfprintf_internal_r+0x5c>
  8068c4:	10800e17 	ldw	r2,56(r2)
  8068c8:	10020d26 	beq	r2,zero,807100 <___vfprintf_internal_r+0x890>
  8068cc:	b080030b 	ldhu	r2,12(r22)
  8068d0:	1080020c 	andi	r2,r2,8
  8068d4:	10020e26 	beq	r2,zero,807110 <___vfprintf_internal_r+0x8a0>
  8068d8:	b0800417 	ldw	r2,16(r22)
  8068dc:	10020c26 	beq	r2,zero,807110 <___vfprintf_internal_r+0x8a0>
  8068e0:	b200030b 	ldhu	r8,12(r22)
  8068e4:	00800284 	movi	r2,10
  8068e8:	40c0068c 	andi	r3,r8,26
  8068ec:	18802f1e 	bne	r3,r2,8069ac <___vfprintf_internal_r+0x13c>
  8068f0:	b080038f 	ldh	r2,14(r22)
  8068f4:	10002d16 	blt	r2,zero,8069ac <___vfprintf_internal_r+0x13c>
  8068f8:	b240038b 	ldhu	r9,14(r22)
  8068fc:	b2800717 	ldw	r10,28(r22)
  806900:	b2c00917 	ldw	r11,36(r22)
  806904:	d9014f17 	ldw	r4,1340(sp)
  806908:	dc402904 	addi	r17,sp,164
  80690c:	d8804004 	addi	r2,sp,256
  806910:	00c10004 	movi	r3,1024
  806914:	423fff4c 	andi	r8,r8,65533
  806918:	800d883a 	mov	r6,r16
  80691c:	880b883a 	mov	r5,r17
  806920:	da002c0d 	sth	r8,176(sp)
  806924:	da402c8d 	sth	r9,178(sp)
  806928:	da803015 	stw	r10,192(sp)
  80692c:	dac03215 	stw	r11,200(sp)
  806930:	d8802d15 	stw	r2,180(sp)
  806934:	d8c02e15 	stw	r3,184(sp)
  806938:	d8802915 	stw	r2,164(sp)
  80693c:	d8c02b15 	stw	r3,172(sp)
  806940:	d8002f15 	stw	zero,188(sp)
  806944:	08068700 	call	806870 <___vfprintf_internal_r>
  806948:	d8814b15 	stw	r2,1324(sp)
  80694c:	10000416 	blt	r2,zero,806960 <___vfprintf_internal_r+0xf0>
  806950:	d9014f17 	ldw	r4,1340(sp)
  806954:	880b883a 	mov	r5,r17
  806958:	080a08c0 	call	80a08c <_fflush_r>
  80695c:	1002321e 	bne	r2,zero,807228 <___vfprintf_internal_r+0x9b8>
  806960:	d8802c0b 	ldhu	r2,176(sp)
  806964:	1080100c 	andi	r2,r2,64
  806968:	10000326 	beq	r2,zero,806978 <___vfprintf_internal_r+0x108>
  80696c:	b080030b 	ldhu	r2,12(r22)
  806970:	10801014 	ori	r2,r2,64
  806974:	b080030d 	sth	r2,12(r22)
  806978:	d8814b17 	ldw	r2,1324(sp)
  80697c:	dfc15b17 	ldw	ra,1388(sp)
  806980:	df015a17 	ldw	fp,1384(sp)
  806984:	ddc15917 	ldw	r23,1380(sp)
  806988:	dd815817 	ldw	r22,1376(sp)
  80698c:	dd415717 	ldw	r21,1372(sp)
  806990:	dd015617 	ldw	r20,1368(sp)
  806994:	dcc15517 	ldw	r19,1364(sp)
  806998:	dc815417 	ldw	r18,1360(sp)
  80699c:	dc415317 	ldw	r17,1356(sp)
  8069a0:	dc015217 	ldw	r16,1352(sp)
  8069a4:	dec15c04 	addi	sp,sp,1392
  8069a8:	f800283a 	ret
  8069ac:	0005883a 	mov	r2,zero
  8069b0:	0007883a 	mov	r3,zero
  8069b4:	dd401904 	addi	r21,sp,100
  8069b8:	d8814215 	stw	r2,1288(sp)
  8069bc:	802f883a 	mov	r23,r16
  8069c0:	d8c14315 	stw	r3,1292(sp)
  8069c4:	d8014b15 	stw	zero,1324(sp)
  8069c8:	d8014815 	stw	zero,1312(sp)
  8069cc:	d8014415 	stw	zero,1296(sp)
  8069d0:	d8014715 	stw	zero,1308(sp)
  8069d4:	dd400c15 	stw	r21,48(sp)
  8069d8:	d8000e15 	stw	zero,56(sp)
  8069dc:	d8000d15 	stw	zero,52(sp)
  8069e0:	b8800007 	ldb	r2,0(r23)
  8069e4:	10001926 	beq	r2,zero,806a4c <___vfprintf_internal_r+0x1dc>
  8069e8:	00c00944 	movi	r3,37
  8069ec:	10c01726 	beq	r2,r3,806a4c <___vfprintf_internal_r+0x1dc>
  8069f0:	b821883a 	mov	r16,r23
  8069f4:	00000106 	br	8069fc <___vfprintf_internal_r+0x18c>
  8069f8:	10c00326 	beq	r2,r3,806a08 <___vfprintf_internal_r+0x198>
  8069fc:	84000044 	addi	r16,r16,1
  806a00:	80800007 	ldb	r2,0(r16)
  806a04:	103ffc1e 	bne	r2,zero,8069f8 <___vfprintf_internal_r+0x188>
  806a08:	85e7c83a 	sub	r19,r16,r23
  806a0c:	98000e26 	beq	r19,zero,806a48 <___vfprintf_internal_r+0x1d8>
  806a10:	dc800e17 	ldw	r18,56(sp)
  806a14:	dc400d17 	ldw	r17,52(sp)
  806a18:	008001c4 	movi	r2,7
  806a1c:	94e5883a 	add	r18,r18,r19
  806a20:	8c400044 	addi	r17,r17,1
  806a24:	adc00015 	stw	r23,0(r21)
  806a28:	dc800e15 	stw	r18,56(sp)
  806a2c:	acc00115 	stw	r19,4(r21)
  806a30:	dc400d15 	stw	r17,52(sp)
  806a34:	14428b16 	blt	r2,r17,807464 <___vfprintf_internal_r+0xbf4>
  806a38:	ad400204 	addi	r21,r21,8
  806a3c:	d9014b17 	ldw	r4,1324(sp)
  806a40:	24c9883a 	add	r4,r4,r19
  806a44:	d9014b15 	stw	r4,1324(sp)
  806a48:	802f883a 	mov	r23,r16
  806a4c:	b8800007 	ldb	r2,0(r23)
  806a50:	10013c26 	beq	r2,zero,806f44 <___vfprintf_internal_r+0x6d4>
  806a54:	bdc00044 	addi	r23,r23,1
  806a58:	d8000405 	stb	zero,16(sp)
  806a5c:	b8c00007 	ldb	r3,0(r23)
  806a60:	04ffffc4 	movi	r19,-1
  806a64:	d8014c15 	stw	zero,1328(sp)
  806a68:	d8014a15 	stw	zero,1320(sp)
  806a6c:	d8c14d15 	stw	r3,1332(sp)
  806a70:	bdc00044 	addi	r23,r23,1
  806a74:	d9414d17 	ldw	r5,1332(sp)
  806a78:	00801604 	movi	r2,88
  806a7c:	28fff804 	addi	r3,r5,-32
  806a80:	10c06036 	bltu	r2,r3,806c04 <___vfprintf_internal_r+0x394>
  806a84:	18c5883a 	add	r2,r3,r3
  806a88:	1085883a 	add	r2,r2,r2
  806a8c:	00c02034 	movhi	r3,128
  806a90:	18daa804 	addi	r3,r3,27296
  806a94:	10c5883a 	add	r2,r2,r3
  806a98:	11000017 	ldw	r4,0(r2)
  806a9c:	2000683a 	jmp	r4
  806aa0:	00807a14 	movui	r2,488
  806aa4:	00806c04 	movi	r2,432
  806aa8:	00806c04 	movi	r2,432
  806aac:	00807a00 	call	807a0 <__alt_mem_sdram_0-0x77f860>
  806ab0:	00806c04 	movi	r2,432
  806ab4:	00806c04 	movi	r2,432
  806ab8:	00806c04 	movi	r2,432
  806abc:	00806c04 	movi	r2,432
  806ac0:	00806c04 	movi	r2,432
  806ac4:	00806c04 	movi	r2,432
  806ac8:	008077e0 	cmpeqi	r2,zero,479
  806acc:	008079f0 	cmpltui	r2,zero,487
  806ad0:	00806c04 	movi	r2,432
  806ad4:	008077f8 	rdprs	r2,zero,479
  806ad8:	00807a98 	cmpnei	r2,zero,490
  806adc:	00806c04 	movi	r2,432
  806ae0:	00807a84 	movi	r2,490
  806ae4:	00807a40 	call	807a4 <__alt_mem_sdram_0-0x77f85c>
  806ae8:	00807a40 	call	807a4 <__alt_mem_sdram_0-0x77f85c>
  806aec:	00807a40 	call	807a4 <__alt_mem_sdram_0-0x77f85c>
  806af0:	00807a40 	call	807a4 <__alt_mem_sdram_0-0x77f85c>
  806af4:	00807a40 	call	807a4 <__alt_mem_sdram_0-0x77f85c>
  806af8:	00807a40 	call	807a4 <__alt_mem_sdram_0-0x77f85c>
  806afc:	00807a40 	call	807a4 <__alt_mem_sdram_0-0x77f85c>
  806b00:	00807a40 	call	807a4 <__alt_mem_sdram_0-0x77f85c>
  806b04:	00807a40 	call	807a4 <__alt_mem_sdram_0-0x77f85c>
  806b08:	00806c04 	movi	r2,432
  806b0c:	00806c04 	movi	r2,432
  806b10:	00806c04 	movi	r2,432
  806b14:	00806c04 	movi	r2,432
  806b18:	00806c04 	movi	r2,432
  806b1c:	00806c04 	movi	r2,432
  806b20:	00806c04 	movi	r2,432
  806b24:	00806c04 	movi	r2,432
  806b28:	00806c04 	movi	r2,432
  806b2c:	00806c04 	movi	r2,432
  806b30:	0080725c 	xori	r2,zero,457
  806b34:	008078c8 	cmpgei	r2,zero,483
  806b38:	00806c04 	movi	r2,432
  806b3c:	008078c8 	cmpgei	r2,zero,483
  806b40:	00806c04 	movi	r2,432
  806b44:	00806c04 	movi	r2,432
  806b48:	00806c04 	movi	r2,432
  806b4c:	00806c04 	movi	r2,432
  806b50:	00807a2c 	andhi	r2,zero,488
  806b54:	00806c04 	movi	r2,432
  806b58:	00806c04 	movi	r2,432
  806b5c:	00807310 	cmplti	r2,zero,460
  806b60:	00806c04 	movi	r2,432
  806b64:	00806c04 	movi	r2,432
  806b68:	00806c04 	movi	r2,432
  806b6c:	00806c04 	movi	r2,432
  806b70:	00806c04 	movi	r2,432
  806b74:	0080735c 	xori	r2,zero,461
  806b78:	00806c04 	movi	r2,432
  806b7c:	00806c04 	movi	r2,432
  806b80:	0080797c 	xorhi	r2,zero,485
  806b84:	00806c04 	movi	r2,432
  806b88:	00806c04 	movi	r2,432
  806b8c:	00806c04 	movi	r2,432
  806b90:	00806c04 	movi	r2,432
  806b94:	00806c04 	movi	r2,432
  806b98:	00806c04 	movi	r2,432
  806b9c:	00806c04 	movi	r2,432
  806ba0:	00806c04 	movi	r2,432
  806ba4:	00806c04 	movi	r2,432
  806ba8:	00806c04 	movi	r2,432
  806bac:	00807950 	cmplti	r2,zero,485
  806bb0:	00807268 	cmpgeui	r2,zero,457
  806bb4:	008078c8 	cmpgei	r2,zero,483
  806bb8:	008078c8 	cmpgei	r2,zero,483
  806bbc:	008078c8 	cmpgei	r2,zero,483
  806bc0:	008078b4 	movhi	r2,482
  806bc4:	00807268 	cmpgeui	r2,zero,457
  806bc8:	00806c04 	movi	r2,432
  806bcc:	00806c04 	movi	r2,432
  806bd0:	0080783c 	xorhi	r2,zero,480
  806bd4:	00806c04 	movi	r2,432
  806bd8:	0080780c 	andi	r2,zero,480
  806bdc:	0080731c 	xori	r2,zero,460
  806be0:	0080786c 	andhi	r2,zero,481
  806be4:	00807858 	cmpnei	r2,zero,481
  806be8:	00806c04 	movi	r2,432
  806bec:	00807b00 	call	807b0 <__alt_mem_sdram_0-0x77f850>
  806bf0:	00806c04 	movi	r2,432
  806bf4:	00807368 	cmpgeui	r2,zero,461
  806bf8:	00806c04 	movi	r2,432
  806bfc:	00806c04 	movi	r2,432
  806c00:	008079e0 	cmpeqi	r2,zero,487
  806c04:	d9014d17 	ldw	r4,1332(sp)
  806c08:	2000ce26 	beq	r4,zero,806f44 <___vfprintf_internal_r+0x6d4>
  806c0c:	01400044 	movi	r5,1
  806c10:	d9800f04 	addi	r6,sp,60
  806c14:	d9c14015 	stw	r7,1280(sp)
  806c18:	d9414515 	stw	r5,1300(sp)
  806c1c:	d9814115 	stw	r6,1284(sp)
  806c20:	280f883a 	mov	r7,r5
  806c24:	d9000f05 	stb	r4,60(sp)
  806c28:	d8000405 	stb	zero,16(sp)
  806c2c:	d8014615 	stw	zero,1304(sp)
  806c30:	d8c14c17 	ldw	r3,1328(sp)
  806c34:	1880008c 	andi	r2,r3,2
  806c38:	1005003a 	cmpeq	r2,r2,zero
  806c3c:	d8815015 	stw	r2,1344(sp)
  806c40:	1000031e 	bne	r2,zero,806c50 <___vfprintf_internal_r+0x3e0>
  806c44:	d9014517 	ldw	r4,1300(sp)
  806c48:	21000084 	addi	r4,r4,2
  806c4c:	d9014515 	stw	r4,1300(sp)
  806c50:	d9414c17 	ldw	r5,1328(sp)
  806c54:	2940210c 	andi	r5,r5,132
  806c58:	d9414e15 	stw	r5,1336(sp)
  806c5c:	28002d1e 	bne	r5,zero,806d14 <___vfprintf_internal_r+0x4a4>
  806c60:	d9814a17 	ldw	r6,1320(sp)
  806c64:	d8814517 	ldw	r2,1300(sp)
  806c68:	30a1c83a 	sub	r16,r6,r2
  806c6c:	0400290e 	bge	zero,r16,806d14 <___vfprintf_internal_r+0x4a4>
  806c70:	00800404 	movi	r2,16
  806c74:	14045e0e 	bge	r2,r16,807df0 <___vfprintf_internal_r+0x1580>
  806c78:	dc800e17 	ldw	r18,56(sp)
  806c7c:	dc400d17 	ldw	r17,52(sp)
  806c80:	1027883a 	mov	r19,r2
  806c84:	07002074 	movhi	fp,129
  806c88:	e70c5784 	addi	fp,fp,12638
  806c8c:	050001c4 	movi	r20,7
  806c90:	00000306 	br	806ca0 <___vfprintf_internal_r+0x430>
  806c94:	843ffc04 	addi	r16,r16,-16
  806c98:	ad400204 	addi	r21,r21,8
  806c9c:	9c00130e 	bge	r19,r16,806cec <___vfprintf_internal_r+0x47c>
  806ca0:	94800404 	addi	r18,r18,16
  806ca4:	8c400044 	addi	r17,r17,1
  806ca8:	af000015 	stw	fp,0(r21)
  806cac:	acc00115 	stw	r19,4(r21)
  806cb0:	dc800e15 	stw	r18,56(sp)
  806cb4:	dc400d15 	stw	r17,52(sp)
  806cb8:	a47ff60e 	bge	r20,r17,806c94 <___vfprintf_internal_r+0x424>
  806cbc:	d9014f17 	ldw	r4,1340(sp)
  806cc0:	b00b883a 	mov	r5,r22
  806cc4:	d9800c04 	addi	r6,sp,48
  806cc8:	d9c15115 	stw	r7,1348(sp)
  806ccc:	08068180 	call	806818 <__sprint_r>
  806cd0:	d9c15117 	ldw	r7,1348(sp)
  806cd4:	10009e1e 	bne	r2,zero,806f50 <___vfprintf_internal_r+0x6e0>
  806cd8:	843ffc04 	addi	r16,r16,-16
  806cdc:	dc800e17 	ldw	r18,56(sp)
  806ce0:	dc400d17 	ldw	r17,52(sp)
  806ce4:	dd401904 	addi	r21,sp,100
  806ce8:	9c3fed16 	blt	r19,r16,806ca0 <___vfprintf_internal_r+0x430>
  806cec:	9425883a 	add	r18,r18,r16
  806cf0:	8c400044 	addi	r17,r17,1
  806cf4:	008001c4 	movi	r2,7
  806cf8:	af000015 	stw	fp,0(r21)
  806cfc:	ac000115 	stw	r16,4(r21)
  806d00:	dc800e15 	stw	r18,56(sp)
  806d04:	dc400d15 	stw	r17,52(sp)
  806d08:	1441f516 	blt	r2,r17,8074e0 <___vfprintf_internal_r+0xc70>
  806d0c:	ad400204 	addi	r21,r21,8
  806d10:	00000206 	br	806d1c <___vfprintf_internal_r+0x4ac>
  806d14:	dc800e17 	ldw	r18,56(sp)
  806d18:	dc400d17 	ldw	r17,52(sp)
  806d1c:	d8800407 	ldb	r2,16(sp)
  806d20:	10000b26 	beq	r2,zero,806d50 <___vfprintf_internal_r+0x4e0>
  806d24:	00800044 	movi	r2,1
  806d28:	94800044 	addi	r18,r18,1
  806d2c:	8c400044 	addi	r17,r17,1
  806d30:	a8800115 	stw	r2,4(r21)
  806d34:	d8c00404 	addi	r3,sp,16
  806d38:	008001c4 	movi	r2,7
  806d3c:	a8c00015 	stw	r3,0(r21)
  806d40:	dc800e15 	stw	r18,56(sp)
  806d44:	dc400d15 	stw	r17,52(sp)
  806d48:	1441da16 	blt	r2,r17,8074b4 <___vfprintf_internal_r+0xc44>
  806d4c:	ad400204 	addi	r21,r21,8
  806d50:	d9015017 	ldw	r4,1344(sp)
  806d54:	20000b1e 	bne	r4,zero,806d84 <___vfprintf_internal_r+0x514>
  806d58:	d8800444 	addi	r2,sp,17
  806d5c:	94800084 	addi	r18,r18,2
  806d60:	8c400044 	addi	r17,r17,1
  806d64:	a8800015 	stw	r2,0(r21)
  806d68:	00c00084 	movi	r3,2
  806d6c:	008001c4 	movi	r2,7
  806d70:	a8c00115 	stw	r3,4(r21)
  806d74:	dc800e15 	stw	r18,56(sp)
  806d78:	dc400d15 	stw	r17,52(sp)
  806d7c:	1441c216 	blt	r2,r17,807488 <___vfprintf_internal_r+0xc18>
  806d80:	ad400204 	addi	r21,r21,8
  806d84:	d9414e17 	ldw	r5,1336(sp)
  806d88:	00802004 	movi	r2,128
  806d8c:	2880b126 	beq	r5,r2,807054 <___vfprintf_internal_r+0x7e4>
  806d90:	d8c14617 	ldw	r3,1304(sp)
  806d94:	19e1c83a 	sub	r16,r3,r7
  806d98:	0400260e 	bge	zero,r16,806e34 <___vfprintf_internal_r+0x5c4>
  806d9c:	00800404 	movi	r2,16
  806da0:	1403cf0e 	bge	r2,r16,807ce0 <___vfprintf_internal_r+0x1470>
  806da4:	1027883a 	mov	r19,r2
  806da8:	07002074 	movhi	fp,129
  806dac:	e70c5384 	addi	fp,fp,12622
  806db0:	050001c4 	movi	r20,7
  806db4:	00000306 	br	806dc4 <___vfprintf_internal_r+0x554>
  806db8:	843ffc04 	addi	r16,r16,-16
  806dbc:	ad400204 	addi	r21,r21,8
  806dc0:	9c00130e 	bge	r19,r16,806e10 <___vfprintf_internal_r+0x5a0>
  806dc4:	94800404 	addi	r18,r18,16
  806dc8:	8c400044 	addi	r17,r17,1
  806dcc:	af000015 	stw	fp,0(r21)
  806dd0:	acc00115 	stw	r19,4(r21)
  806dd4:	dc800e15 	stw	r18,56(sp)
  806dd8:	dc400d15 	stw	r17,52(sp)
  806ddc:	a47ff60e 	bge	r20,r17,806db8 <___vfprintf_internal_r+0x548>
  806de0:	d9014f17 	ldw	r4,1340(sp)
  806de4:	b00b883a 	mov	r5,r22
  806de8:	d9800c04 	addi	r6,sp,48
  806dec:	d9c15115 	stw	r7,1348(sp)
  806df0:	08068180 	call	806818 <__sprint_r>
  806df4:	d9c15117 	ldw	r7,1348(sp)
  806df8:	1000551e 	bne	r2,zero,806f50 <___vfprintf_internal_r+0x6e0>
  806dfc:	843ffc04 	addi	r16,r16,-16
  806e00:	dc800e17 	ldw	r18,56(sp)
  806e04:	dc400d17 	ldw	r17,52(sp)
  806e08:	dd401904 	addi	r21,sp,100
  806e0c:	9c3fed16 	blt	r19,r16,806dc4 <___vfprintf_internal_r+0x554>
  806e10:	9425883a 	add	r18,r18,r16
  806e14:	8c400044 	addi	r17,r17,1
  806e18:	008001c4 	movi	r2,7
  806e1c:	af000015 	stw	fp,0(r21)
  806e20:	ac000115 	stw	r16,4(r21)
  806e24:	dc800e15 	stw	r18,56(sp)
  806e28:	dc400d15 	stw	r17,52(sp)
  806e2c:	14418216 	blt	r2,r17,807438 <___vfprintf_internal_r+0xbc8>
  806e30:	ad400204 	addi	r21,r21,8
  806e34:	d9014c17 	ldw	r4,1328(sp)
  806e38:	2080400c 	andi	r2,r4,256
  806e3c:	10004a1e 	bne	r2,zero,806f68 <___vfprintf_internal_r+0x6f8>
  806e40:	d9414117 	ldw	r5,1284(sp)
  806e44:	91e5883a 	add	r18,r18,r7
  806e48:	8c400044 	addi	r17,r17,1
  806e4c:	008001c4 	movi	r2,7
  806e50:	a9400015 	stw	r5,0(r21)
  806e54:	a9c00115 	stw	r7,4(r21)
  806e58:	dc800e15 	stw	r18,56(sp)
  806e5c:	dc400d15 	stw	r17,52(sp)
  806e60:	14416716 	blt	r2,r17,807400 <___vfprintf_internal_r+0xb90>
  806e64:	a8c00204 	addi	r3,r21,8
  806e68:	d9814c17 	ldw	r6,1328(sp)
  806e6c:	3080010c 	andi	r2,r6,4
  806e70:	10002826 	beq	r2,zero,806f14 <___vfprintf_internal_r+0x6a4>
  806e74:	d8814a17 	ldw	r2,1320(sp)
  806e78:	d9014517 	ldw	r4,1300(sp)
  806e7c:	1121c83a 	sub	r16,r2,r4
  806e80:	0400240e 	bge	zero,r16,806f14 <___vfprintf_internal_r+0x6a4>
  806e84:	00800404 	movi	r2,16
  806e88:	1404550e 	bge	r2,r16,807fe0 <___vfprintf_internal_r+0x1770>
  806e8c:	dc400d17 	ldw	r17,52(sp)
  806e90:	1027883a 	mov	r19,r2
  806e94:	07002074 	movhi	fp,129
  806e98:	e70c5784 	addi	fp,fp,12638
  806e9c:	050001c4 	movi	r20,7
  806ea0:	00000306 	br	806eb0 <___vfprintf_internal_r+0x640>
  806ea4:	843ffc04 	addi	r16,r16,-16
  806ea8:	18c00204 	addi	r3,r3,8
  806eac:	9c00110e 	bge	r19,r16,806ef4 <___vfprintf_internal_r+0x684>
  806eb0:	94800404 	addi	r18,r18,16
  806eb4:	8c400044 	addi	r17,r17,1
  806eb8:	1f000015 	stw	fp,0(r3)
  806ebc:	1cc00115 	stw	r19,4(r3)
  806ec0:	dc800e15 	stw	r18,56(sp)
  806ec4:	dc400d15 	stw	r17,52(sp)
  806ec8:	a47ff60e 	bge	r20,r17,806ea4 <___vfprintf_internal_r+0x634>
  806ecc:	d9014f17 	ldw	r4,1340(sp)
  806ed0:	b00b883a 	mov	r5,r22
  806ed4:	d9800c04 	addi	r6,sp,48
  806ed8:	08068180 	call	806818 <__sprint_r>
  806edc:	10001c1e 	bne	r2,zero,806f50 <___vfprintf_internal_r+0x6e0>
  806ee0:	843ffc04 	addi	r16,r16,-16
  806ee4:	dc800e17 	ldw	r18,56(sp)
  806ee8:	dc400d17 	ldw	r17,52(sp)
  806eec:	d8c01904 	addi	r3,sp,100
  806ef0:	9c3fef16 	blt	r19,r16,806eb0 <___vfprintf_internal_r+0x640>
  806ef4:	9425883a 	add	r18,r18,r16
  806ef8:	8c400044 	addi	r17,r17,1
  806efc:	008001c4 	movi	r2,7
  806f00:	1f000015 	stw	fp,0(r3)
  806f04:	1c000115 	stw	r16,4(r3)
  806f08:	dc800e15 	stw	r18,56(sp)
  806f0c:	dc400d15 	stw	r17,52(sp)
  806f10:	1440cb16 	blt	r2,r17,807240 <___vfprintf_internal_r+0x9d0>
  806f14:	d8814a17 	ldw	r2,1320(sp)
  806f18:	d9414517 	ldw	r5,1300(sp)
  806f1c:	1140010e 	bge	r2,r5,806f24 <___vfprintf_internal_r+0x6b4>
  806f20:	2805883a 	mov	r2,r5
  806f24:	d9814b17 	ldw	r6,1324(sp)
  806f28:	308d883a 	add	r6,r6,r2
  806f2c:	d9814b15 	stw	r6,1324(sp)
  806f30:	90013b1e 	bne	r18,zero,807420 <___vfprintf_internal_r+0xbb0>
  806f34:	d9c14017 	ldw	r7,1280(sp)
  806f38:	dd401904 	addi	r21,sp,100
  806f3c:	d8000d15 	stw	zero,52(sp)
  806f40:	003ea706 	br	8069e0 <___vfprintf_internal_r+0x170>
  806f44:	d8800e17 	ldw	r2,56(sp)
  806f48:	1005451e 	bne	r2,zero,808460 <___vfprintf_internal_r+0x1bf0>
  806f4c:	d8000d15 	stw	zero,52(sp)
  806f50:	b080030b 	ldhu	r2,12(r22)
  806f54:	1080100c 	andi	r2,r2,64
  806f58:	103e8726 	beq	r2,zero,806978 <___vfprintf_internal_r+0x108>
  806f5c:	00bfffc4 	movi	r2,-1
  806f60:	d8814b15 	stw	r2,1324(sp)
  806f64:	003e8406 	br	806978 <___vfprintf_internal_r+0x108>
  806f68:	d9814d17 	ldw	r6,1332(sp)
  806f6c:	00801944 	movi	r2,101
  806f70:	11806e16 	blt	r2,r6,80712c <___vfprintf_internal_r+0x8bc>
  806f74:	d9414717 	ldw	r5,1308(sp)
  806f78:	00c00044 	movi	r3,1
  806f7c:	1943490e 	bge	r3,r5,807ca4 <___vfprintf_internal_r+0x1434>
  806f80:	d8814117 	ldw	r2,1284(sp)
  806f84:	94800044 	addi	r18,r18,1
  806f88:	8c400044 	addi	r17,r17,1
  806f8c:	a8800015 	stw	r2,0(r21)
  806f90:	008001c4 	movi	r2,7
  806f94:	a8c00115 	stw	r3,4(r21)
  806f98:	dc800e15 	stw	r18,56(sp)
  806f9c:	dc400d15 	stw	r17,52(sp)
  806fa0:	1441ca16 	blt	r2,r17,8076cc <___vfprintf_internal_r+0xe5c>
  806fa4:	a8c00204 	addi	r3,r21,8
  806fa8:	d9014917 	ldw	r4,1316(sp)
  806fac:	00800044 	movi	r2,1
  806fb0:	94800044 	addi	r18,r18,1
  806fb4:	8c400044 	addi	r17,r17,1
  806fb8:	18800115 	stw	r2,4(r3)
  806fbc:	008001c4 	movi	r2,7
  806fc0:	19000015 	stw	r4,0(r3)
  806fc4:	dc800e15 	stw	r18,56(sp)
  806fc8:	dc400d15 	stw	r17,52(sp)
  806fcc:	1441b616 	blt	r2,r17,8076a8 <___vfprintf_internal_r+0xe38>
  806fd0:	1cc00204 	addi	r19,r3,8
  806fd4:	d9014217 	ldw	r4,1288(sp)
  806fd8:	d9414317 	ldw	r5,1292(sp)
  806fdc:	000d883a 	mov	r6,zero
  806fe0:	000f883a 	mov	r7,zero
  806fe4:	080f0b80 	call	80f0b8 <__nedf2>
  806fe8:	10017426 	beq	r2,zero,8075bc <___vfprintf_internal_r+0xd4c>
  806fec:	d9414717 	ldw	r5,1308(sp)
  806ff0:	d9814117 	ldw	r6,1284(sp)
  806ff4:	8c400044 	addi	r17,r17,1
  806ff8:	2c85883a 	add	r2,r5,r18
  806ffc:	14bfffc4 	addi	r18,r2,-1
  807000:	28bfffc4 	addi	r2,r5,-1
  807004:	30c00044 	addi	r3,r6,1
  807008:	98800115 	stw	r2,4(r19)
  80700c:	008001c4 	movi	r2,7
  807010:	98c00015 	stw	r3,0(r19)
  807014:	dc800e15 	stw	r18,56(sp)
  807018:	dc400d15 	stw	r17,52(sp)
  80701c:	14418e16 	blt	r2,r17,807658 <___vfprintf_internal_r+0xde8>
  807020:	9cc00204 	addi	r19,r19,8
  807024:	d9414817 	ldw	r5,1312(sp)
  807028:	d8800804 	addi	r2,sp,32
  80702c:	8c400044 	addi	r17,r17,1
  807030:	9165883a 	add	r18,r18,r5
  807034:	98800015 	stw	r2,0(r19)
  807038:	008001c4 	movi	r2,7
  80703c:	99400115 	stw	r5,4(r19)
  807040:	dc800e15 	stw	r18,56(sp)
  807044:	dc400d15 	stw	r17,52(sp)
  807048:	1440ed16 	blt	r2,r17,807400 <___vfprintf_internal_r+0xb90>
  80704c:	98c00204 	addi	r3,r19,8
  807050:	003f8506 	br	806e68 <___vfprintf_internal_r+0x5f8>
  807054:	d9814a17 	ldw	r6,1320(sp)
  807058:	d8814517 	ldw	r2,1300(sp)
  80705c:	30a1c83a 	sub	r16,r6,r2
  807060:	043f4b0e 	bge	zero,r16,806d90 <___vfprintf_internal_r+0x520>
  807064:	00800404 	movi	r2,16
  807068:	14043a0e 	bge	r2,r16,808154 <___vfprintf_internal_r+0x18e4>
  80706c:	1027883a 	mov	r19,r2
  807070:	07002074 	movhi	fp,129
  807074:	e70c5384 	addi	fp,fp,12622
  807078:	050001c4 	movi	r20,7
  80707c:	00000306 	br	80708c <___vfprintf_internal_r+0x81c>
  807080:	843ffc04 	addi	r16,r16,-16
  807084:	ad400204 	addi	r21,r21,8
  807088:	9c00130e 	bge	r19,r16,8070d8 <___vfprintf_internal_r+0x868>
  80708c:	94800404 	addi	r18,r18,16
  807090:	8c400044 	addi	r17,r17,1
  807094:	af000015 	stw	fp,0(r21)
  807098:	acc00115 	stw	r19,4(r21)
  80709c:	dc800e15 	stw	r18,56(sp)
  8070a0:	dc400d15 	stw	r17,52(sp)
  8070a4:	a47ff60e 	bge	r20,r17,807080 <___vfprintf_internal_r+0x810>
  8070a8:	d9014f17 	ldw	r4,1340(sp)
  8070ac:	b00b883a 	mov	r5,r22
  8070b0:	d9800c04 	addi	r6,sp,48
  8070b4:	d9c15115 	stw	r7,1348(sp)
  8070b8:	08068180 	call	806818 <__sprint_r>
  8070bc:	d9c15117 	ldw	r7,1348(sp)
  8070c0:	103fa31e 	bne	r2,zero,806f50 <___vfprintf_internal_r+0x6e0>
  8070c4:	843ffc04 	addi	r16,r16,-16
  8070c8:	dc800e17 	ldw	r18,56(sp)
  8070cc:	dc400d17 	ldw	r17,52(sp)
  8070d0:	dd401904 	addi	r21,sp,100
  8070d4:	9c3fed16 	blt	r19,r16,80708c <___vfprintf_internal_r+0x81c>
  8070d8:	9425883a 	add	r18,r18,r16
  8070dc:	8c400044 	addi	r17,r17,1
  8070e0:	008001c4 	movi	r2,7
  8070e4:	af000015 	stw	fp,0(r21)
  8070e8:	ac000115 	stw	r16,4(r21)
  8070ec:	dc800e15 	stw	r18,56(sp)
  8070f0:	dc400d15 	stw	r17,52(sp)
  8070f4:	14416116 	blt	r2,r17,80767c <___vfprintf_internal_r+0xe0c>
  8070f8:	ad400204 	addi	r21,r21,8
  8070fc:	003f2406 	br	806d90 <___vfprintf_internal_r+0x520>
  807100:	d9014f17 	ldw	r4,1340(sp)
  807104:	080a3240 	call	80a324 <__sinit>
  807108:	d9c15117 	ldw	r7,1348(sp)
  80710c:	003def06 	br	8068cc <___vfprintf_internal_r+0x5c>
  807110:	d9014f17 	ldw	r4,1340(sp)
  807114:	b00b883a 	mov	r5,r22
  807118:	d9c15115 	stw	r7,1348(sp)
  80711c:	08087580 	call	808758 <__swsetup_r>
  807120:	d9c15117 	ldw	r7,1348(sp)
  807124:	103dee26 	beq	r2,zero,8068e0 <___vfprintf_internal_r+0x70>
  807128:	003f8c06 	br	806f5c <___vfprintf_internal_r+0x6ec>
  80712c:	d9014217 	ldw	r4,1288(sp)
  807130:	d9414317 	ldw	r5,1292(sp)
  807134:	000d883a 	mov	r6,zero
  807138:	000f883a 	mov	r7,zero
  80713c:	080f0300 	call	80f030 <__eqdf2>
  807140:	1000f21e 	bne	r2,zero,80750c <___vfprintf_internal_r+0xc9c>
  807144:	00802074 	movhi	r2,129
  807148:	108c5304 	addi	r2,r2,12620
  80714c:	94800044 	addi	r18,r18,1
  807150:	8c400044 	addi	r17,r17,1
  807154:	a8800015 	stw	r2,0(r21)
  807158:	00c00044 	movi	r3,1
  80715c:	008001c4 	movi	r2,7
  807160:	a8c00115 	stw	r3,4(r21)
  807164:	dc800e15 	stw	r18,56(sp)
  807168:	dc400d15 	stw	r17,52(sp)
  80716c:	14430016 	blt	r2,r17,807d70 <___vfprintf_internal_r+0x1500>
  807170:	a8c00204 	addi	r3,r21,8
  807174:	d8800517 	ldw	r2,20(sp)
  807178:	d9014717 	ldw	r4,1308(sp)
  80717c:	11015c0e 	bge	r2,r4,8076f0 <___vfprintf_internal_r+0xe80>
  807180:	dc400d17 	ldw	r17,52(sp)
  807184:	d9814917 	ldw	r6,1316(sp)
  807188:	00800044 	movi	r2,1
  80718c:	94800044 	addi	r18,r18,1
  807190:	8c400044 	addi	r17,r17,1
  807194:	18800115 	stw	r2,4(r3)
  807198:	008001c4 	movi	r2,7
  80719c:	19800015 	stw	r6,0(r3)
  8071a0:	dc800e15 	stw	r18,56(sp)
  8071a4:	dc400d15 	stw	r17,52(sp)
  8071a8:	14431616 	blt	r2,r17,807e04 <___vfprintf_internal_r+0x1594>
  8071ac:	18c00204 	addi	r3,r3,8
  8071b0:	d8814717 	ldw	r2,1308(sp)
  8071b4:	143fffc4 	addi	r16,r2,-1
  8071b8:	043f2b0e 	bge	zero,r16,806e68 <___vfprintf_internal_r+0x5f8>
  8071bc:	00800404 	movi	r2,16
  8071c0:	1402a80e 	bge	r2,r16,807c64 <___vfprintf_internal_r+0x13f4>
  8071c4:	dc400d17 	ldw	r17,52(sp)
  8071c8:	1027883a 	mov	r19,r2
  8071cc:	07002074 	movhi	fp,129
  8071d0:	e70c5384 	addi	fp,fp,12622
  8071d4:	050001c4 	movi	r20,7
  8071d8:	00000306 	br	8071e8 <___vfprintf_internal_r+0x978>
  8071dc:	18c00204 	addi	r3,r3,8
  8071e0:	843ffc04 	addi	r16,r16,-16
  8071e4:	9c02a20e 	bge	r19,r16,807c70 <___vfprintf_internal_r+0x1400>
  8071e8:	94800404 	addi	r18,r18,16
  8071ec:	8c400044 	addi	r17,r17,1
  8071f0:	1f000015 	stw	fp,0(r3)
  8071f4:	1cc00115 	stw	r19,4(r3)
  8071f8:	dc800e15 	stw	r18,56(sp)
  8071fc:	dc400d15 	stw	r17,52(sp)
  807200:	a47ff60e 	bge	r20,r17,8071dc <___vfprintf_internal_r+0x96c>
  807204:	d9014f17 	ldw	r4,1340(sp)
  807208:	b00b883a 	mov	r5,r22
  80720c:	d9800c04 	addi	r6,sp,48
  807210:	08068180 	call	806818 <__sprint_r>
  807214:	103f4e1e 	bne	r2,zero,806f50 <___vfprintf_internal_r+0x6e0>
  807218:	dc800e17 	ldw	r18,56(sp)
  80721c:	dc400d17 	ldw	r17,52(sp)
  807220:	d8c01904 	addi	r3,sp,100
  807224:	003fee06 	br	8071e0 <___vfprintf_internal_r+0x970>
  807228:	d8802c0b 	ldhu	r2,176(sp)
  80722c:	00ffffc4 	movi	r3,-1
  807230:	d8c14b15 	stw	r3,1324(sp)
  807234:	1080100c 	andi	r2,r2,64
  807238:	103dcc1e 	bne	r2,zero,80696c <___vfprintf_internal_r+0xfc>
  80723c:	003dce06 	br	806978 <___vfprintf_internal_r+0x108>
  807240:	d9014f17 	ldw	r4,1340(sp)
  807244:	b00b883a 	mov	r5,r22
  807248:	d9800c04 	addi	r6,sp,48
  80724c:	08068180 	call	806818 <__sprint_r>
  807250:	103f3f1e 	bne	r2,zero,806f50 <___vfprintf_internal_r+0x6e0>
  807254:	dc800e17 	ldw	r18,56(sp)
  807258:	003f2e06 	br	806f14 <___vfprintf_internal_r+0x6a4>
  80725c:	d9414c17 	ldw	r5,1328(sp)
  807260:	29400414 	ori	r5,r5,16
  807264:	d9414c15 	stw	r5,1328(sp)
  807268:	d9814c17 	ldw	r6,1328(sp)
  80726c:	3080080c 	andi	r2,r6,32
  807270:	10014f1e 	bne	r2,zero,8077b0 <___vfprintf_internal_r+0xf40>
  807274:	d8c14c17 	ldw	r3,1328(sp)
  807278:	1880040c 	andi	r2,r3,16
  80727c:	1002f01e 	bne	r2,zero,807e40 <___vfprintf_internal_r+0x15d0>
  807280:	d9014c17 	ldw	r4,1328(sp)
  807284:	2080100c 	andi	r2,r4,64
  807288:	1002ed26 	beq	r2,zero,807e40 <___vfprintf_internal_r+0x15d0>
  80728c:	3880000f 	ldh	r2,0(r7)
  807290:	39c00104 	addi	r7,r7,4
  807294:	d9c14015 	stw	r7,1280(sp)
  807298:	1023d7fa 	srai	r17,r2,31
  80729c:	1021883a 	mov	r16,r2
  8072a0:	88037816 	blt	r17,zero,808084 <___vfprintf_internal_r+0x1814>
  8072a4:	01000044 	movi	r4,1
  8072a8:	98000416 	blt	r19,zero,8072bc <___vfprintf_internal_r+0xa4c>
  8072ac:	d8c14c17 	ldw	r3,1328(sp)
  8072b0:	00bfdfc4 	movi	r2,-129
  8072b4:	1886703a 	and	r3,r3,r2
  8072b8:	d8c14c15 	stw	r3,1328(sp)
  8072bc:	8444b03a 	or	r2,r16,r17
  8072c0:	10022c1e 	bne	r2,zero,807b74 <___vfprintf_internal_r+0x1304>
  8072c4:	98022b1e 	bne	r19,zero,807b74 <___vfprintf_internal_r+0x1304>
  8072c8:	20803fcc 	andi	r2,r4,255
  8072cc:	1002a126 	beq	r2,zero,807d54 <___vfprintf_internal_r+0x14e4>
  8072d0:	d8c01904 	addi	r3,sp,100
  8072d4:	dd000f04 	addi	r20,sp,60
  8072d8:	d8c14115 	stw	r3,1284(sp)
  8072dc:	d8c14117 	ldw	r3,1284(sp)
  8072e0:	dcc14515 	stw	r19,1300(sp)
  8072e4:	a0c5c83a 	sub	r2,r20,r3
  8072e8:	11c00a04 	addi	r7,r2,40
  8072ec:	99c0010e 	bge	r19,r7,8072f4 <___vfprintf_internal_r+0xa84>
  8072f0:	d9c14515 	stw	r7,1300(sp)
  8072f4:	dcc14615 	stw	r19,1304(sp)
  8072f8:	d8800407 	ldb	r2,16(sp)
  8072fc:	103e4c26 	beq	r2,zero,806c30 <___vfprintf_internal_r+0x3c0>
  807300:	d8814517 	ldw	r2,1300(sp)
  807304:	10800044 	addi	r2,r2,1
  807308:	d8814515 	stw	r2,1300(sp)
  80730c:	003e4806 	br	806c30 <___vfprintf_internal_r+0x3c0>
  807310:	d9814c17 	ldw	r6,1328(sp)
  807314:	31800414 	ori	r6,r6,16
  807318:	d9814c15 	stw	r6,1328(sp)
  80731c:	d8c14c17 	ldw	r3,1328(sp)
  807320:	1880080c 	andi	r2,r3,32
  807324:	1001271e 	bne	r2,zero,8077c4 <___vfprintf_internal_r+0xf54>
  807328:	d9414c17 	ldw	r5,1328(sp)
  80732c:	2880040c 	andi	r2,r5,16
  807330:	1002bc1e 	bne	r2,zero,807e24 <___vfprintf_internal_r+0x15b4>
  807334:	d9814c17 	ldw	r6,1328(sp)
  807338:	3080100c 	andi	r2,r6,64
  80733c:	1002b926 	beq	r2,zero,807e24 <___vfprintf_internal_r+0x15b4>
  807340:	3c00000b 	ldhu	r16,0(r7)
  807344:	0009883a 	mov	r4,zero
  807348:	39c00104 	addi	r7,r7,4
  80734c:	0023883a 	mov	r17,zero
  807350:	d9c14015 	stw	r7,1280(sp)
  807354:	d8000405 	stb	zero,16(sp)
  807358:	003fd306 	br	8072a8 <___vfprintf_internal_r+0xa38>
  80735c:	d9014c17 	ldw	r4,1328(sp)
  807360:	21000414 	ori	r4,r4,16
  807364:	d9014c15 	stw	r4,1328(sp)
  807368:	d9414c17 	ldw	r5,1328(sp)
  80736c:	2880080c 	andi	r2,r5,32
  807370:	1001081e 	bne	r2,zero,807794 <___vfprintf_internal_r+0xf24>
  807374:	d8c14c17 	ldw	r3,1328(sp)
  807378:	1880040c 	andi	r2,r3,16
  80737c:	1002b61e 	bne	r2,zero,807e58 <___vfprintf_internal_r+0x15e8>
  807380:	d9014c17 	ldw	r4,1328(sp)
  807384:	2080100c 	andi	r2,r4,64
  807388:	1002b326 	beq	r2,zero,807e58 <___vfprintf_internal_r+0x15e8>
  80738c:	3c00000b 	ldhu	r16,0(r7)
  807390:	01000044 	movi	r4,1
  807394:	39c00104 	addi	r7,r7,4
  807398:	0023883a 	mov	r17,zero
  80739c:	d9c14015 	stw	r7,1280(sp)
  8073a0:	d8000405 	stb	zero,16(sp)
  8073a4:	003fc006 	br	8072a8 <___vfprintf_internal_r+0xa38>
  8073a8:	d9014f17 	ldw	r4,1340(sp)
  8073ac:	b00b883a 	mov	r5,r22
  8073b0:	d9800c04 	addi	r6,sp,48
  8073b4:	08068180 	call	806818 <__sprint_r>
  8073b8:	103ee51e 	bne	r2,zero,806f50 <___vfprintf_internal_r+0x6e0>
  8073bc:	dc800e17 	ldw	r18,56(sp)
  8073c0:	d8c01904 	addi	r3,sp,100
  8073c4:	d9814c17 	ldw	r6,1328(sp)
  8073c8:	3080004c 	andi	r2,r6,1
  8073cc:	1005003a 	cmpeq	r2,r2,zero
  8073d0:	103ea51e 	bne	r2,zero,806e68 <___vfprintf_internal_r+0x5f8>
  8073d4:	00800044 	movi	r2,1
  8073d8:	dc400d17 	ldw	r17,52(sp)
  8073dc:	18800115 	stw	r2,4(r3)
  8073e0:	d8814917 	ldw	r2,1316(sp)
  8073e4:	94800044 	addi	r18,r18,1
  8073e8:	8c400044 	addi	r17,r17,1
  8073ec:	18800015 	stw	r2,0(r3)
  8073f0:	008001c4 	movi	r2,7
  8073f4:	dc800e15 	stw	r18,56(sp)
  8073f8:	dc400d15 	stw	r17,52(sp)
  8073fc:	1442240e 	bge	r2,r17,807c90 <___vfprintf_internal_r+0x1420>
  807400:	d9014f17 	ldw	r4,1340(sp)
  807404:	b00b883a 	mov	r5,r22
  807408:	d9800c04 	addi	r6,sp,48
  80740c:	08068180 	call	806818 <__sprint_r>
  807410:	103ecf1e 	bne	r2,zero,806f50 <___vfprintf_internal_r+0x6e0>
  807414:	dc800e17 	ldw	r18,56(sp)
  807418:	d8c01904 	addi	r3,sp,100
  80741c:	003e9206 	br	806e68 <___vfprintf_internal_r+0x5f8>
  807420:	d9014f17 	ldw	r4,1340(sp)
  807424:	b00b883a 	mov	r5,r22
  807428:	d9800c04 	addi	r6,sp,48
  80742c:	08068180 	call	806818 <__sprint_r>
  807430:	103ec026 	beq	r2,zero,806f34 <___vfprintf_internal_r+0x6c4>
  807434:	003ec606 	br	806f50 <___vfprintf_internal_r+0x6e0>
  807438:	d9014f17 	ldw	r4,1340(sp)
  80743c:	b00b883a 	mov	r5,r22
  807440:	d9800c04 	addi	r6,sp,48
  807444:	d9c15115 	stw	r7,1348(sp)
  807448:	08068180 	call	806818 <__sprint_r>
  80744c:	d9c15117 	ldw	r7,1348(sp)
  807450:	103ebf1e 	bne	r2,zero,806f50 <___vfprintf_internal_r+0x6e0>
  807454:	dc800e17 	ldw	r18,56(sp)
  807458:	dc400d17 	ldw	r17,52(sp)
  80745c:	dd401904 	addi	r21,sp,100
  807460:	003e7406 	br	806e34 <___vfprintf_internal_r+0x5c4>
  807464:	d9014f17 	ldw	r4,1340(sp)
  807468:	b00b883a 	mov	r5,r22
  80746c:	d9800c04 	addi	r6,sp,48
  807470:	d9c15115 	stw	r7,1348(sp)
  807474:	08068180 	call	806818 <__sprint_r>
  807478:	d9c15117 	ldw	r7,1348(sp)
  80747c:	103eb41e 	bne	r2,zero,806f50 <___vfprintf_internal_r+0x6e0>
  807480:	dd401904 	addi	r21,sp,100
  807484:	003d6d06 	br	806a3c <___vfprintf_internal_r+0x1cc>
  807488:	d9014f17 	ldw	r4,1340(sp)
  80748c:	b00b883a 	mov	r5,r22
  807490:	d9800c04 	addi	r6,sp,48
  807494:	d9c15115 	stw	r7,1348(sp)
  807498:	08068180 	call	806818 <__sprint_r>
  80749c:	d9c15117 	ldw	r7,1348(sp)
  8074a0:	103eab1e 	bne	r2,zero,806f50 <___vfprintf_internal_r+0x6e0>
  8074a4:	dc800e17 	ldw	r18,56(sp)
  8074a8:	dc400d17 	ldw	r17,52(sp)
  8074ac:	dd401904 	addi	r21,sp,100
  8074b0:	003e3406 	br	806d84 <___vfprintf_internal_r+0x514>
  8074b4:	d9014f17 	ldw	r4,1340(sp)
  8074b8:	b00b883a 	mov	r5,r22
  8074bc:	d9800c04 	addi	r6,sp,48
  8074c0:	d9c15115 	stw	r7,1348(sp)
  8074c4:	08068180 	call	806818 <__sprint_r>
  8074c8:	d9c15117 	ldw	r7,1348(sp)
  8074cc:	103ea01e 	bne	r2,zero,806f50 <___vfprintf_internal_r+0x6e0>
  8074d0:	dc800e17 	ldw	r18,56(sp)
  8074d4:	dc400d17 	ldw	r17,52(sp)
  8074d8:	dd401904 	addi	r21,sp,100
  8074dc:	003e1c06 	br	806d50 <___vfprintf_internal_r+0x4e0>
  8074e0:	d9014f17 	ldw	r4,1340(sp)
  8074e4:	b00b883a 	mov	r5,r22
  8074e8:	d9800c04 	addi	r6,sp,48
  8074ec:	d9c15115 	stw	r7,1348(sp)
  8074f0:	08068180 	call	806818 <__sprint_r>
  8074f4:	d9c15117 	ldw	r7,1348(sp)
  8074f8:	103e951e 	bne	r2,zero,806f50 <___vfprintf_internal_r+0x6e0>
  8074fc:	dc800e17 	ldw	r18,56(sp)
  807500:	dc400d17 	ldw	r17,52(sp)
  807504:	dd401904 	addi	r21,sp,100
  807508:	003e0406 	br	806d1c <___vfprintf_internal_r+0x4ac>
  80750c:	d9000517 	ldw	r4,20(sp)
  807510:	0102580e 	bge	zero,r4,807e74 <___vfprintf_internal_r+0x1604>
  807514:	d9814717 	ldw	r6,1308(sp)
  807518:	21807a16 	blt	r4,r6,807704 <___vfprintf_internal_r+0xe94>
  80751c:	d8814117 	ldw	r2,1284(sp)
  807520:	91a5883a 	add	r18,r18,r6
  807524:	8c400044 	addi	r17,r17,1
  807528:	a8800015 	stw	r2,0(r21)
  80752c:	008001c4 	movi	r2,7
  807530:	a9800115 	stw	r6,4(r21)
  807534:	dc800e15 	stw	r18,56(sp)
  807538:	dc400d15 	stw	r17,52(sp)
  80753c:	1442fc16 	blt	r2,r17,808130 <___vfprintf_internal_r+0x18c0>
  807540:	a8c00204 	addi	r3,r21,8
  807544:	d9414717 	ldw	r5,1308(sp)
  807548:	2161c83a 	sub	r16,r4,r5
  80754c:	043f9d0e 	bge	zero,r16,8073c4 <___vfprintf_internal_r+0xb54>
  807550:	00800404 	movi	r2,16
  807554:	1402190e 	bge	r2,r16,807dbc <___vfprintf_internal_r+0x154c>
  807558:	dc400d17 	ldw	r17,52(sp)
  80755c:	1027883a 	mov	r19,r2
  807560:	07002074 	movhi	fp,129
  807564:	e70c5384 	addi	fp,fp,12622
  807568:	050001c4 	movi	r20,7
  80756c:	00000306 	br	80757c <___vfprintf_internal_r+0xd0c>
  807570:	18c00204 	addi	r3,r3,8
  807574:	843ffc04 	addi	r16,r16,-16
  807578:	9c02130e 	bge	r19,r16,807dc8 <___vfprintf_internal_r+0x1558>
  80757c:	94800404 	addi	r18,r18,16
  807580:	8c400044 	addi	r17,r17,1
  807584:	1f000015 	stw	fp,0(r3)
  807588:	1cc00115 	stw	r19,4(r3)
  80758c:	dc800e15 	stw	r18,56(sp)
  807590:	dc400d15 	stw	r17,52(sp)
  807594:	a47ff60e 	bge	r20,r17,807570 <___vfprintf_internal_r+0xd00>
  807598:	d9014f17 	ldw	r4,1340(sp)
  80759c:	b00b883a 	mov	r5,r22
  8075a0:	d9800c04 	addi	r6,sp,48
  8075a4:	08068180 	call	806818 <__sprint_r>
  8075a8:	103e691e 	bne	r2,zero,806f50 <___vfprintf_internal_r+0x6e0>
  8075ac:	dc800e17 	ldw	r18,56(sp)
  8075b0:	dc400d17 	ldw	r17,52(sp)
  8075b4:	d8c01904 	addi	r3,sp,100
  8075b8:	003fee06 	br	807574 <___vfprintf_internal_r+0xd04>
  8075bc:	d8814717 	ldw	r2,1308(sp)
  8075c0:	143fffc4 	addi	r16,r2,-1
  8075c4:	043e970e 	bge	zero,r16,807024 <___vfprintf_internal_r+0x7b4>
  8075c8:	00800404 	movi	r2,16
  8075cc:	1400180e 	bge	r2,r16,807630 <___vfprintf_internal_r+0xdc0>
  8075d0:	1029883a 	mov	r20,r2
  8075d4:	07002074 	movhi	fp,129
  8075d8:	e70c5384 	addi	fp,fp,12622
  8075dc:	054001c4 	movi	r21,7
  8075e0:	00000306 	br	8075f0 <___vfprintf_internal_r+0xd80>
  8075e4:	9cc00204 	addi	r19,r19,8
  8075e8:	843ffc04 	addi	r16,r16,-16
  8075ec:	a400120e 	bge	r20,r16,807638 <___vfprintf_internal_r+0xdc8>
  8075f0:	94800404 	addi	r18,r18,16
  8075f4:	8c400044 	addi	r17,r17,1
  8075f8:	9f000015 	stw	fp,0(r19)
  8075fc:	9d000115 	stw	r20,4(r19)
  807600:	dc800e15 	stw	r18,56(sp)
  807604:	dc400d15 	stw	r17,52(sp)
  807608:	ac7ff60e 	bge	r21,r17,8075e4 <___vfprintf_internal_r+0xd74>
  80760c:	d9014f17 	ldw	r4,1340(sp)
  807610:	b00b883a 	mov	r5,r22
  807614:	d9800c04 	addi	r6,sp,48
  807618:	08068180 	call	806818 <__sprint_r>
  80761c:	103e4c1e 	bne	r2,zero,806f50 <___vfprintf_internal_r+0x6e0>
  807620:	dc800e17 	ldw	r18,56(sp)
  807624:	dc400d17 	ldw	r17,52(sp)
  807628:	dcc01904 	addi	r19,sp,100
  80762c:	003fee06 	br	8075e8 <___vfprintf_internal_r+0xd78>
  807630:	07002074 	movhi	fp,129
  807634:	e70c5384 	addi	fp,fp,12622
  807638:	9425883a 	add	r18,r18,r16
  80763c:	8c400044 	addi	r17,r17,1
  807640:	008001c4 	movi	r2,7
  807644:	9f000015 	stw	fp,0(r19)
  807648:	9c000115 	stw	r16,4(r19)
  80764c:	dc800e15 	stw	r18,56(sp)
  807650:	dc400d15 	stw	r17,52(sp)
  807654:	147e720e 	bge	r2,r17,807020 <___vfprintf_internal_r+0x7b0>
  807658:	d9014f17 	ldw	r4,1340(sp)
  80765c:	b00b883a 	mov	r5,r22
  807660:	d9800c04 	addi	r6,sp,48
  807664:	08068180 	call	806818 <__sprint_r>
  807668:	103e391e 	bne	r2,zero,806f50 <___vfprintf_internal_r+0x6e0>
  80766c:	dc800e17 	ldw	r18,56(sp)
  807670:	dc400d17 	ldw	r17,52(sp)
  807674:	dcc01904 	addi	r19,sp,100
  807678:	003e6a06 	br	807024 <___vfprintf_internal_r+0x7b4>
  80767c:	d9014f17 	ldw	r4,1340(sp)
  807680:	b00b883a 	mov	r5,r22
  807684:	d9800c04 	addi	r6,sp,48
  807688:	d9c15115 	stw	r7,1348(sp)
  80768c:	08068180 	call	806818 <__sprint_r>
  807690:	d9c15117 	ldw	r7,1348(sp)
  807694:	103e2e1e 	bne	r2,zero,806f50 <___vfprintf_internal_r+0x6e0>
  807698:	dc800e17 	ldw	r18,56(sp)
  80769c:	dc400d17 	ldw	r17,52(sp)
  8076a0:	dd401904 	addi	r21,sp,100
  8076a4:	003dba06 	br	806d90 <___vfprintf_internal_r+0x520>
  8076a8:	d9014f17 	ldw	r4,1340(sp)
  8076ac:	b00b883a 	mov	r5,r22
  8076b0:	d9800c04 	addi	r6,sp,48
  8076b4:	08068180 	call	806818 <__sprint_r>
  8076b8:	103e251e 	bne	r2,zero,806f50 <___vfprintf_internal_r+0x6e0>
  8076bc:	dc800e17 	ldw	r18,56(sp)
  8076c0:	dc400d17 	ldw	r17,52(sp)
  8076c4:	dcc01904 	addi	r19,sp,100
  8076c8:	003e4206 	br	806fd4 <___vfprintf_internal_r+0x764>
  8076cc:	d9014f17 	ldw	r4,1340(sp)
  8076d0:	b00b883a 	mov	r5,r22
  8076d4:	d9800c04 	addi	r6,sp,48
  8076d8:	08068180 	call	806818 <__sprint_r>
  8076dc:	103e1c1e 	bne	r2,zero,806f50 <___vfprintf_internal_r+0x6e0>
  8076e0:	dc800e17 	ldw	r18,56(sp)
  8076e4:	dc400d17 	ldw	r17,52(sp)
  8076e8:	d8c01904 	addi	r3,sp,100
  8076ec:	003e2e06 	br	806fa8 <___vfprintf_internal_r+0x738>
  8076f0:	d9414c17 	ldw	r5,1328(sp)
  8076f4:	2880004c 	andi	r2,r5,1
  8076f8:	1005003a 	cmpeq	r2,r2,zero
  8076fc:	103dda1e 	bne	r2,zero,806e68 <___vfprintf_internal_r+0x5f8>
  807700:	003e9f06 	br	807180 <___vfprintf_internal_r+0x910>
  807704:	d8c14117 	ldw	r3,1284(sp)
  807708:	9125883a 	add	r18,r18,r4
  80770c:	8c400044 	addi	r17,r17,1
  807710:	008001c4 	movi	r2,7
  807714:	a8c00015 	stw	r3,0(r21)
  807718:	a9000115 	stw	r4,4(r21)
  80771c:	dc800e15 	stw	r18,56(sp)
  807720:	dc400d15 	stw	r17,52(sp)
  807724:	14426c16 	blt	r2,r17,8080d8 <___vfprintf_internal_r+0x1868>
  807728:	a8c00204 	addi	r3,r21,8
  80772c:	d9414917 	ldw	r5,1316(sp)
  807730:	00800044 	movi	r2,1
  807734:	94800044 	addi	r18,r18,1
  807738:	8c400044 	addi	r17,r17,1
  80773c:	18800115 	stw	r2,4(r3)
  807740:	008001c4 	movi	r2,7
  807744:	19400015 	stw	r5,0(r3)
  807748:	dc800e15 	stw	r18,56(sp)
  80774c:	dc400d15 	stw	r17,52(sp)
  807750:	2021883a 	mov	r16,r4
  807754:	14425616 	blt	r2,r17,8080b0 <___vfprintf_internal_r+0x1840>
  807758:	19400204 	addi	r5,r3,8
  80775c:	d9814717 	ldw	r6,1308(sp)
  807760:	8c400044 	addi	r17,r17,1
  807764:	dc400d15 	stw	r17,52(sp)
  807768:	3107c83a 	sub	r3,r6,r4
  80776c:	d9014117 	ldw	r4,1284(sp)
  807770:	90e5883a 	add	r18,r18,r3
  807774:	28c00115 	stw	r3,4(r5)
  807778:	8105883a 	add	r2,r16,r4
  80777c:	28800015 	stw	r2,0(r5)
  807780:	008001c4 	movi	r2,7
  807784:	dc800e15 	stw	r18,56(sp)
  807788:	147f1d16 	blt	r2,r17,807400 <___vfprintf_internal_r+0xb90>
  80778c:	28c00204 	addi	r3,r5,8
  807790:	003db506 	br	806e68 <___vfprintf_internal_r+0x5f8>
  807794:	3c000017 	ldw	r16,0(r7)
  807798:	3c400117 	ldw	r17,4(r7)
  80779c:	39800204 	addi	r6,r7,8
  8077a0:	01000044 	movi	r4,1
  8077a4:	d9814015 	stw	r6,1280(sp)
  8077a8:	d8000405 	stb	zero,16(sp)
  8077ac:	003ebe06 	br	8072a8 <___vfprintf_internal_r+0xa38>
  8077b0:	3c000017 	ldw	r16,0(r7)
  8077b4:	3c400117 	ldw	r17,4(r7)
  8077b8:	38800204 	addi	r2,r7,8
  8077bc:	d8814015 	stw	r2,1280(sp)
  8077c0:	003eb706 	br	8072a0 <___vfprintf_internal_r+0xa30>
  8077c4:	3c000017 	ldw	r16,0(r7)
  8077c8:	3c400117 	ldw	r17,4(r7)
  8077cc:	39000204 	addi	r4,r7,8
  8077d0:	d9014015 	stw	r4,1280(sp)
  8077d4:	0009883a 	mov	r4,zero
  8077d8:	d8000405 	stb	zero,16(sp)
  8077dc:	003eb206 	br	8072a8 <___vfprintf_internal_r+0xa38>
  8077e0:	38c00017 	ldw	r3,0(r7)
  8077e4:	39c00104 	addi	r7,r7,4
  8077e8:	d8c14a15 	stw	r3,1320(sp)
  8077ec:	1800d70e 	bge	r3,zero,807b4c <___vfprintf_internal_r+0x12dc>
  8077f0:	00c7c83a 	sub	r3,zero,r3
  8077f4:	d8c14a15 	stw	r3,1320(sp)
  8077f8:	d9014c17 	ldw	r4,1328(sp)
  8077fc:	b8c00007 	ldb	r3,0(r23)
  807800:	21000114 	ori	r4,r4,4
  807804:	d9014c15 	stw	r4,1328(sp)
  807808:	003c9806 	br	806a6c <___vfprintf_internal_r+0x1fc>
  80780c:	d9814c17 	ldw	r6,1328(sp)
  807810:	3080080c 	andi	r2,r6,32
  807814:	1001f626 	beq	r2,zero,807ff0 <___vfprintf_internal_r+0x1780>
  807818:	d9014b17 	ldw	r4,1324(sp)
  80781c:	38800017 	ldw	r2,0(r7)
  807820:	39c00104 	addi	r7,r7,4
  807824:	d9c14015 	stw	r7,1280(sp)
  807828:	2007d7fa 	srai	r3,r4,31
  80782c:	d9c14017 	ldw	r7,1280(sp)
  807830:	11000015 	stw	r4,0(r2)
  807834:	10c00115 	stw	r3,4(r2)
  807838:	003c6906 	br	8069e0 <___vfprintf_internal_r+0x170>
  80783c:	b8c00007 	ldb	r3,0(r23)
  807840:	00801b04 	movi	r2,108
  807844:	18825526 	beq	r3,r2,80819c <___vfprintf_internal_r+0x192c>
  807848:	d9414c17 	ldw	r5,1328(sp)
  80784c:	29400414 	ori	r5,r5,16
  807850:	d9414c15 	stw	r5,1328(sp)
  807854:	003c8506 	br	806a6c <___vfprintf_internal_r+0x1fc>
  807858:	d9814c17 	ldw	r6,1328(sp)
  80785c:	b8c00007 	ldb	r3,0(r23)
  807860:	31800814 	ori	r6,r6,32
  807864:	d9814c15 	stw	r6,1328(sp)
  807868:	003c8006 	br	806a6c <___vfprintf_internal_r+0x1fc>
  80786c:	d8814c17 	ldw	r2,1328(sp)
  807870:	3c000017 	ldw	r16,0(r7)
  807874:	00c01e04 	movi	r3,120
  807878:	10800094 	ori	r2,r2,2
  80787c:	d8814c15 	stw	r2,1328(sp)
  807880:	39c00104 	addi	r7,r7,4
  807884:	01402074 	movhi	r5,129
  807888:	294c3c04 	addi	r5,r5,12528
  80788c:	00800c04 	movi	r2,48
  807890:	0023883a 	mov	r17,zero
  807894:	01000084 	movi	r4,2
  807898:	d9c14015 	stw	r7,1280(sp)
  80789c:	d8c14d15 	stw	r3,1332(sp)
  8078a0:	d9414415 	stw	r5,1296(sp)
  8078a4:	d8800445 	stb	r2,17(sp)
  8078a8:	d8c00485 	stb	r3,18(sp)
  8078ac:	d8000405 	stb	zero,16(sp)
  8078b0:	003e7d06 	br	8072a8 <___vfprintf_internal_r+0xa38>
  8078b4:	d8814c17 	ldw	r2,1328(sp)
  8078b8:	b8c00007 	ldb	r3,0(r23)
  8078bc:	10801014 	ori	r2,r2,64
  8078c0:	d8814c15 	stw	r2,1328(sp)
  8078c4:	003c6906 	br	806a6c <___vfprintf_internal_r+0x1fc>
  8078c8:	d9414c17 	ldw	r5,1328(sp)
  8078cc:	2880020c 	andi	r2,r5,8
  8078d0:	1001e526 	beq	r2,zero,808068 <___vfprintf_internal_r+0x17f8>
  8078d4:	39800017 	ldw	r6,0(r7)
  8078d8:	38800204 	addi	r2,r7,8
  8078dc:	d8814015 	stw	r2,1280(sp)
  8078e0:	d9814215 	stw	r6,1288(sp)
  8078e4:	39c00117 	ldw	r7,4(r7)
  8078e8:	d9c14315 	stw	r7,1292(sp)
  8078ec:	d9014217 	ldw	r4,1288(sp)
  8078f0:	d9414317 	ldw	r5,1292(sp)
  8078f4:	080d46c0 	call	80d46c <__isinfd>
  8078f8:	10021d26 	beq	r2,zero,808170 <___vfprintf_internal_r+0x1900>
  8078fc:	d9014217 	ldw	r4,1288(sp)
  807900:	d9414317 	ldw	r5,1292(sp)
  807904:	000d883a 	mov	r6,zero
  807908:	000f883a 	mov	r7,zero
  80790c:	080f2500 	call	80f250 <__ltdf2>
  807910:	1002d016 	blt	r2,zero,808454 <___vfprintf_internal_r+0x1be4>
  807914:	d9414d17 	ldw	r5,1332(sp)
  807918:	008011c4 	movi	r2,71
  80791c:	11421016 	blt	r2,r5,808160 <___vfprintf_internal_r+0x18f0>
  807920:	01802074 	movhi	r6,129
  807924:	318c4104 	addi	r6,r6,12548
  807928:	d9814115 	stw	r6,1284(sp)
  80792c:	d9014c17 	ldw	r4,1328(sp)
  807930:	00c000c4 	movi	r3,3
  807934:	00bfdfc4 	movi	r2,-129
  807938:	2088703a 	and	r4,r4,r2
  80793c:	180f883a 	mov	r7,r3
  807940:	d8c14515 	stw	r3,1300(sp)
  807944:	d9014c15 	stw	r4,1328(sp)
  807948:	d8014615 	stw	zero,1304(sp)
  80794c:	003e6a06 	br	8072f8 <___vfprintf_internal_r+0xa88>
  807950:	38800017 	ldw	r2,0(r7)
  807954:	00c00044 	movi	r3,1
  807958:	39c00104 	addi	r7,r7,4
  80795c:	d9c14015 	stw	r7,1280(sp)
  807960:	d9000f04 	addi	r4,sp,60
  807964:	180f883a 	mov	r7,r3
  807968:	d8c14515 	stw	r3,1300(sp)
  80796c:	d9014115 	stw	r4,1284(sp)
  807970:	d8800f05 	stb	r2,60(sp)
  807974:	d8000405 	stb	zero,16(sp)
  807978:	003cac06 	br	806c2c <___vfprintf_internal_r+0x3bc>
  80797c:	01402074 	movhi	r5,129
  807980:	294c4704 	addi	r5,r5,12572
  807984:	d9414415 	stw	r5,1296(sp)
  807988:	d9814c17 	ldw	r6,1328(sp)
  80798c:	3080080c 	andi	r2,r6,32
  807990:	1000ff26 	beq	r2,zero,807d90 <___vfprintf_internal_r+0x1520>
  807994:	3c000017 	ldw	r16,0(r7)
  807998:	3c400117 	ldw	r17,4(r7)
  80799c:	38800204 	addi	r2,r7,8
  8079a0:	d8814015 	stw	r2,1280(sp)
  8079a4:	d9414c17 	ldw	r5,1328(sp)
  8079a8:	2880004c 	andi	r2,r5,1
  8079ac:	1005003a 	cmpeq	r2,r2,zero
  8079b0:	1000b91e 	bne	r2,zero,807c98 <___vfprintf_internal_r+0x1428>
  8079b4:	8444b03a 	or	r2,r16,r17
  8079b8:	1000b726 	beq	r2,zero,807c98 <___vfprintf_internal_r+0x1428>
  8079bc:	d9814d17 	ldw	r6,1332(sp)
  8079c0:	29400094 	ori	r5,r5,2
  8079c4:	00800c04 	movi	r2,48
  8079c8:	01000084 	movi	r4,2
  8079cc:	d9414c15 	stw	r5,1328(sp)
  8079d0:	d8800445 	stb	r2,17(sp)
  8079d4:	d9800485 	stb	r6,18(sp)
  8079d8:	d8000405 	stb	zero,16(sp)
  8079dc:	003e3206 	br	8072a8 <___vfprintf_internal_r+0xa38>
  8079e0:	01802074 	movhi	r6,129
  8079e4:	318c3c04 	addi	r6,r6,12528
  8079e8:	d9814415 	stw	r6,1296(sp)
  8079ec:	003fe606 	br	807988 <___vfprintf_internal_r+0x1118>
  8079f0:	00800ac4 	movi	r2,43
  8079f4:	d8800405 	stb	r2,16(sp)
  8079f8:	b8c00007 	ldb	r3,0(r23)
  8079fc:	003c1b06 	br	806a6c <___vfprintf_internal_r+0x1fc>
  807a00:	d8814c17 	ldw	r2,1328(sp)
  807a04:	b8c00007 	ldb	r3,0(r23)
  807a08:	10800054 	ori	r2,r2,1
  807a0c:	d8814c15 	stw	r2,1328(sp)
  807a10:	003c1606 	br	806a6c <___vfprintf_internal_r+0x1fc>
  807a14:	d8800407 	ldb	r2,16(sp)
  807a18:	10004c1e 	bne	r2,zero,807b4c <___vfprintf_internal_r+0x12dc>
  807a1c:	00800804 	movi	r2,32
  807a20:	d8800405 	stb	r2,16(sp)
  807a24:	b8c00007 	ldb	r3,0(r23)
  807a28:	003c1006 	br	806a6c <___vfprintf_internal_r+0x1fc>
  807a2c:	d9814c17 	ldw	r6,1328(sp)
  807a30:	b8c00007 	ldb	r3,0(r23)
  807a34:	31800214 	ori	r6,r6,8
  807a38:	d9814c15 	stw	r6,1328(sp)
  807a3c:	003c0b06 	br	806a6c <___vfprintf_internal_r+0x1fc>
  807a40:	0009883a 	mov	r4,zero
  807a44:	04000244 	movi	r16,9
  807a48:	01400284 	movi	r5,10
  807a4c:	d9c15115 	stw	r7,1348(sp)
  807a50:	080f46c0 	call	80f46c <__mulsi3>
  807a54:	b9000007 	ldb	r4,0(r23)
  807a58:	d8c14d17 	ldw	r3,1332(sp)
  807a5c:	bdc00044 	addi	r23,r23,1
  807a60:	d9014d15 	stw	r4,1332(sp)
  807a64:	d9414d17 	ldw	r5,1332(sp)
  807a68:	1885883a 	add	r2,r3,r2
  807a6c:	113ff404 	addi	r4,r2,-48
  807a70:	28bff404 	addi	r2,r5,-48
  807a74:	d9c15117 	ldw	r7,1348(sp)
  807a78:	80bff32e 	bgeu	r16,r2,807a48 <___vfprintf_internal_r+0x11d8>
  807a7c:	d9014a15 	stw	r4,1320(sp)
  807a80:	003bfc06 	br	806a74 <___vfprintf_internal_r+0x204>
  807a84:	d8814c17 	ldw	r2,1328(sp)
  807a88:	b8c00007 	ldb	r3,0(r23)
  807a8c:	10802014 	ori	r2,r2,128
  807a90:	d8814c15 	stw	r2,1328(sp)
  807a94:	003bf506 	br	806a6c <___vfprintf_internal_r+0x1fc>
  807a98:	b8c00007 	ldb	r3,0(r23)
  807a9c:	00800a84 	movi	r2,42
  807aa0:	bdc00044 	addi	r23,r23,1
  807aa4:	18831826 	beq	r3,r2,808708 <___vfprintf_internal_r+0x1e98>
  807aa8:	d8c14d15 	stw	r3,1332(sp)
  807aac:	18bff404 	addi	r2,r3,-48
  807ab0:	00c00244 	movi	r3,9
  807ab4:	18827b36 	bltu	r3,r2,8084a4 <___vfprintf_internal_r+0x1c34>
  807ab8:	1821883a 	mov	r16,r3
  807abc:	0009883a 	mov	r4,zero
  807ac0:	01400284 	movi	r5,10
  807ac4:	d9c15115 	stw	r7,1348(sp)
  807ac8:	080f46c0 	call	80f46c <__mulsi3>
  807acc:	d9414d17 	ldw	r5,1332(sp)
  807ad0:	b9800007 	ldb	r6,0(r23)
  807ad4:	d9c15117 	ldw	r7,1348(sp)
  807ad8:	1145883a 	add	r2,r2,r5
  807adc:	113ff404 	addi	r4,r2,-48
  807ae0:	30bff404 	addi	r2,r6,-48
  807ae4:	d9814d15 	stw	r6,1332(sp)
  807ae8:	bdc00044 	addi	r23,r23,1
  807aec:	80bff42e 	bgeu	r16,r2,807ac0 <___vfprintf_internal_r+0x1250>
  807af0:	2027883a 	mov	r19,r4
  807af4:	203bdf0e 	bge	r4,zero,806a74 <___vfprintf_internal_r+0x204>
  807af8:	04ffffc4 	movi	r19,-1
  807afc:	003bdd06 	br	806a74 <___vfprintf_internal_r+0x204>
  807b00:	d8000405 	stb	zero,16(sp)
  807b04:	39800017 	ldw	r6,0(r7)
  807b08:	39c00104 	addi	r7,r7,4
  807b0c:	d9c14015 	stw	r7,1280(sp)
  807b10:	d9814115 	stw	r6,1284(sp)
  807b14:	3001c926 	beq	r6,zero,80823c <___vfprintf_internal_r+0x19cc>
  807b18:	98000e16 	blt	r19,zero,807b54 <___vfprintf_internal_r+0x12e4>
  807b1c:	d9014117 	ldw	r4,1284(sp)
  807b20:	000b883a 	mov	r5,zero
  807b24:	980d883a 	mov	r6,r19
  807b28:	080b9a40 	call	80b9a4 <memchr>
  807b2c:	10025926 	beq	r2,zero,808494 <___vfprintf_internal_r+0x1c24>
  807b30:	d8c14117 	ldw	r3,1284(sp)
  807b34:	10cfc83a 	sub	r7,r2,r3
  807b38:	99c19e16 	blt	r19,r7,8081b4 <___vfprintf_internal_r+0x1944>
  807b3c:	d9c14515 	stw	r7,1300(sp)
  807b40:	38000916 	blt	r7,zero,807b68 <___vfprintf_internal_r+0x12f8>
  807b44:	d8014615 	stw	zero,1304(sp)
  807b48:	003deb06 	br	8072f8 <___vfprintf_internal_r+0xa88>
  807b4c:	b8c00007 	ldb	r3,0(r23)
  807b50:	003bc606 	br	806a6c <___vfprintf_internal_r+0x1fc>
  807b54:	d9014117 	ldw	r4,1284(sp)
  807b58:	08065300 	call	806530 <strlen>
  807b5c:	d8814515 	stw	r2,1300(sp)
  807b60:	100f883a 	mov	r7,r2
  807b64:	103ff70e 	bge	r2,zero,807b44 <___vfprintf_internal_r+0x12d4>
  807b68:	d8014515 	stw	zero,1300(sp)
  807b6c:	d8014615 	stw	zero,1304(sp)
  807b70:	003de106 	br	8072f8 <___vfprintf_internal_r+0xa88>
  807b74:	20c03fcc 	andi	r3,r4,255
  807b78:	00800044 	movi	r2,1
  807b7c:	18802d26 	beq	r3,r2,807c34 <___vfprintf_internal_r+0x13c4>
  807b80:	18800e36 	bltu	r3,r2,807bbc <___vfprintf_internal_r+0x134c>
  807b84:	00800084 	movi	r2,2
  807b88:	1880fa26 	beq	r3,r2,807f74 <___vfprintf_internal_r+0x1704>
  807b8c:	01002074 	movhi	r4,129
  807b90:	210c4c04 	addi	r4,r4,12592
  807b94:	08065300 	call	806530 <strlen>
  807b98:	100f883a 	mov	r7,r2
  807b9c:	dcc14515 	stw	r19,1300(sp)
  807ba0:	9880010e 	bge	r19,r2,807ba8 <___vfprintf_internal_r+0x1338>
  807ba4:	d8814515 	stw	r2,1300(sp)
  807ba8:	00802074 	movhi	r2,129
  807bac:	108c4c04 	addi	r2,r2,12592
  807bb0:	dcc14615 	stw	r19,1304(sp)
  807bb4:	d8814115 	stw	r2,1284(sp)
  807bb8:	003dcf06 	br	8072f8 <___vfprintf_internal_r+0xa88>
  807bbc:	d9401904 	addi	r5,sp,100
  807bc0:	dd000f04 	addi	r20,sp,60
  807bc4:	d9414115 	stw	r5,1284(sp)
  807bc8:	880a977a 	slli	r5,r17,29
  807bcc:	d9814117 	ldw	r6,1284(sp)
  807bd0:	8004d0fa 	srli	r2,r16,3
  807bd4:	8806d0fa 	srli	r3,r17,3
  807bd8:	810001cc 	andi	r4,r16,7
  807bdc:	2884b03a 	or	r2,r5,r2
  807be0:	31bfffc4 	addi	r6,r6,-1
  807be4:	21000c04 	addi	r4,r4,48
  807be8:	d9814115 	stw	r6,1284(sp)
  807bec:	10cab03a 	or	r5,r2,r3
  807bf0:	31000005 	stb	r4,0(r6)
  807bf4:	1021883a 	mov	r16,r2
  807bf8:	1823883a 	mov	r17,r3
  807bfc:	283ff21e 	bne	r5,zero,807bc8 <___vfprintf_internal_r+0x1358>
  807c00:	d8c14c17 	ldw	r3,1328(sp)
  807c04:	1880004c 	andi	r2,r3,1
  807c08:	1005003a 	cmpeq	r2,r2,zero
  807c0c:	103db31e 	bne	r2,zero,8072dc <___vfprintf_internal_r+0xa6c>
  807c10:	20803fcc 	andi	r2,r4,255
  807c14:	1080201c 	xori	r2,r2,128
  807c18:	10bfe004 	addi	r2,r2,-128
  807c1c:	00c00c04 	movi	r3,48
  807c20:	10fdae26 	beq	r2,r3,8072dc <___vfprintf_internal_r+0xa6c>
  807c24:	31bfffc4 	addi	r6,r6,-1
  807c28:	d9814115 	stw	r6,1284(sp)
  807c2c:	30c00005 	stb	r3,0(r6)
  807c30:	003daa06 	br	8072dc <___vfprintf_internal_r+0xa6c>
  807c34:	88800068 	cmpgeui	r2,r17,1
  807c38:	10002c1e 	bne	r2,zero,807cec <___vfprintf_internal_r+0x147c>
  807c3c:	8800021e 	bne	r17,zero,807c48 <___vfprintf_internal_r+0x13d8>
  807c40:	00800244 	movi	r2,9
  807c44:	14002936 	bltu	r2,r16,807cec <___vfprintf_internal_r+0x147c>
  807c48:	d90018c4 	addi	r4,sp,99
  807c4c:	dd000f04 	addi	r20,sp,60
  807c50:	d9014115 	stw	r4,1284(sp)
  807c54:	d9014117 	ldw	r4,1284(sp)
  807c58:	80800c04 	addi	r2,r16,48
  807c5c:	20800005 	stb	r2,0(r4)
  807c60:	003d9e06 	br	8072dc <___vfprintf_internal_r+0xa6c>
  807c64:	dc400d17 	ldw	r17,52(sp)
  807c68:	07002074 	movhi	fp,129
  807c6c:	e70c5384 	addi	fp,fp,12622
  807c70:	9425883a 	add	r18,r18,r16
  807c74:	8c400044 	addi	r17,r17,1
  807c78:	008001c4 	movi	r2,7
  807c7c:	1f000015 	stw	fp,0(r3)
  807c80:	1c000115 	stw	r16,4(r3)
  807c84:	dc800e15 	stw	r18,56(sp)
  807c88:	dc400d15 	stw	r17,52(sp)
  807c8c:	147ddc16 	blt	r2,r17,807400 <___vfprintf_internal_r+0xb90>
  807c90:	18c00204 	addi	r3,r3,8
  807c94:	003c7406 	br	806e68 <___vfprintf_internal_r+0x5f8>
  807c98:	01000084 	movi	r4,2
  807c9c:	d8000405 	stb	zero,16(sp)
  807ca0:	003d8106 	br	8072a8 <___vfprintf_internal_r+0xa38>
  807ca4:	d9814c17 	ldw	r6,1328(sp)
  807ca8:	30c4703a 	and	r2,r6,r3
  807cac:	1005003a 	cmpeq	r2,r2,zero
  807cb0:	103cb326 	beq	r2,zero,806f80 <___vfprintf_internal_r+0x710>
  807cb4:	d9014117 	ldw	r4,1284(sp)
  807cb8:	94800044 	addi	r18,r18,1
  807cbc:	8c400044 	addi	r17,r17,1
  807cc0:	008001c4 	movi	r2,7
  807cc4:	a9000015 	stw	r4,0(r21)
  807cc8:	a8c00115 	stw	r3,4(r21)
  807ccc:	dc800e15 	stw	r18,56(sp)
  807cd0:	dc400d15 	stw	r17,52(sp)
  807cd4:	147e6016 	blt	r2,r17,807658 <___vfprintf_internal_r+0xde8>
  807cd8:	acc00204 	addi	r19,r21,8
  807cdc:	003cd106 	br	807024 <___vfprintf_internal_r+0x7b4>
  807ce0:	07002074 	movhi	fp,129
  807ce4:	e70c5384 	addi	fp,fp,12622
  807ce8:	003c4906 	br	806e10 <___vfprintf_internal_r+0x5a0>
  807cec:	dd000f04 	addi	r20,sp,60
  807cf0:	dc801904 	addi	r18,sp,100
  807cf4:	8009883a 	mov	r4,r16
  807cf8:	880b883a 	mov	r5,r17
  807cfc:	01800284 	movi	r6,10
  807d00:	000f883a 	mov	r7,zero
  807d04:	080e3b40 	call	80e3b4 <__umoddi3>
  807d08:	12000c04 	addi	r8,r2,48
  807d0c:	94bfffc4 	addi	r18,r18,-1
  807d10:	8009883a 	mov	r4,r16
  807d14:	880b883a 	mov	r5,r17
  807d18:	01800284 	movi	r6,10
  807d1c:	000f883a 	mov	r7,zero
  807d20:	92000005 	stb	r8,0(r18)
  807d24:	080dd480 	call	80dd48 <__udivdi3>
  807d28:	1009883a 	mov	r4,r2
  807d2c:	1021883a 	mov	r16,r2
  807d30:	18800068 	cmpgeui	r2,r3,1
  807d34:	1823883a 	mov	r17,r3
  807d38:	103fee1e 	bne	r2,zero,807cf4 <___vfprintf_internal_r+0x1484>
  807d3c:	1800021e 	bne	r3,zero,807d48 <___vfprintf_internal_r+0x14d8>
  807d40:	00800244 	movi	r2,9
  807d44:	113feb36 	bltu	r2,r4,807cf4 <___vfprintf_internal_r+0x1484>
  807d48:	94bfffc4 	addi	r18,r18,-1
  807d4c:	dc814115 	stw	r18,1284(sp)
  807d50:	003fc006 	br	807c54 <___vfprintf_internal_r+0x13e4>
  807d54:	d9014c17 	ldw	r4,1328(sp)
  807d58:	2080004c 	andi	r2,r4,1
  807d5c:	10009a1e 	bne	r2,zero,807fc8 <___vfprintf_internal_r+0x1758>
  807d60:	d9401904 	addi	r5,sp,100
  807d64:	dd000f04 	addi	r20,sp,60
  807d68:	d9414115 	stw	r5,1284(sp)
  807d6c:	003d5b06 	br	8072dc <___vfprintf_internal_r+0xa6c>
  807d70:	d9014f17 	ldw	r4,1340(sp)
  807d74:	b00b883a 	mov	r5,r22
  807d78:	d9800c04 	addi	r6,sp,48
  807d7c:	08068180 	call	806818 <__sprint_r>
  807d80:	103c731e 	bne	r2,zero,806f50 <___vfprintf_internal_r+0x6e0>
  807d84:	dc800e17 	ldw	r18,56(sp)
  807d88:	d8c01904 	addi	r3,sp,100
  807d8c:	003cf906 	br	807174 <___vfprintf_internal_r+0x904>
  807d90:	d8c14c17 	ldw	r3,1328(sp)
  807d94:	1880040c 	andi	r2,r3,16
  807d98:	1000711e 	bne	r2,zero,807f60 <___vfprintf_internal_r+0x16f0>
  807d9c:	d9014c17 	ldw	r4,1328(sp)
  807da0:	2080100c 	andi	r2,r4,64
  807da4:	10006e26 	beq	r2,zero,807f60 <___vfprintf_internal_r+0x16f0>
  807da8:	3c00000b 	ldhu	r16,0(r7)
  807dac:	0023883a 	mov	r17,zero
  807db0:	39c00104 	addi	r7,r7,4
  807db4:	d9c14015 	stw	r7,1280(sp)
  807db8:	003efa06 	br	8079a4 <___vfprintf_internal_r+0x1134>
  807dbc:	dc400d17 	ldw	r17,52(sp)
  807dc0:	07002074 	movhi	fp,129
  807dc4:	e70c5384 	addi	fp,fp,12622
  807dc8:	9425883a 	add	r18,r18,r16
  807dcc:	8c400044 	addi	r17,r17,1
  807dd0:	008001c4 	movi	r2,7
  807dd4:	1f000015 	stw	fp,0(r3)
  807dd8:	1c000115 	stw	r16,4(r3)
  807ddc:	dc800e15 	stw	r18,56(sp)
  807de0:	dc400d15 	stw	r17,52(sp)
  807de4:	147d7016 	blt	r2,r17,8073a8 <___vfprintf_internal_r+0xb38>
  807de8:	18c00204 	addi	r3,r3,8
  807dec:	003d7506 	br	8073c4 <___vfprintf_internal_r+0xb54>
  807df0:	dc800e17 	ldw	r18,56(sp)
  807df4:	dc400d17 	ldw	r17,52(sp)
  807df8:	07002074 	movhi	fp,129
  807dfc:	e70c5784 	addi	fp,fp,12638
  807e00:	003bba06 	br	806cec <___vfprintf_internal_r+0x47c>
  807e04:	d9014f17 	ldw	r4,1340(sp)
  807e08:	b00b883a 	mov	r5,r22
  807e0c:	d9800c04 	addi	r6,sp,48
  807e10:	08068180 	call	806818 <__sprint_r>
  807e14:	103c4e1e 	bne	r2,zero,806f50 <___vfprintf_internal_r+0x6e0>
  807e18:	dc800e17 	ldw	r18,56(sp)
  807e1c:	d8c01904 	addi	r3,sp,100
  807e20:	003ce306 	br	8071b0 <___vfprintf_internal_r+0x940>
  807e24:	3c000017 	ldw	r16,0(r7)
  807e28:	0009883a 	mov	r4,zero
  807e2c:	39c00104 	addi	r7,r7,4
  807e30:	0023883a 	mov	r17,zero
  807e34:	d9c14015 	stw	r7,1280(sp)
  807e38:	d8000405 	stb	zero,16(sp)
  807e3c:	003d1a06 	br	8072a8 <___vfprintf_internal_r+0xa38>
  807e40:	38800017 	ldw	r2,0(r7)
  807e44:	39c00104 	addi	r7,r7,4
  807e48:	d9c14015 	stw	r7,1280(sp)
  807e4c:	1023d7fa 	srai	r17,r2,31
  807e50:	1021883a 	mov	r16,r2
  807e54:	003d1206 	br	8072a0 <___vfprintf_internal_r+0xa30>
  807e58:	3c000017 	ldw	r16,0(r7)
  807e5c:	01000044 	movi	r4,1
  807e60:	39c00104 	addi	r7,r7,4
  807e64:	0023883a 	mov	r17,zero
  807e68:	d9c14015 	stw	r7,1280(sp)
  807e6c:	d8000405 	stb	zero,16(sp)
  807e70:	003d0d06 	br	8072a8 <___vfprintf_internal_r+0xa38>
  807e74:	00802074 	movhi	r2,129
  807e78:	108c5304 	addi	r2,r2,12620
  807e7c:	94800044 	addi	r18,r18,1
  807e80:	8c400044 	addi	r17,r17,1
  807e84:	a8800015 	stw	r2,0(r21)
  807e88:	00c00044 	movi	r3,1
  807e8c:	008001c4 	movi	r2,7
  807e90:	a8c00115 	stw	r3,4(r21)
  807e94:	dc800e15 	stw	r18,56(sp)
  807e98:	dc400d15 	stw	r17,52(sp)
  807e9c:	1440ca16 	blt	r2,r17,8081c8 <___vfprintf_internal_r+0x1958>
  807ea0:	a8c00204 	addi	r3,r21,8
  807ea4:	2000061e 	bne	r4,zero,807ec0 <___vfprintf_internal_r+0x1650>
  807ea8:	d9414717 	ldw	r5,1308(sp)
  807eac:	2800041e 	bne	r5,zero,807ec0 <___vfprintf_internal_r+0x1650>
  807eb0:	d9814c17 	ldw	r6,1328(sp)
  807eb4:	3080004c 	andi	r2,r6,1
  807eb8:	1005003a 	cmpeq	r2,r2,zero
  807ebc:	103bea1e 	bne	r2,zero,806e68 <___vfprintf_internal_r+0x5f8>
  807ec0:	00800044 	movi	r2,1
  807ec4:	dc400d17 	ldw	r17,52(sp)
  807ec8:	18800115 	stw	r2,4(r3)
  807ecc:	d8814917 	ldw	r2,1316(sp)
  807ed0:	94800044 	addi	r18,r18,1
  807ed4:	8c400044 	addi	r17,r17,1
  807ed8:	18800015 	stw	r2,0(r3)
  807edc:	008001c4 	movi	r2,7
  807ee0:	dc800e15 	stw	r18,56(sp)
  807ee4:	dc400d15 	stw	r17,52(sp)
  807ee8:	1440ca16 	blt	r2,r17,808214 <___vfprintf_internal_r+0x19a4>
  807eec:	18c00204 	addi	r3,r3,8
  807ef0:	0121c83a 	sub	r16,zero,r4
  807ef4:	0400500e 	bge	zero,r16,808038 <___vfprintf_internal_r+0x17c8>
  807ef8:	00800404 	movi	r2,16
  807efc:	1400800e 	bge	r2,r16,808100 <___vfprintf_internal_r+0x1890>
  807f00:	1027883a 	mov	r19,r2
  807f04:	07002074 	movhi	fp,129
  807f08:	e70c5384 	addi	fp,fp,12622
  807f0c:	050001c4 	movi	r20,7
  807f10:	00000306 	br	807f20 <___vfprintf_internal_r+0x16b0>
  807f14:	18c00204 	addi	r3,r3,8
  807f18:	843ffc04 	addi	r16,r16,-16
  807f1c:	9c007a0e 	bge	r19,r16,808108 <___vfprintf_internal_r+0x1898>
  807f20:	94800404 	addi	r18,r18,16
  807f24:	8c400044 	addi	r17,r17,1
  807f28:	1f000015 	stw	fp,0(r3)
  807f2c:	1cc00115 	stw	r19,4(r3)
  807f30:	dc800e15 	stw	r18,56(sp)
  807f34:	dc400d15 	stw	r17,52(sp)
  807f38:	a47ff60e 	bge	r20,r17,807f14 <___vfprintf_internal_r+0x16a4>
  807f3c:	d9014f17 	ldw	r4,1340(sp)
  807f40:	b00b883a 	mov	r5,r22
  807f44:	d9800c04 	addi	r6,sp,48
  807f48:	08068180 	call	806818 <__sprint_r>
  807f4c:	103c001e 	bne	r2,zero,806f50 <___vfprintf_internal_r+0x6e0>
  807f50:	dc800e17 	ldw	r18,56(sp)
  807f54:	dc400d17 	ldw	r17,52(sp)
  807f58:	d8c01904 	addi	r3,sp,100
  807f5c:	003fee06 	br	807f18 <___vfprintf_internal_r+0x16a8>
  807f60:	3c000017 	ldw	r16,0(r7)
  807f64:	0023883a 	mov	r17,zero
  807f68:	39c00104 	addi	r7,r7,4
  807f6c:	d9c14015 	stw	r7,1280(sp)
  807f70:	003e8c06 	br	8079a4 <___vfprintf_internal_r+0x1134>
  807f74:	d9401904 	addi	r5,sp,100
  807f78:	dd000f04 	addi	r20,sp,60
  807f7c:	d9414115 	stw	r5,1284(sp)
  807f80:	d9814417 	ldw	r6,1296(sp)
  807f84:	880a973a 	slli	r5,r17,28
  807f88:	8004d13a 	srli	r2,r16,4
  807f8c:	810003cc 	andi	r4,r16,15
  807f90:	3109883a 	add	r4,r6,r4
  807f94:	2884b03a 	or	r2,r5,r2
  807f98:	21400003 	ldbu	r5,0(r4)
  807f9c:	d9014117 	ldw	r4,1284(sp)
  807fa0:	8806d13a 	srli	r3,r17,4
  807fa4:	1021883a 	mov	r16,r2
  807fa8:	213fffc4 	addi	r4,r4,-1
  807fac:	d9014115 	stw	r4,1284(sp)
  807fb0:	d9814117 	ldw	r6,1284(sp)
  807fb4:	10c8b03a 	or	r4,r2,r3
  807fb8:	1823883a 	mov	r17,r3
  807fbc:	31400005 	stb	r5,0(r6)
  807fc0:	203fef1e 	bne	r4,zero,807f80 <___vfprintf_internal_r+0x1710>
  807fc4:	003cc506 	br	8072dc <___vfprintf_internal_r+0xa6c>
  807fc8:	00800c04 	movi	r2,48
  807fcc:	d98018c4 	addi	r6,sp,99
  807fd0:	dd000f04 	addi	r20,sp,60
  807fd4:	d88018c5 	stb	r2,99(sp)
  807fd8:	d9814115 	stw	r6,1284(sp)
  807fdc:	003cbf06 	br	8072dc <___vfprintf_internal_r+0xa6c>
  807fe0:	dc400d17 	ldw	r17,52(sp)
  807fe4:	07002074 	movhi	fp,129
  807fe8:	e70c5784 	addi	fp,fp,12638
  807fec:	003bc106 	br	806ef4 <___vfprintf_internal_r+0x684>
  807ff0:	d9414c17 	ldw	r5,1328(sp)
  807ff4:	2880040c 	andi	r2,r5,16
  807ff8:	10007c26 	beq	r2,zero,8081ec <___vfprintf_internal_r+0x197c>
  807ffc:	38800017 	ldw	r2,0(r7)
  808000:	39c00104 	addi	r7,r7,4
  808004:	d9c14015 	stw	r7,1280(sp)
  808008:	d9814b17 	ldw	r6,1324(sp)
  80800c:	d9c14017 	ldw	r7,1280(sp)
  808010:	11800015 	stw	r6,0(r2)
  808014:	003a7206 	br	8069e0 <___vfprintf_internal_r+0x170>
  808018:	d9014f17 	ldw	r4,1340(sp)
  80801c:	b00b883a 	mov	r5,r22
  808020:	d9800c04 	addi	r6,sp,48
  808024:	08068180 	call	806818 <__sprint_r>
  808028:	103bc91e 	bne	r2,zero,806f50 <___vfprintf_internal_r+0x6e0>
  80802c:	dc800e17 	ldw	r18,56(sp)
  808030:	dc400d17 	ldw	r17,52(sp)
  808034:	d8c01904 	addi	r3,sp,100
  808038:	d9014717 	ldw	r4,1308(sp)
  80803c:	d9414117 	ldw	r5,1284(sp)
  808040:	8c400044 	addi	r17,r17,1
  808044:	9125883a 	add	r18,r18,r4
  808048:	008001c4 	movi	r2,7
  80804c:	19400015 	stw	r5,0(r3)
  808050:	19000115 	stw	r4,4(r3)
  808054:	dc800e15 	stw	r18,56(sp)
  808058:	dc400d15 	stw	r17,52(sp)
  80805c:	147ce816 	blt	r2,r17,807400 <___vfprintf_internal_r+0xb90>
  808060:	18c00204 	addi	r3,r3,8
  808064:	003b8006 	br	806e68 <___vfprintf_internal_r+0x5f8>
  808068:	38c00017 	ldw	r3,0(r7)
  80806c:	39000204 	addi	r4,r7,8
  808070:	d9014015 	stw	r4,1280(sp)
  808074:	d8c14215 	stw	r3,1288(sp)
  808078:	39c00117 	ldw	r7,4(r7)
  80807c:	d9c14315 	stw	r7,1292(sp)
  808080:	003e1a06 	br	8078ec <___vfprintf_internal_r+0x107c>
  808084:	0005883a 	mov	r2,zero
  808088:	1409c83a 	sub	r4,r2,r16
  80808c:	1105803a 	cmpltu	r2,r2,r4
  808090:	044bc83a 	sub	r5,zero,r17
  808094:	2885c83a 	sub	r2,r5,r2
  808098:	2021883a 	mov	r16,r4
  80809c:	1023883a 	mov	r17,r2
  8080a0:	01000044 	movi	r4,1
  8080a4:	00800b44 	movi	r2,45
  8080a8:	d8800405 	stb	r2,16(sp)
  8080ac:	003c7e06 	br	8072a8 <___vfprintf_internal_r+0xa38>
  8080b0:	d9014f17 	ldw	r4,1340(sp)
  8080b4:	b00b883a 	mov	r5,r22
  8080b8:	d9800c04 	addi	r6,sp,48
  8080bc:	08068180 	call	806818 <__sprint_r>
  8080c0:	103ba31e 	bne	r2,zero,806f50 <___vfprintf_internal_r+0x6e0>
  8080c4:	dc800e17 	ldw	r18,56(sp)
  8080c8:	dc400d17 	ldw	r17,52(sp)
  8080cc:	d9000517 	ldw	r4,20(sp)
  8080d0:	d9401904 	addi	r5,sp,100
  8080d4:	003da106 	br	80775c <___vfprintf_internal_r+0xeec>
  8080d8:	d9014f17 	ldw	r4,1340(sp)
  8080dc:	b00b883a 	mov	r5,r22
  8080e0:	d9800c04 	addi	r6,sp,48
  8080e4:	08068180 	call	806818 <__sprint_r>
  8080e8:	103b991e 	bne	r2,zero,806f50 <___vfprintf_internal_r+0x6e0>
  8080ec:	dc800e17 	ldw	r18,56(sp)
  8080f0:	dc400d17 	ldw	r17,52(sp)
  8080f4:	d9000517 	ldw	r4,20(sp)
  8080f8:	d8c01904 	addi	r3,sp,100
  8080fc:	003d8b06 	br	80772c <___vfprintf_internal_r+0xebc>
  808100:	07002074 	movhi	fp,129
  808104:	e70c5384 	addi	fp,fp,12622
  808108:	9425883a 	add	r18,r18,r16
  80810c:	8c400044 	addi	r17,r17,1
  808110:	008001c4 	movi	r2,7
  808114:	1f000015 	stw	fp,0(r3)
  808118:	1c000115 	stw	r16,4(r3)
  80811c:	dc800e15 	stw	r18,56(sp)
  808120:	dc400d15 	stw	r17,52(sp)
  808124:	147fbc16 	blt	r2,r17,808018 <___vfprintf_internal_r+0x17a8>
  808128:	18c00204 	addi	r3,r3,8
  80812c:	003fc206 	br	808038 <___vfprintf_internal_r+0x17c8>
  808130:	d9014f17 	ldw	r4,1340(sp)
  808134:	b00b883a 	mov	r5,r22
  808138:	d9800c04 	addi	r6,sp,48
  80813c:	08068180 	call	806818 <__sprint_r>
  808140:	103b831e 	bne	r2,zero,806f50 <___vfprintf_internal_r+0x6e0>
  808144:	dc800e17 	ldw	r18,56(sp)
  808148:	d9000517 	ldw	r4,20(sp)
  80814c:	d8c01904 	addi	r3,sp,100
  808150:	003cfc06 	br	807544 <___vfprintf_internal_r+0xcd4>
  808154:	07002074 	movhi	fp,129
  808158:	e70c5384 	addi	fp,fp,12622
  80815c:	003bde06 	br	8070d8 <___vfprintf_internal_r+0x868>
  808160:	00802074 	movhi	r2,129
  808164:	108c4204 	addi	r2,r2,12552
  808168:	d8814115 	stw	r2,1284(sp)
  80816c:	003def06 	br	80792c <___vfprintf_internal_r+0x10bc>
  808170:	d9014217 	ldw	r4,1288(sp)
  808174:	d9414317 	ldw	r5,1292(sp)
  808178:	080d4ac0 	call	80d4ac <__isnand>
  80817c:	10003926 	beq	r2,zero,808264 <___vfprintf_internal_r+0x19f4>
  808180:	d9414d17 	ldw	r5,1332(sp)
  808184:	008011c4 	movi	r2,71
  808188:	1140ce16 	blt	r2,r5,8084c4 <___vfprintf_internal_r+0x1c54>
  80818c:	01802074 	movhi	r6,129
  808190:	318c4304 	addi	r6,r6,12556
  808194:	d9814115 	stw	r6,1284(sp)
  808198:	003de406 	br	80792c <___vfprintf_internal_r+0x10bc>
  80819c:	d9014c17 	ldw	r4,1328(sp)
  8081a0:	bdc00044 	addi	r23,r23,1
  8081a4:	b8c00007 	ldb	r3,0(r23)
  8081a8:	21000814 	ori	r4,r4,32
  8081ac:	d9014c15 	stw	r4,1328(sp)
  8081b0:	003a2e06 	br	806a6c <___vfprintf_internal_r+0x1fc>
  8081b4:	dcc14515 	stw	r19,1300(sp)
  8081b8:	98011016 	blt	r19,zero,8085fc <___vfprintf_internal_r+0x1d8c>
  8081bc:	980f883a 	mov	r7,r19
  8081c0:	d8014615 	stw	zero,1304(sp)
  8081c4:	003c4c06 	br	8072f8 <___vfprintf_internal_r+0xa88>
  8081c8:	d9014f17 	ldw	r4,1340(sp)
  8081cc:	b00b883a 	mov	r5,r22
  8081d0:	d9800c04 	addi	r6,sp,48
  8081d4:	08068180 	call	806818 <__sprint_r>
  8081d8:	103b5d1e 	bne	r2,zero,806f50 <___vfprintf_internal_r+0x6e0>
  8081dc:	dc800e17 	ldw	r18,56(sp)
  8081e0:	d9000517 	ldw	r4,20(sp)
  8081e4:	d8c01904 	addi	r3,sp,100
  8081e8:	003f2e06 	br	807ea4 <___vfprintf_internal_r+0x1634>
  8081ec:	d8c14c17 	ldw	r3,1328(sp)
  8081f0:	1880100c 	andi	r2,r3,64
  8081f4:	1000a026 	beq	r2,zero,808478 <___vfprintf_internal_r+0x1c08>
  8081f8:	38800017 	ldw	r2,0(r7)
  8081fc:	39c00104 	addi	r7,r7,4
  808200:	d9c14015 	stw	r7,1280(sp)
  808204:	d9014b17 	ldw	r4,1324(sp)
  808208:	d9c14017 	ldw	r7,1280(sp)
  80820c:	1100000d 	sth	r4,0(r2)
  808210:	0039f306 	br	8069e0 <___vfprintf_internal_r+0x170>
  808214:	d9014f17 	ldw	r4,1340(sp)
  808218:	b00b883a 	mov	r5,r22
  80821c:	d9800c04 	addi	r6,sp,48
  808220:	08068180 	call	806818 <__sprint_r>
  808224:	103b4a1e 	bne	r2,zero,806f50 <___vfprintf_internal_r+0x6e0>
  808228:	dc800e17 	ldw	r18,56(sp)
  80822c:	dc400d17 	ldw	r17,52(sp)
  808230:	d9000517 	ldw	r4,20(sp)
  808234:	d8c01904 	addi	r3,sp,100
  808238:	003f2d06 	br	807ef0 <___vfprintf_internal_r+0x1680>
  80823c:	00800184 	movi	r2,6
  808240:	14c09a36 	bltu	r2,r19,8084ac <___vfprintf_internal_r+0x1c3c>
  808244:	dcc14515 	stw	r19,1300(sp)
  808248:	9800010e 	bge	r19,zero,808250 <___vfprintf_internal_r+0x19e0>
  80824c:	d8014515 	stw	zero,1300(sp)
  808250:	00802074 	movhi	r2,129
  808254:	108c4504 	addi	r2,r2,12564
  808258:	980f883a 	mov	r7,r19
  80825c:	d8814115 	stw	r2,1284(sp)
  808260:	003a7206 	br	806c2c <___vfprintf_internal_r+0x3bc>
  808264:	00bfffc4 	movi	r2,-1
  808268:	9880e226 	beq	r19,r2,8085f4 <___vfprintf_internal_r+0x1d84>
  80826c:	d9414d17 	ldw	r5,1332(sp)
  808270:	008019c4 	movi	r2,103
  808274:	2880dc26 	beq	r5,r2,8085e8 <___vfprintf_internal_r+0x1d78>
  808278:	008011c4 	movi	r2,71
  80827c:	2880da26 	beq	r5,r2,8085e8 <___vfprintf_internal_r+0x1d78>
  808280:	d9414c17 	ldw	r5,1328(sp)
  808284:	d9014317 	ldw	r4,1292(sp)
  808288:	d9814217 	ldw	r6,1288(sp)
  80828c:	29404014 	ori	r5,r5,256
  808290:	d9414c15 	stw	r5,1328(sp)
  808294:	2000cc16 	blt	r4,zero,8085c8 <___vfprintf_internal_r+0x1d58>
  808298:	3021883a 	mov	r16,r6
  80829c:	2023883a 	mov	r17,r4
  8082a0:	0039883a 	mov	fp,zero
  8082a4:	d9414d17 	ldw	r5,1332(sp)
  8082a8:	00801984 	movi	r2,102
  8082ac:	2880b726 	beq	r5,r2,80858c <___vfprintf_internal_r+0x1d1c>
  8082b0:	00801184 	movi	r2,70
  8082b4:	2880b526 	beq	r5,r2,80858c <___vfprintf_internal_r+0x1d1c>
  8082b8:	00801944 	movi	r2,101
  8082bc:	2880c826 	beq	r5,r2,8085e0 <___vfprintf_internal_r+0x1d70>
  8082c0:	00801144 	movi	r2,69
  8082c4:	2880c626 	beq	r5,r2,8085e0 <___vfprintf_internal_r+0x1d70>
  8082c8:	9829883a 	mov	r20,r19
  8082cc:	d9014f17 	ldw	r4,1340(sp)
  8082d0:	d8800504 	addi	r2,sp,20
  8082d4:	880d883a 	mov	r6,r17
  8082d8:	d8800115 	stw	r2,4(sp)
  8082dc:	d8c00604 	addi	r3,sp,24
  8082e0:	d8800704 	addi	r2,sp,28
  8082e4:	800b883a 	mov	r5,r16
  8082e8:	01c00084 	movi	r7,2
  8082ec:	d8c00215 	stw	r3,8(sp)
  8082f0:	d8800315 	stw	r2,12(sp)
  8082f4:	dd000015 	stw	r20,0(sp)
  8082f8:	0808ad80 	call	808ad8 <_dtoa_r>
  8082fc:	d9814d17 	ldw	r6,1332(sp)
  808300:	d8814115 	stw	r2,1284(sp)
  808304:	008019c4 	movi	r2,103
  808308:	30809526 	beq	r6,r2,808560 <___vfprintf_internal_r+0x1cf0>
  80830c:	d8c14d17 	ldw	r3,1332(sp)
  808310:	008011c4 	movi	r2,71
  808314:	18809226 	beq	r3,r2,808560 <___vfprintf_internal_r+0x1cf0>
  808318:	d9414117 	ldw	r5,1284(sp)
  80831c:	d9814d17 	ldw	r6,1332(sp)
  808320:	00801984 	movi	r2,102
  808324:	2d25883a 	add	r18,r5,r20
  808328:	30808626 	beq	r6,r2,808544 <___vfprintf_internal_r+0x1cd4>
  80832c:	00801184 	movi	r2,70
  808330:	30808426 	beq	r6,r2,808544 <___vfprintf_internal_r+0x1cd4>
  808334:	000d883a 	mov	r6,zero
  808338:	000f883a 	mov	r7,zero
  80833c:	880b883a 	mov	r5,r17
  808340:	8009883a 	mov	r4,r16
  808344:	080f0300 	call	80f030 <__eqdf2>
  808348:	1000751e 	bne	r2,zero,808520 <___vfprintf_internal_r+0x1cb0>
  80834c:	9005883a 	mov	r2,r18
  808350:	dc800715 	stw	r18,28(sp)
  808354:	d9014117 	ldw	r4,1284(sp)
  808358:	d9414d17 	ldw	r5,1332(sp)
  80835c:	00c019c4 	movi	r3,103
  808360:	1125c83a 	sub	r18,r2,r4
  808364:	28c06826 	beq	r5,r3,808508 <___vfprintf_internal_r+0x1c98>
  808368:	008011c4 	movi	r2,71
  80836c:	28806626 	beq	r5,r2,808508 <___vfprintf_internal_r+0x1c98>
  808370:	d9000517 	ldw	r4,20(sp)
  808374:	d8c14d17 	ldw	r3,1332(sp)
  808378:	00801944 	movi	r2,101
  80837c:	10c05516 	blt	r2,r3,8084d4 <___vfprintf_internal_r+0x1c64>
  808380:	213fffc4 	addi	r4,r4,-1
  808384:	d9000515 	stw	r4,20(sp)
  808388:	d8c00805 	stb	r3,32(sp)
  80838c:	2021883a 	mov	r16,r4
  808390:	2000c116 	blt	r4,zero,808698 <___vfprintf_internal_r+0x1e28>
  808394:	00800ac4 	movi	r2,43
  808398:	d8800845 	stb	r2,33(sp)
  80839c:	00800244 	movi	r2,9
  8083a0:	1400af0e 	bge	r2,r16,808660 <___vfprintf_internal_r+0x1df0>
  8083a4:	1027883a 	mov	r19,r2
  8083a8:	dc400b84 	addi	r17,sp,46
  8083ac:	8009883a 	mov	r4,r16
  8083b0:	01400284 	movi	r5,10
  8083b4:	0805dec0 	call	805dec <__modsi3>
  8083b8:	10800c04 	addi	r2,r2,48
  8083bc:	8c7fffc4 	addi	r17,r17,-1
  8083c0:	8009883a 	mov	r4,r16
  8083c4:	01400284 	movi	r5,10
  8083c8:	88800005 	stb	r2,0(r17)
  8083cc:	0805d8c0 	call	805d8c <__divsi3>
  8083d0:	1021883a 	mov	r16,r2
  8083d4:	98bff516 	blt	r19,r2,8083ac <___vfprintf_internal_r+0x1b3c>
  8083d8:	10c00c04 	addi	r3,r2,48
  8083dc:	d88009c4 	addi	r2,sp,39
  8083e0:	108001c4 	addi	r2,r2,7
  8083e4:	897fffc4 	addi	r5,r17,-1
  8083e8:	88ffffc5 	stb	r3,-1(r17)
  8083ec:	2880a72e 	bgeu	r5,r2,80868c <___vfprintf_internal_r+0x1e1c>
  8083f0:	1009883a 	mov	r4,r2
  8083f4:	d9800804 	addi	r6,sp,32
  8083f8:	d8c00884 	addi	r3,sp,34
  8083fc:	28800003 	ldbu	r2,0(r5)
  808400:	29400044 	addi	r5,r5,1
  808404:	18800005 	stb	r2,0(r3)
  808408:	18c00044 	addi	r3,r3,1
  80840c:	293ffb36 	bltu	r5,r4,8083fc <___vfprintf_internal_r+0x1b8c>
  808410:	1987c83a 	sub	r3,r3,r6
  808414:	00800044 	movi	r2,1
  808418:	d8c14815 	stw	r3,1312(sp)
  80841c:	90cf883a 	add	r7,r18,r3
  808420:	1480960e 	bge	r2,r18,80867c <___vfprintf_internal_r+0x1e0c>
  808424:	39c00044 	addi	r7,r7,1
  808428:	d9c14515 	stw	r7,1300(sp)
  80842c:	38003416 	blt	r7,zero,808500 <___vfprintf_internal_r+0x1c90>
  808430:	e0803fcc 	andi	r2,fp,255
  808434:	1080201c 	xori	r2,r2,128
  808438:	10bfe004 	addi	r2,r2,-128
  80843c:	10004e26 	beq	r2,zero,808578 <___vfprintf_internal_r+0x1d08>
  808440:	00800b44 	movi	r2,45
  808444:	dc814715 	stw	r18,1308(sp)
  808448:	d8014615 	stw	zero,1304(sp)
  80844c:	d8800405 	stb	r2,16(sp)
  808450:	003bab06 	br	807300 <___vfprintf_internal_r+0xa90>
  808454:	00800b44 	movi	r2,45
  808458:	d8800405 	stb	r2,16(sp)
  80845c:	003d2d06 	br	807914 <___vfprintf_internal_r+0x10a4>
  808460:	d9014f17 	ldw	r4,1340(sp)
  808464:	b00b883a 	mov	r5,r22
  808468:	d9800c04 	addi	r6,sp,48
  80846c:	08068180 	call	806818 <__sprint_r>
  808470:	103ab71e 	bne	r2,zero,806f50 <___vfprintf_internal_r+0x6e0>
  808474:	003ab506 	br	806f4c <___vfprintf_internal_r+0x6dc>
  808478:	38800017 	ldw	r2,0(r7)
  80847c:	39c00104 	addi	r7,r7,4
  808480:	d9c14015 	stw	r7,1280(sp)
  808484:	d9414b17 	ldw	r5,1324(sp)
  808488:	d9c14017 	ldw	r7,1280(sp)
  80848c:	11400015 	stw	r5,0(r2)
  808490:	00395306 	br	8069e0 <___vfprintf_internal_r+0x170>
  808494:	980f883a 	mov	r7,r19
  808498:	dcc14515 	stw	r19,1300(sp)
  80849c:	d8014615 	stw	zero,1304(sp)
  8084a0:	003b9506 	br	8072f8 <___vfprintf_internal_r+0xa88>
  8084a4:	0027883a 	mov	r19,zero
  8084a8:	00397206 	br	806a74 <___vfprintf_internal_r+0x204>
  8084ac:	00c02074 	movhi	r3,129
  8084b0:	18cc4504 	addi	r3,r3,12564
  8084b4:	100f883a 	mov	r7,r2
  8084b8:	d8814515 	stw	r2,1300(sp)
  8084bc:	d8c14115 	stw	r3,1284(sp)
  8084c0:	0039da06 	br	806c2c <___vfprintf_internal_r+0x3bc>
  8084c4:	00802074 	movhi	r2,129
  8084c8:	108c4404 	addi	r2,r2,12560
  8084cc:	d8814115 	stw	r2,1284(sp)
  8084d0:	003d1606 	br	80792c <___vfprintf_internal_r+0x10bc>
  8084d4:	d9414d17 	ldw	r5,1332(sp)
  8084d8:	00801984 	movi	r2,102
  8084dc:	28804926 	beq	r5,r2,808604 <___vfprintf_internal_r+0x1d94>
  8084e0:	200f883a 	mov	r7,r4
  8084e4:	24805716 	blt	r4,r18,808644 <___vfprintf_internal_r+0x1dd4>
  8084e8:	d9414c17 	ldw	r5,1328(sp)
  8084ec:	2880004c 	andi	r2,r5,1
  8084f0:	10000126 	beq	r2,zero,8084f8 <___vfprintf_internal_r+0x1c88>
  8084f4:	21c00044 	addi	r7,r4,1
  8084f8:	d9c14515 	stw	r7,1300(sp)
  8084fc:	383fcc0e 	bge	r7,zero,808430 <___vfprintf_internal_r+0x1bc0>
  808500:	d8014515 	stw	zero,1300(sp)
  808504:	003fca06 	br	808430 <___vfprintf_internal_r+0x1bc0>
  808508:	d9000517 	ldw	r4,20(sp)
  80850c:	00bfff04 	movi	r2,-4
  808510:	1100480e 	bge	r2,r4,808634 <___vfprintf_internal_r+0x1dc4>
  808514:	99004716 	blt	r19,r4,808634 <___vfprintf_internal_r+0x1dc4>
  808518:	d8c14d15 	stw	r3,1332(sp)
  80851c:	003ff006 	br	8084e0 <___vfprintf_internal_r+0x1c70>
  808520:	d8800717 	ldw	r2,28(sp)
  808524:	14bf8b2e 	bgeu	r2,r18,808354 <___vfprintf_internal_r+0x1ae4>
  808528:	9007883a 	mov	r3,r18
  80852c:	01000c04 	movi	r4,48
  808530:	11000005 	stb	r4,0(r2)
  808534:	10800044 	addi	r2,r2,1
  808538:	d8800715 	stw	r2,28(sp)
  80853c:	18bffc1e 	bne	r3,r2,808530 <___vfprintf_internal_r+0x1cc0>
  808540:	003f8406 	br	808354 <___vfprintf_internal_r+0x1ae4>
  808544:	d8814117 	ldw	r2,1284(sp)
  808548:	10c00007 	ldb	r3,0(r2)
  80854c:	00800c04 	movi	r2,48
  808550:	18805b26 	beq	r3,r2,8086c0 <___vfprintf_internal_r+0x1e50>
  808554:	d9000517 	ldw	r4,20(sp)
  808558:	9125883a 	add	r18,r18,r4
  80855c:	003f7506 	br	808334 <___vfprintf_internal_r+0x1ac4>
  808560:	d9014c17 	ldw	r4,1328(sp)
  808564:	2080004c 	andi	r2,r4,1
  808568:	1005003a 	cmpeq	r2,r2,zero
  80856c:	103f6a26 	beq	r2,zero,808318 <___vfprintf_internal_r+0x1aa8>
  808570:	d8800717 	ldw	r2,28(sp)
  808574:	003f7706 	br	808354 <___vfprintf_internal_r+0x1ae4>
  808578:	d9c14515 	stw	r7,1300(sp)
  80857c:	38004d16 	blt	r7,zero,8086b4 <___vfprintf_internal_r+0x1e44>
  808580:	dc814715 	stw	r18,1308(sp)
  808584:	d8014615 	stw	zero,1304(sp)
  808588:	003b5b06 	br	8072f8 <___vfprintf_internal_r+0xa88>
  80858c:	d9014f17 	ldw	r4,1340(sp)
  808590:	d8800504 	addi	r2,sp,20
  808594:	d8800115 	stw	r2,4(sp)
  808598:	d8c00604 	addi	r3,sp,24
  80859c:	d8800704 	addi	r2,sp,28
  8085a0:	800b883a 	mov	r5,r16
  8085a4:	880d883a 	mov	r6,r17
  8085a8:	01c000c4 	movi	r7,3
  8085ac:	d8c00215 	stw	r3,8(sp)
  8085b0:	d8800315 	stw	r2,12(sp)
  8085b4:	dcc00015 	stw	r19,0(sp)
  8085b8:	9829883a 	mov	r20,r19
  8085bc:	0808ad80 	call	808ad8 <_dtoa_r>
  8085c0:	d8814115 	stw	r2,1284(sp)
  8085c4:	003f5106 	br	80830c <___vfprintf_internal_r+0x1a9c>
  8085c8:	d8c14217 	ldw	r3,1288(sp)
  8085cc:	d9014317 	ldw	r4,1292(sp)
  8085d0:	07000b44 	movi	fp,45
  8085d4:	1821883a 	mov	r16,r3
  8085d8:	2460003c 	xorhi	r17,r4,32768
  8085dc:	003f3106 	br	8082a4 <___vfprintf_internal_r+0x1a34>
  8085e0:	9d000044 	addi	r20,r19,1
  8085e4:	003f3906 	br	8082cc <___vfprintf_internal_r+0x1a5c>
  8085e8:	983f251e 	bne	r19,zero,808280 <___vfprintf_internal_r+0x1a10>
  8085ec:	04c00044 	movi	r19,1
  8085f0:	003f2306 	br	808280 <___vfprintf_internal_r+0x1a10>
  8085f4:	04c00184 	movi	r19,6
  8085f8:	003f2106 	br	808280 <___vfprintf_internal_r+0x1a10>
  8085fc:	d8014515 	stw	zero,1300(sp)
  808600:	003eee06 	br	8081bc <___vfprintf_internal_r+0x194c>
  808604:	200f883a 	mov	r7,r4
  808608:	0100370e 	bge	zero,r4,8086e8 <___vfprintf_internal_r+0x1e78>
  80860c:	9800031e 	bne	r19,zero,80861c <___vfprintf_internal_r+0x1dac>
  808610:	d9814c17 	ldw	r6,1328(sp)
  808614:	3080004c 	andi	r2,r6,1
  808618:	103fb726 	beq	r2,zero,8084f8 <___vfprintf_internal_r+0x1c88>
  80861c:	20800044 	addi	r2,r4,1
  808620:	98a7883a 	add	r19,r19,r2
  808624:	dcc14515 	stw	r19,1300(sp)
  808628:	980f883a 	mov	r7,r19
  80862c:	983f800e 	bge	r19,zero,808430 <___vfprintf_internal_r+0x1bc0>
  808630:	003fb306 	br	808500 <___vfprintf_internal_r+0x1c90>
  808634:	d9814d17 	ldw	r6,1332(sp)
  808638:	31bfff84 	addi	r6,r6,-2
  80863c:	d9814d15 	stw	r6,1332(sp)
  808640:	003f4c06 	br	808374 <___vfprintf_internal_r+0x1b04>
  808644:	0100180e 	bge	zero,r4,8086a8 <___vfprintf_internal_r+0x1e38>
  808648:	00800044 	movi	r2,1
  80864c:	1485883a 	add	r2,r2,r18
  808650:	d8814515 	stw	r2,1300(sp)
  808654:	100f883a 	mov	r7,r2
  808658:	103f750e 	bge	r2,zero,808430 <___vfprintf_internal_r+0x1bc0>
  80865c:	003fa806 	br	808500 <___vfprintf_internal_r+0x1c90>
  808660:	80c00c04 	addi	r3,r16,48
  808664:	00800c04 	movi	r2,48
  808668:	d8c008c5 	stb	r3,35(sp)
  80866c:	d9800804 	addi	r6,sp,32
  808670:	d8c00904 	addi	r3,sp,36
  808674:	d8800885 	stb	r2,34(sp)
  808678:	003f6506 	br	808410 <___vfprintf_internal_r+0x1ba0>
  80867c:	d9014c17 	ldw	r4,1328(sp)
  808680:	2084703a 	and	r2,r4,r2
  808684:	103f9c26 	beq	r2,zero,8084f8 <___vfprintf_internal_r+0x1c88>
  808688:	003f6606 	br	808424 <___vfprintf_internal_r+0x1bb4>
  80868c:	d9800804 	addi	r6,sp,32
  808690:	d8c00884 	addi	r3,sp,34
  808694:	003f5e06 	br	808410 <___vfprintf_internal_r+0x1ba0>
  808698:	00800b44 	movi	r2,45
  80869c:	0121c83a 	sub	r16,zero,r4
  8086a0:	d8800845 	stb	r2,33(sp)
  8086a4:	003f3d06 	br	80839c <___vfprintf_internal_r+0x1b2c>
  8086a8:	00800084 	movi	r2,2
  8086ac:	1105c83a 	sub	r2,r2,r4
  8086b0:	003fe606 	br	80864c <___vfprintf_internal_r+0x1ddc>
  8086b4:	d8014515 	stw	zero,1300(sp)
  8086b8:	dc814715 	stw	r18,1308(sp)
  8086bc:	003fb106 	br	808584 <___vfprintf_internal_r+0x1d14>
  8086c0:	000d883a 	mov	r6,zero
  8086c4:	000f883a 	mov	r7,zero
  8086c8:	8009883a 	mov	r4,r16
  8086cc:	880b883a 	mov	r5,r17
  8086d0:	080f0b80 	call	80f0b8 <__nedf2>
  8086d4:	103f9f26 	beq	r2,zero,808554 <___vfprintf_internal_r+0x1ce4>
  8086d8:	00800044 	movi	r2,1
  8086dc:	1509c83a 	sub	r4,r2,r20
  8086e0:	d9000515 	stw	r4,20(sp)
  8086e4:	003f9b06 	br	808554 <___vfprintf_internal_r+0x1ce4>
  8086e8:	98000d1e 	bne	r19,zero,808720 <___vfprintf_internal_r+0x1eb0>
  8086ec:	d8c14c17 	ldw	r3,1328(sp)
  8086f0:	1880004c 	andi	r2,r3,1
  8086f4:	10000a1e 	bne	r2,zero,808720 <___vfprintf_internal_r+0x1eb0>
  8086f8:	01000044 	movi	r4,1
  8086fc:	200f883a 	mov	r7,r4
  808700:	d9014515 	stw	r4,1300(sp)
  808704:	003f4a06 	br	808430 <___vfprintf_internal_r+0x1bc0>
  808708:	3cc00017 	ldw	r19,0(r7)
  80870c:	39c00104 	addi	r7,r7,4
  808710:	983d0e0e 	bge	r19,zero,807b4c <___vfprintf_internal_r+0x12dc>
  808714:	b8c00007 	ldb	r3,0(r23)
  808718:	04ffffc4 	movi	r19,-1
  80871c:	0038d306 	br	806a6c <___vfprintf_internal_r+0x1fc>
  808720:	9cc00084 	addi	r19,r19,2
  808724:	dcc14515 	stw	r19,1300(sp)
  808728:	980f883a 	mov	r7,r19
  80872c:	983f400e 	bge	r19,zero,808430 <___vfprintf_internal_r+0x1bc0>
  808730:	003f7306 	br	808500 <___vfprintf_internal_r+0x1c90>

00808734 <__vfprintf_internal>:
  808734:	00802074 	movhi	r2,129
  808738:	1094d404 	addi	r2,r2,21328
  80873c:	2013883a 	mov	r9,r4
  808740:	11000017 	ldw	r4,0(r2)
  808744:	2805883a 	mov	r2,r5
  808748:	300f883a 	mov	r7,r6
  80874c:	480b883a 	mov	r5,r9
  808750:	100d883a 	mov	r6,r2
  808754:	08068701 	jmpi	806870 <___vfprintf_internal_r>

00808758 <__swsetup_r>:
  808758:	00802074 	movhi	r2,129
  80875c:	1094d404 	addi	r2,r2,21328
  808760:	10c00017 	ldw	r3,0(r2)
  808764:	defffd04 	addi	sp,sp,-12
  808768:	dc400115 	stw	r17,4(sp)
  80876c:	dc000015 	stw	r16,0(sp)
  808770:	dfc00215 	stw	ra,8(sp)
  808774:	2023883a 	mov	r17,r4
  808778:	2821883a 	mov	r16,r5
  80877c:	18000226 	beq	r3,zero,808788 <__swsetup_r+0x30>
  808780:	18800e17 	ldw	r2,56(r3)
  808784:	10001f26 	beq	r2,zero,808804 <__swsetup_r+0xac>
  808788:	8100030b 	ldhu	r4,12(r16)
  80878c:	2080020c 	andi	r2,r4,8
  808790:	10002826 	beq	r2,zero,808834 <__swsetup_r+0xdc>
  808794:	81400417 	ldw	r5,16(r16)
  808798:	28001d26 	beq	r5,zero,808810 <__swsetup_r+0xb8>
  80879c:	2080004c 	andi	r2,r4,1
  8087a0:	1005003a 	cmpeq	r2,r2,zero
  8087a4:	10000b26 	beq	r2,zero,8087d4 <__swsetup_r+0x7c>
  8087a8:	2080008c 	andi	r2,r4,2
  8087ac:	10001226 	beq	r2,zero,8087f8 <__swsetup_r+0xa0>
  8087b0:	0005883a 	mov	r2,zero
  8087b4:	80800215 	stw	r2,8(r16)
  8087b8:	28000b26 	beq	r5,zero,8087e8 <__swsetup_r+0x90>
  8087bc:	0005883a 	mov	r2,zero
  8087c0:	dfc00217 	ldw	ra,8(sp)
  8087c4:	dc400117 	ldw	r17,4(sp)
  8087c8:	dc000017 	ldw	r16,0(sp)
  8087cc:	dec00304 	addi	sp,sp,12
  8087d0:	f800283a 	ret
  8087d4:	80800517 	ldw	r2,20(r16)
  8087d8:	80000215 	stw	zero,8(r16)
  8087dc:	0085c83a 	sub	r2,zero,r2
  8087e0:	80800615 	stw	r2,24(r16)
  8087e4:	283ff51e 	bne	r5,zero,8087bc <__swsetup_r+0x64>
  8087e8:	2080200c 	andi	r2,r4,128
  8087ec:	103ff326 	beq	r2,zero,8087bc <__swsetup_r+0x64>
  8087f0:	00bfffc4 	movi	r2,-1
  8087f4:	003ff206 	br	8087c0 <__swsetup_r+0x68>
  8087f8:	80800517 	ldw	r2,20(r16)
  8087fc:	80800215 	stw	r2,8(r16)
  808800:	003fed06 	br	8087b8 <__swsetup_r+0x60>
  808804:	1809883a 	mov	r4,r3
  808808:	080a3240 	call	80a324 <__sinit>
  80880c:	003fde06 	br	808788 <__swsetup_r+0x30>
  808810:	20c0a00c 	andi	r3,r4,640
  808814:	00808004 	movi	r2,512
  808818:	18bfe026 	beq	r3,r2,80879c <__swsetup_r+0x44>
  80881c:	8809883a 	mov	r4,r17
  808820:	800b883a 	mov	r5,r16
  808824:	080b0d00 	call	80b0d0 <__smakebuf_r>
  808828:	8100030b 	ldhu	r4,12(r16)
  80882c:	81400417 	ldw	r5,16(r16)
  808830:	003fda06 	br	80879c <__swsetup_r+0x44>
  808834:	2080040c 	andi	r2,r4,16
  808838:	103fed26 	beq	r2,zero,8087f0 <__swsetup_r+0x98>
  80883c:	2080010c 	andi	r2,r4,4
  808840:	10001226 	beq	r2,zero,80888c <__swsetup_r+0x134>
  808844:	81400c17 	ldw	r5,48(r16)
  808848:	28000526 	beq	r5,zero,808860 <__swsetup_r+0x108>
  80884c:	80801004 	addi	r2,r16,64
  808850:	28800226 	beq	r5,r2,80885c <__swsetup_r+0x104>
  808854:	8809883a 	mov	r4,r17
  808858:	080a6dc0 	call	80a6dc <_free_r>
  80885c:	80000c15 	stw	zero,48(r16)
  808860:	8080030b 	ldhu	r2,12(r16)
  808864:	81400417 	ldw	r5,16(r16)
  808868:	80000115 	stw	zero,4(r16)
  80886c:	10bff6cc 	andi	r2,r2,65499
  808870:	8080030d 	sth	r2,12(r16)
  808874:	81400015 	stw	r5,0(r16)
  808878:	8080030b 	ldhu	r2,12(r16)
  80887c:	10800214 	ori	r2,r2,8
  808880:	113fffcc 	andi	r4,r2,65535
  808884:	8080030d 	sth	r2,12(r16)
  808888:	003fc306 	br	808798 <__swsetup_r+0x40>
  80888c:	81400417 	ldw	r5,16(r16)
  808890:	003ff906 	br	808878 <__swsetup_r+0x120>

00808894 <quorem>:
  808894:	28c00417 	ldw	r3,16(r5)
  808898:	20800417 	ldw	r2,16(r4)
  80889c:	defff104 	addi	sp,sp,-60
  8088a0:	dfc00e15 	stw	ra,56(sp)
  8088a4:	df000d15 	stw	fp,52(sp)
  8088a8:	ddc00c15 	stw	r23,48(sp)
  8088ac:	dd800b15 	stw	r22,44(sp)
  8088b0:	dd400a15 	stw	r21,40(sp)
  8088b4:	dd000915 	stw	r20,36(sp)
  8088b8:	dcc00815 	stw	r19,32(sp)
  8088bc:	dc800715 	stw	r18,28(sp)
  8088c0:	dc400615 	stw	r17,24(sp)
  8088c4:	dc000515 	stw	r16,20(sp)
  8088c8:	d9000315 	stw	r4,12(sp)
  8088cc:	d9400415 	stw	r5,16(sp)
  8088d0:	10c07f16 	blt	r2,r3,808ad0 <quorem+0x23c>
  8088d4:	1d3fffc4 	addi	r20,r3,-1
  8088d8:	d8c00417 	ldw	r3,16(sp)
  8088dc:	d9000317 	ldw	r4,12(sp)
  8088e0:	a505883a 	add	r2,r20,r20
  8088e4:	1085883a 	add	r2,r2,r2
  8088e8:	1cc00504 	addi	r19,r3,20
  8088ec:	25c00504 	addi	r23,r4,20
  8088f0:	98ad883a 	add	r22,r19,r2
  8088f4:	15c7883a 	add	r3,r2,r23
  8088f8:	b1400017 	ldw	r5,0(r22)
  8088fc:	19000017 	ldw	r4,0(r3)
  808900:	d8c00015 	stw	r3,0(sp)
  808904:	29400044 	addi	r5,r5,1
  808908:	d9000215 	stw	r4,8(sp)
  80890c:	0805e4c0 	call	805e4c <__udivsi3>
  808910:	1039883a 	mov	fp,r2
  808914:	10003d1e 	bne	r2,zero,808a0c <quorem+0x178>
  808918:	d9400417 	ldw	r5,16(sp)
  80891c:	d9000317 	ldw	r4,12(sp)
  808920:	080bd5c0 	call	80bd5c <__mcmp>
  808924:	10002c16 	blt	r2,zero,8089d8 <quorem+0x144>
  808928:	e7000044 	addi	fp,fp,1
  80892c:	b80f883a 	mov	r7,r23
  808930:	0011883a 	mov	r8,zero
  808934:	0009883a 	mov	r4,zero
  808938:	99400017 	ldw	r5,0(r19)
  80893c:	38c00017 	ldw	r3,0(r7)
  808940:	9cc00104 	addi	r19,r19,4
  808944:	28bfffcc 	andi	r2,r5,65535
  808948:	2085883a 	add	r2,r4,r2
  80894c:	11bfffcc 	andi	r6,r2,65535
  808950:	193fffcc 	andi	r4,r3,65535
  808954:	1004d43a 	srli	r2,r2,16
  808958:	280ad43a 	srli	r5,r5,16
  80895c:	2189c83a 	sub	r4,r4,r6
  808960:	2209883a 	add	r4,r4,r8
  808964:	1806d43a 	srli	r3,r3,16
  808968:	288b883a 	add	r5,r5,r2
  80896c:	200dd43a 	srai	r6,r4,16
  808970:	28bfffcc 	andi	r2,r5,65535
  808974:	1887c83a 	sub	r3,r3,r2
  808978:	1987883a 	add	r3,r3,r6
  80897c:	3900000d 	sth	r4,0(r7)
  808980:	38c0008d 	sth	r3,2(r7)
  808984:	2808d43a 	srli	r4,r5,16
  808988:	39c00104 	addi	r7,r7,4
  80898c:	1811d43a 	srai	r8,r3,16
  808990:	b4ffe92e 	bgeu	r22,r19,808938 <quorem+0xa4>
  808994:	a505883a 	add	r2,r20,r20
  808998:	1085883a 	add	r2,r2,r2
  80899c:	b885883a 	add	r2,r23,r2
  8089a0:	10c00017 	ldw	r3,0(r2)
  8089a4:	18000c1e 	bne	r3,zero,8089d8 <quorem+0x144>
  8089a8:	113fff04 	addi	r4,r2,-4
  8089ac:	b900082e 	bgeu	r23,r4,8089d0 <quorem+0x13c>
  8089b0:	10bfff17 	ldw	r2,-4(r2)
  8089b4:	10000326 	beq	r2,zero,8089c4 <quorem+0x130>
  8089b8:	00000506 	br	8089d0 <quorem+0x13c>
  8089bc:	20800017 	ldw	r2,0(r4)
  8089c0:	1000031e 	bne	r2,zero,8089d0 <quorem+0x13c>
  8089c4:	213fff04 	addi	r4,r4,-4
  8089c8:	a53fffc4 	addi	r20,r20,-1
  8089cc:	b93ffb36 	bltu	r23,r4,8089bc <quorem+0x128>
  8089d0:	d9000317 	ldw	r4,12(sp)
  8089d4:	25000415 	stw	r20,16(r4)
  8089d8:	e005883a 	mov	r2,fp
  8089dc:	dfc00e17 	ldw	ra,56(sp)
  8089e0:	df000d17 	ldw	fp,52(sp)
  8089e4:	ddc00c17 	ldw	r23,48(sp)
  8089e8:	dd800b17 	ldw	r22,44(sp)
  8089ec:	dd400a17 	ldw	r21,40(sp)
  8089f0:	dd000917 	ldw	r20,36(sp)
  8089f4:	dcc00817 	ldw	r19,32(sp)
  8089f8:	dc800717 	ldw	r18,28(sp)
  8089fc:	dc400617 	ldw	r17,24(sp)
  808a00:	dc000517 	ldw	r16,20(sp)
  808a04:	dec00f04 	addi	sp,sp,60
  808a08:	f800283a 	ret
  808a0c:	b823883a 	mov	r17,r23
  808a10:	9825883a 	mov	r18,r19
  808a14:	d8000115 	stw	zero,4(sp)
  808a18:	002b883a 	mov	r21,zero
  808a1c:	94000017 	ldw	r16,0(r18)
  808a20:	e009883a 	mov	r4,fp
  808a24:	94800104 	addi	r18,r18,4
  808a28:	817fffcc 	andi	r5,r16,65535
  808a2c:	080f46c0 	call	80f46c <__mulsi3>
  808a30:	800ad43a 	srli	r5,r16,16
  808a34:	e009883a 	mov	r4,fp
  808a38:	a8a1883a 	add	r16,r21,r2
  808a3c:	080f46c0 	call	80f46c <__mulsi3>
  808a40:	89000017 	ldw	r4,0(r17)
  808a44:	80ffffcc 	andi	r3,r16,65535
  808a48:	8020d43a 	srli	r16,r16,16
  808a4c:	217fffcc 	andi	r5,r4,65535
  808a50:	28cbc83a 	sub	r5,r5,r3
  808a54:	d8c00117 	ldw	r3,4(sp)
  808a58:	2008d43a 	srli	r4,r4,16
  808a5c:	1405883a 	add	r2,r2,r16
  808a60:	28cb883a 	add	r5,r5,r3
  808a64:	280dd43a 	srai	r6,r5,16
  808a68:	10ffffcc 	andi	r3,r2,65535
  808a6c:	20c9c83a 	sub	r4,r4,r3
  808a70:	2189883a 	add	r4,r4,r6
  808a74:	8900008d 	sth	r4,2(r17)
  808a78:	2009d43a 	srai	r4,r4,16
  808a7c:	8940000d 	sth	r5,0(r17)
  808a80:	102ad43a 	srli	r21,r2,16
  808a84:	8c400104 	addi	r17,r17,4
  808a88:	d9000115 	stw	r4,4(sp)
  808a8c:	b4bfe32e 	bgeu	r22,r18,808a1c <quorem+0x188>
  808a90:	d9000217 	ldw	r4,8(sp)
  808a94:	203fa01e 	bne	r4,zero,808918 <quorem+0x84>
  808a98:	d8800017 	ldw	r2,0(sp)
  808a9c:	10ffff04 	addi	r3,r2,-4
  808aa0:	b8c0082e 	bgeu	r23,r3,808ac4 <quorem+0x230>
  808aa4:	10bfff17 	ldw	r2,-4(r2)
  808aa8:	10000326 	beq	r2,zero,808ab8 <quorem+0x224>
  808aac:	00000506 	br	808ac4 <quorem+0x230>
  808ab0:	18800017 	ldw	r2,0(r3)
  808ab4:	1000031e 	bne	r2,zero,808ac4 <quorem+0x230>
  808ab8:	18ffff04 	addi	r3,r3,-4
  808abc:	a53fffc4 	addi	r20,r20,-1
  808ac0:	b8fffb36 	bltu	r23,r3,808ab0 <quorem+0x21c>
  808ac4:	d8c00317 	ldw	r3,12(sp)
  808ac8:	1d000415 	stw	r20,16(r3)
  808acc:	003f9206 	br	808918 <quorem+0x84>
  808ad0:	0005883a 	mov	r2,zero
  808ad4:	003fc106 	br	8089dc <quorem+0x148>

00808ad8 <_dtoa_r>:
  808ad8:	22001017 	ldw	r8,64(r4)
  808adc:	deffda04 	addi	sp,sp,-152
  808ae0:	dd402115 	stw	r21,132(sp)
  808ae4:	dd002015 	stw	r20,128(sp)
  808ae8:	dc801e15 	stw	r18,120(sp)
  808aec:	dc401d15 	stw	r17,116(sp)
  808af0:	dfc02515 	stw	ra,148(sp)
  808af4:	df002415 	stw	fp,144(sp)
  808af8:	ddc02315 	stw	r23,140(sp)
  808afc:	dd802215 	stw	r22,136(sp)
  808b00:	dcc01f15 	stw	r19,124(sp)
  808b04:	dc001c15 	stw	r16,112(sp)
  808b08:	d9001615 	stw	r4,88(sp)
  808b0c:	3023883a 	mov	r17,r6
  808b10:	2829883a 	mov	r20,r5
  808b14:	d9c01715 	stw	r7,92(sp)
  808b18:	dc802817 	ldw	r18,160(sp)
  808b1c:	302b883a 	mov	r21,r6
  808b20:	40000a26 	beq	r8,zero,808b4c <_dtoa_r+0x74>
  808b24:	20801117 	ldw	r2,68(r4)
  808b28:	400b883a 	mov	r5,r8
  808b2c:	40800115 	stw	r2,4(r8)
  808b30:	20c01117 	ldw	r3,68(r4)
  808b34:	00800044 	movi	r2,1
  808b38:	10c4983a 	sll	r2,r2,r3
  808b3c:	40800215 	stw	r2,8(r8)
  808b40:	080bc000 	call	80bc00 <_Bfree>
  808b44:	d8c01617 	ldw	r3,88(sp)
  808b48:	18001015 	stw	zero,64(r3)
  808b4c:	8800a316 	blt	r17,zero,808ddc <_dtoa_r+0x304>
  808b50:	90000015 	stw	zero,0(r18)
  808b54:	a8dffc2c 	andhi	r3,r21,32752
  808b58:	009ffc34 	movhi	r2,32752
  808b5c:	18809126 	beq	r3,r2,808da4 <_dtoa_r+0x2cc>
  808b60:	000d883a 	mov	r6,zero
  808b64:	000f883a 	mov	r7,zero
  808b68:	a009883a 	mov	r4,r20
  808b6c:	a80b883a 	mov	r5,r21
  808b70:	dd001215 	stw	r20,72(sp)
  808b74:	dd401315 	stw	r21,76(sp)
  808b78:	080f0b80 	call	80f0b8 <__nedf2>
  808b7c:	1000171e 	bne	r2,zero,808bdc <_dtoa_r+0x104>
  808b80:	d9802717 	ldw	r6,156(sp)
  808b84:	00800044 	movi	r2,1
  808b88:	30800015 	stw	r2,0(r6)
  808b8c:	d8802917 	ldw	r2,164(sp)
  808b90:	10029b26 	beq	r2,zero,809600 <_dtoa_r+0xb28>
  808b94:	d9002917 	ldw	r4,164(sp)
  808b98:	00802074 	movhi	r2,129
  808b9c:	108c5344 	addi	r2,r2,12621
  808ba0:	10ffffc4 	addi	r3,r2,-1
  808ba4:	20800015 	stw	r2,0(r4)
  808ba8:	1805883a 	mov	r2,r3
  808bac:	dfc02517 	ldw	ra,148(sp)
  808bb0:	df002417 	ldw	fp,144(sp)
  808bb4:	ddc02317 	ldw	r23,140(sp)
  808bb8:	dd802217 	ldw	r22,136(sp)
  808bbc:	dd402117 	ldw	r21,132(sp)
  808bc0:	dd002017 	ldw	r20,128(sp)
  808bc4:	dcc01f17 	ldw	r19,124(sp)
  808bc8:	dc801e17 	ldw	r18,120(sp)
  808bcc:	dc401d17 	ldw	r17,116(sp)
  808bd0:	dc001c17 	ldw	r16,112(sp)
  808bd4:	dec02604 	addi	sp,sp,152
  808bd8:	f800283a 	ret
  808bdc:	d9001617 	ldw	r4,88(sp)
  808be0:	d9401217 	ldw	r5,72(sp)
  808be4:	d8800104 	addi	r2,sp,4
  808be8:	a80d883a 	mov	r6,r21
  808bec:	d9c00204 	addi	r7,sp,8
  808bf0:	d8800015 	stw	r2,0(sp)
  808bf4:	080c23c0 	call	80c23c <__d2b>
  808bf8:	d8800715 	stw	r2,28(sp)
  808bfc:	a804d53a 	srli	r2,r21,20
  808c00:	1101ffcc 	andi	r4,r2,2047
  808c04:	20008626 	beq	r4,zero,808e20 <_dtoa_r+0x348>
  808c08:	d8c01217 	ldw	r3,72(sp)
  808c0c:	00800434 	movhi	r2,16
  808c10:	10bfffc4 	addi	r2,r2,-1
  808c14:	ddc00117 	ldw	r23,4(sp)
  808c18:	a884703a 	and	r2,r21,r2
  808c1c:	1811883a 	mov	r8,r3
  808c20:	124ffc34 	orhi	r9,r2,16368
  808c24:	25bf0044 	addi	r22,r4,-1023
  808c28:	d8000815 	stw	zero,32(sp)
  808c2c:	0005883a 	mov	r2,zero
  808c30:	00cffe34 	movhi	r3,16376
  808c34:	480b883a 	mov	r5,r9
  808c38:	4009883a 	mov	r4,r8
  808c3c:	180f883a 	mov	r7,r3
  808c40:	100d883a 	mov	r6,r2
  808c44:	0805a4c0 	call	805a4c <__subdf3>
  808c48:	0218dbf4 	movhi	r8,25455
  808c4c:	4210d844 	addi	r8,r8,17249
  808c50:	024ff4f4 	movhi	r9,16339
  808c54:	4a61e9c4 	addi	r9,r9,-30809
  808c58:	480f883a 	mov	r7,r9
  808c5c:	400d883a 	mov	r6,r8
  808c60:	180b883a 	mov	r5,r3
  808c64:	1009883a 	mov	r4,r2
  808c68:	080ea140 	call	80ea14 <__muldf3>
  808c6c:	0222d874 	movhi	r8,35681
  808c70:	42322cc4 	addi	r8,r8,-14157
  808c74:	024ff1f4 	movhi	r9,16327
  808c78:	4a628a04 	addi	r9,r9,-30168
  808c7c:	480f883a 	mov	r7,r9
  808c80:	400d883a 	mov	r6,r8
  808c84:	180b883a 	mov	r5,r3
  808c88:	1009883a 	mov	r4,r2
  808c8c:	0805acc0 	call	805acc <__adddf3>
  808c90:	b009883a 	mov	r4,r22
  808c94:	1021883a 	mov	r16,r2
  808c98:	1823883a 	mov	r17,r3
  808c9c:	0805b400 	call	805b40 <__floatsidf>
  808ca0:	021427f4 	movhi	r8,20639
  808ca4:	421e7ec4 	addi	r8,r8,31227
  808ca8:	024ff4f4 	movhi	r9,16339
  808cac:	4a5104c4 	addi	r9,r9,17427
  808cb0:	480f883a 	mov	r7,r9
  808cb4:	400d883a 	mov	r6,r8
  808cb8:	180b883a 	mov	r5,r3
  808cbc:	1009883a 	mov	r4,r2
  808cc0:	080ea140 	call	80ea14 <__muldf3>
  808cc4:	180f883a 	mov	r7,r3
  808cc8:	880b883a 	mov	r5,r17
  808ccc:	100d883a 	mov	r6,r2
  808cd0:	8009883a 	mov	r4,r16
  808cd4:	0805acc0 	call	805acc <__adddf3>
  808cd8:	1009883a 	mov	r4,r2
  808cdc:	180b883a 	mov	r5,r3
  808ce0:	1021883a 	mov	r16,r2
  808ce4:	1823883a 	mov	r17,r3
  808ce8:	0805c380 	call	805c38 <__fixdfsi>
  808cec:	000d883a 	mov	r6,zero
  808cf0:	000f883a 	mov	r7,zero
  808cf4:	8009883a 	mov	r4,r16
  808cf8:	880b883a 	mov	r5,r17
  808cfc:	d8800d15 	stw	r2,52(sp)
  808d00:	080f2500 	call	80f250 <__ltdf2>
  808d04:	10031716 	blt	r2,zero,809964 <_dtoa_r+0xe8c>
  808d08:	d8c00d17 	ldw	r3,52(sp)
  808d0c:	00800584 	movi	r2,22
  808d10:	10c1482e 	bgeu	r2,r3,809234 <_dtoa_r+0x75c>
  808d14:	01000044 	movi	r4,1
  808d18:	d9000c15 	stw	r4,48(sp)
  808d1c:	bd85c83a 	sub	r2,r23,r22
  808d20:	11bfffc4 	addi	r6,r2,-1
  808d24:	30030b16 	blt	r6,zero,809954 <_dtoa_r+0xe7c>
  808d28:	d9800a15 	stw	r6,40(sp)
  808d2c:	d8001115 	stw	zero,68(sp)
  808d30:	d8c00d17 	ldw	r3,52(sp)
  808d34:	1802ff16 	blt	r3,zero,809934 <_dtoa_r+0xe5c>
  808d38:	d9000a17 	ldw	r4,40(sp)
  808d3c:	d8c00915 	stw	r3,36(sp)
  808d40:	d8001015 	stw	zero,64(sp)
  808d44:	20c9883a 	add	r4,r4,r3
  808d48:	d9000a15 	stw	r4,40(sp)
  808d4c:	d9001717 	ldw	r4,92(sp)
  808d50:	00800244 	movi	r2,9
  808d54:	11004636 	bltu	r2,r4,808e70 <_dtoa_r+0x398>
  808d58:	00800144 	movi	r2,5
  808d5c:	11020416 	blt	r2,r4,809570 <_dtoa_r+0xa98>
  808d60:	04400044 	movi	r17,1
  808d64:	d8c01717 	ldw	r3,92(sp)
  808d68:	00800144 	movi	r2,5
  808d6c:	10c1ed36 	bltu	r2,r3,809524 <_dtoa_r+0xa4c>
  808d70:	18c5883a 	add	r2,r3,r3
  808d74:	1085883a 	add	r2,r2,r2
  808d78:	00c02074 	movhi	r3,129
  808d7c:	18e36304 	addi	r3,r3,-29300
  808d80:	10c5883a 	add	r2,r2,r3
  808d84:	11000017 	ldw	r4,0(r2)
  808d88:	2000683a 	jmp	r4
  808d8c:	00808e78 	rdprs	r2,zero,569
  808d90:	00808e78 	rdprs	r2,zero,569
  808d94:	00809878 	rdprs	r2,zero,609
  808d98:	00809850 	cmplti	r2,zero,609
  808d9c:	00809894 	movui	r2,610
  808da0:	008098a0 	cmpeqi	r2,zero,610
  808da4:	d9002717 	ldw	r4,156(sp)
  808da8:	0089c3c4 	movi	r2,9999
  808dac:	20800015 	stw	r2,0(r4)
  808db0:	a0001026 	beq	r20,zero,808df4 <_dtoa_r+0x31c>
  808db4:	00c02074 	movhi	r3,129
  808db8:	18ccff04 	addi	r3,r3,13308
  808dbc:	d9802917 	ldw	r6,164(sp)
  808dc0:	303f7926 	beq	r6,zero,808ba8 <_dtoa_r+0xd0>
  808dc4:	188000c7 	ldb	r2,3(r3)
  808dc8:	190000c4 	addi	r4,r3,3
  808dcc:	1000101e 	bne	r2,zero,808e10 <_dtoa_r+0x338>
  808dd0:	d8802917 	ldw	r2,164(sp)
  808dd4:	11000015 	stw	r4,0(r2)
  808dd8:	003f7306 	br	808ba8 <_dtoa_r+0xd0>
  808ddc:	00a00034 	movhi	r2,32768
  808de0:	10bfffc4 	addi	r2,r2,-1
  808de4:	00c00044 	movi	r3,1
  808de8:	88aa703a 	and	r21,r17,r2
  808dec:	90c00015 	stw	r3,0(r18)
  808df0:	003f5806 	br	808b54 <_dtoa_r+0x7c>
  808df4:	00800434 	movhi	r2,16
  808df8:	10bfffc4 	addi	r2,r2,-1
  808dfc:	a884703a 	and	r2,r21,r2
  808e00:	103fec1e 	bne	r2,zero,808db4 <_dtoa_r+0x2dc>
  808e04:	00c02074 	movhi	r3,129
  808e08:	18ccfc04 	addi	r3,r3,13296
  808e0c:	003feb06 	br	808dbc <_dtoa_r+0x2e4>
  808e10:	d8802917 	ldw	r2,164(sp)
  808e14:	19000204 	addi	r4,r3,8
  808e18:	11000015 	stw	r4,0(r2)
  808e1c:	003f6206 	br	808ba8 <_dtoa_r+0xd0>
  808e20:	ddc00117 	ldw	r23,4(sp)
  808e24:	d8800217 	ldw	r2,8(sp)
  808e28:	01000804 	movi	r4,32
  808e2c:	b8c10c84 	addi	r3,r23,1074
  808e30:	18a3883a 	add	r17,r3,r2
  808e34:	2441b80e 	bge	r4,r17,809518 <_dtoa_r+0xa40>
  808e38:	00c01004 	movi	r3,64
  808e3c:	1c47c83a 	sub	r3,r3,r17
  808e40:	88bff804 	addi	r2,r17,-32
  808e44:	a8c6983a 	sll	r3,r21,r3
  808e48:	a084d83a 	srl	r2,r20,r2
  808e4c:	1888b03a 	or	r4,r3,r2
  808e50:	080f2d80 	call	80f2d8 <__floatunsidf>
  808e54:	1011883a 	mov	r8,r2
  808e58:	00bf8434 	movhi	r2,65040
  808e5c:	01000044 	movi	r4,1
  808e60:	10d3883a 	add	r9,r2,r3
  808e64:	8dbef344 	addi	r22,r17,-1075
  808e68:	d9000815 	stw	r4,32(sp)
  808e6c:	003f6f06 	br	808c2c <_dtoa_r+0x154>
  808e70:	d8001715 	stw	zero,92(sp)
  808e74:	04400044 	movi	r17,1
  808e78:	00bfffc4 	movi	r2,-1
  808e7c:	00c00044 	movi	r3,1
  808e80:	d8800e15 	stw	r2,56(sp)
  808e84:	d8002615 	stw	zero,152(sp)
  808e88:	d8800f15 	stw	r2,60(sp)
  808e8c:	d8c00b15 	stw	r3,44(sp)
  808e90:	1021883a 	mov	r16,r2
  808e94:	d8801617 	ldw	r2,88(sp)
  808e98:	10001115 	stw	zero,68(r2)
  808e9c:	d8801617 	ldw	r2,88(sp)
  808ea0:	11401117 	ldw	r5,68(r2)
  808ea4:	1009883a 	mov	r4,r2
  808ea8:	080c1800 	call	80c180 <_Balloc>
  808eac:	d8c01617 	ldw	r3,88(sp)
  808eb0:	d8800515 	stw	r2,20(sp)
  808eb4:	18801015 	stw	r2,64(r3)
  808eb8:	00800384 	movi	r2,14
  808ebc:	14006836 	bltu	r2,r16,809060 <_dtoa_r+0x588>
  808ec0:	8805003a 	cmpeq	r2,r17,zero
  808ec4:	1000661e 	bne	r2,zero,809060 <_dtoa_r+0x588>
  808ec8:	d9000d17 	ldw	r4,52(sp)
  808ecc:	0102300e 	bge	zero,r4,809790 <_dtoa_r+0xcb8>
  808ed0:	208003cc 	andi	r2,r4,15
  808ed4:	100490fa 	slli	r2,r2,3
  808ed8:	2025d13a 	srai	r18,r4,4
  808edc:	00c02074 	movhi	r3,129
  808ee0:	18cd1104 	addi	r3,r3,13380
  808ee4:	10c5883a 	add	r2,r2,r3
  808ee8:	90c0040c 	andi	r3,r18,16
  808eec:	14000017 	ldw	r16,0(r2)
  808ef0:	14400117 	ldw	r17,4(r2)
  808ef4:	18036a1e 	bne	r3,zero,809ca0 <_dtoa_r+0x11c8>
  808ef8:	05800084 	movi	r22,2
  808efc:	90001026 	beq	r18,zero,808f40 <_dtoa_r+0x468>
  808f00:	04c02074 	movhi	r19,129
  808f04:	9ccd4304 	addi	r19,r19,13580
  808f08:	9080004c 	andi	r2,r18,1
  808f0c:	1005003a 	cmpeq	r2,r2,zero
  808f10:	1000081e 	bne	r2,zero,808f34 <_dtoa_r+0x45c>
  808f14:	99800017 	ldw	r6,0(r19)
  808f18:	99c00117 	ldw	r7,4(r19)
  808f1c:	880b883a 	mov	r5,r17
  808f20:	8009883a 	mov	r4,r16
  808f24:	080ea140 	call	80ea14 <__muldf3>
  808f28:	1021883a 	mov	r16,r2
  808f2c:	b5800044 	addi	r22,r22,1
  808f30:	1823883a 	mov	r17,r3
  808f34:	9025d07a 	srai	r18,r18,1
  808f38:	9cc00204 	addi	r19,r19,8
  808f3c:	903ff21e 	bne	r18,zero,808f08 <_dtoa_r+0x430>
  808f40:	a80b883a 	mov	r5,r21
  808f44:	a009883a 	mov	r4,r20
  808f48:	880f883a 	mov	r7,r17
  808f4c:	800d883a 	mov	r6,r16
  808f50:	080edd80 	call	80edd8 <__divdf3>
  808f54:	1029883a 	mov	r20,r2
  808f58:	182b883a 	mov	r21,r3
  808f5c:	d8c00c17 	ldw	r3,48(sp)
  808f60:	1805003a 	cmpeq	r2,r3,zero
  808f64:	1000081e 	bne	r2,zero,808f88 <_dtoa_r+0x4b0>
  808f68:	0005883a 	mov	r2,zero
  808f6c:	00cffc34 	movhi	r3,16368
  808f70:	180f883a 	mov	r7,r3
  808f74:	a009883a 	mov	r4,r20
  808f78:	a80b883a 	mov	r5,r21
  808f7c:	100d883a 	mov	r6,r2
  808f80:	080f2500 	call	80f250 <__ltdf2>
  808f84:	1003fe16 	blt	r2,zero,809f80 <_dtoa_r+0x14a8>
  808f88:	b009883a 	mov	r4,r22
  808f8c:	0805b400 	call	805b40 <__floatsidf>
  808f90:	180b883a 	mov	r5,r3
  808f94:	1009883a 	mov	r4,r2
  808f98:	a00d883a 	mov	r6,r20
  808f9c:	a80f883a 	mov	r7,r21
  808fa0:	080ea140 	call	80ea14 <__muldf3>
  808fa4:	0011883a 	mov	r8,zero
  808fa8:	02500734 	movhi	r9,16412
  808fac:	1009883a 	mov	r4,r2
  808fb0:	180b883a 	mov	r5,r3
  808fb4:	480f883a 	mov	r7,r9
  808fb8:	400d883a 	mov	r6,r8
  808fbc:	0805acc0 	call	805acc <__adddf3>
  808fc0:	d9000f17 	ldw	r4,60(sp)
  808fc4:	102d883a 	mov	r22,r2
  808fc8:	00bf3034 	movhi	r2,64704
  808fcc:	18b9883a 	add	fp,r3,r2
  808fd0:	e02f883a 	mov	r23,fp
  808fd4:	20028f1e 	bne	r4,zero,809a14 <_dtoa_r+0xf3c>
  808fd8:	0005883a 	mov	r2,zero
  808fdc:	00d00534 	movhi	r3,16404
  808fe0:	a009883a 	mov	r4,r20
  808fe4:	a80b883a 	mov	r5,r21
  808fe8:	180f883a 	mov	r7,r3
  808fec:	100d883a 	mov	r6,r2
  808ff0:	0805a4c0 	call	805a4c <__subdf3>
  808ff4:	1009883a 	mov	r4,r2
  808ff8:	e00f883a 	mov	r7,fp
  808ffc:	180b883a 	mov	r5,r3
  809000:	b00d883a 	mov	r6,r22
  809004:	1025883a 	mov	r18,r2
  809008:	1827883a 	mov	r19,r3
  80900c:	080f1400 	call	80f140 <__gtdf2>
  809010:	00834f16 	blt	zero,r2,809d50 <_dtoa_r+0x1278>
  809014:	e0e0003c 	xorhi	r3,fp,32768
  809018:	9009883a 	mov	r4,r18
  80901c:	980b883a 	mov	r5,r19
  809020:	180f883a 	mov	r7,r3
  809024:	b00d883a 	mov	r6,r22
  809028:	080f2500 	call	80f250 <__ltdf2>
  80902c:	1000080e 	bge	r2,zero,809050 <_dtoa_r+0x578>
  809030:	0027883a 	mov	r19,zero
  809034:	0025883a 	mov	r18,zero
  809038:	d8802617 	ldw	r2,152(sp)
  80903c:	df000517 	ldw	fp,20(sp)
  809040:	d8000615 	stw	zero,24(sp)
  809044:	0084303a 	nor	r2,zero,r2
  809048:	d8800d15 	stw	r2,52(sp)
  80904c:	00019b06 	br	8096bc <_dtoa_r+0xbe4>
  809050:	d9801217 	ldw	r6,72(sp)
  809054:	d8801317 	ldw	r2,76(sp)
  809058:	3029883a 	mov	r20,r6
  80905c:	102b883a 	mov	r21,r2
  809060:	d8c00217 	ldw	r3,8(sp)
  809064:	18008516 	blt	r3,zero,80927c <_dtoa_r+0x7a4>
  809068:	d9000d17 	ldw	r4,52(sp)
  80906c:	00800384 	movi	r2,14
  809070:	11008216 	blt	r2,r4,80927c <_dtoa_r+0x7a4>
  809074:	200490fa 	slli	r2,r4,3
  809078:	d9802617 	ldw	r6,152(sp)
  80907c:	00c02074 	movhi	r3,129
  809080:	18cd1104 	addi	r3,r3,13380
  809084:	10c5883a 	add	r2,r2,r3
  809088:	14800017 	ldw	r18,0(r2)
  80908c:	14c00117 	ldw	r19,4(r2)
  809090:	30031e16 	blt	r6,zero,809d0c <_dtoa_r+0x1234>
  809094:	d9000517 	ldw	r4,20(sp)
  809098:	d8c00f17 	ldw	r3,60(sp)
  80909c:	a823883a 	mov	r17,r21
  8090a0:	a021883a 	mov	r16,r20
  8090a4:	192b883a 	add	r21,r3,r4
  8090a8:	2039883a 	mov	fp,r4
  8090ac:	00000f06 	br	8090ec <_dtoa_r+0x614>
  8090b0:	0005883a 	mov	r2,zero
  8090b4:	00d00934 	movhi	r3,16420
  8090b8:	5009883a 	mov	r4,r10
  8090bc:	580b883a 	mov	r5,r11
  8090c0:	180f883a 	mov	r7,r3
  8090c4:	100d883a 	mov	r6,r2
  8090c8:	080ea140 	call	80ea14 <__muldf3>
  8090cc:	180b883a 	mov	r5,r3
  8090d0:	000d883a 	mov	r6,zero
  8090d4:	000f883a 	mov	r7,zero
  8090d8:	1009883a 	mov	r4,r2
  8090dc:	1021883a 	mov	r16,r2
  8090e0:	1823883a 	mov	r17,r3
  8090e4:	080f0b80 	call	80f0b8 <__nedf2>
  8090e8:	10004526 	beq	r2,zero,809200 <_dtoa_r+0x728>
  8090ec:	900d883a 	mov	r6,r18
  8090f0:	980f883a 	mov	r7,r19
  8090f4:	8009883a 	mov	r4,r16
  8090f8:	880b883a 	mov	r5,r17
  8090fc:	080edd80 	call	80edd8 <__divdf3>
  809100:	180b883a 	mov	r5,r3
  809104:	1009883a 	mov	r4,r2
  809108:	0805c380 	call	805c38 <__fixdfsi>
  80910c:	1009883a 	mov	r4,r2
  809110:	1029883a 	mov	r20,r2
  809114:	0805b400 	call	805b40 <__floatsidf>
  809118:	180f883a 	mov	r7,r3
  80911c:	9009883a 	mov	r4,r18
  809120:	980b883a 	mov	r5,r19
  809124:	100d883a 	mov	r6,r2
  809128:	080ea140 	call	80ea14 <__muldf3>
  80912c:	180f883a 	mov	r7,r3
  809130:	880b883a 	mov	r5,r17
  809134:	8009883a 	mov	r4,r16
  809138:	100d883a 	mov	r6,r2
  80913c:	0805a4c0 	call	805a4c <__subdf3>
  809140:	1015883a 	mov	r10,r2
  809144:	a0800c04 	addi	r2,r20,48
  809148:	e0800005 	stb	r2,0(fp)
  80914c:	e7000044 	addi	fp,fp,1
  809150:	1817883a 	mov	r11,r3
  809154:	e57fd61e 	bne	fp,r21,8090b0 <_dtoa_r+0x5d8>
  809158:	500d883a 	mov	r6,r10
  80915c:	180f883a 	mov	r7,r3
  809160:	5009883a 	mov	r4,r10
  809164:	180b883a 	mov	r5,r3
  809168:	0805acc0 	call	805acc <__adddf3>
  80916c:	100d883a 	mov	r6,r2
  809170:	9009883a 	mov	r4,r18
  809174:	980b883a 	mov	r5,r19
  809178:	180f883a 	mov	r7,r3
  80917c:	1021883a 	mov	r16,r2
  809180:	1823883a 	mov	r17,r3
  809184:	080f2500 	call	80f250 <__ltdf2>
  809188:	10000816 	blt	r2,zero,8091ac <_dtoa_r+0x6d4>
  80918c:	980b883a 	mov	r5,r19
  809190:	800d883a 	mov	r6,r16
  809194:	880f883a 	mov	r7,r17
  809198:	9009883a 	mov	r4,r18
  80919c:	080f0300 	call	80f030 <__eqdf2>
  8091a0:	1000171e 	bne	r2,zero,809200 <_dtoa_r+0x728>
  8091a4:	a080004c 	andi	r2,r20,1
  8091a8:	10001526 	beq	r2,zero,809200 <_dtoa_r+0x728>
  8091ac:	d8800d17 	ldw	r2,52(sp)
  8091b0:	d8800415 	stw	r2,16(sp)
  8091b4:	e009883a 	mov	r4,fp
  8091b8:	213fffc4 	addi	r4,r4,-1
  8091bc:	20c00007 	ldb	r3,0(r4)
  8091c0:	00800e44 	movi	r2,57
  8091c4:	1880081e 	bne	r3,r2,8091e8 <_dtoa_r+0x710>
  8091c8:	d8800517 	ldw	r2,20(sp)
  8091cc:	113ffa1e 	bne	r2,r4,8091b8 <_dtoa_r+0x6e0>
  8091d0:	d8c00417 	ldw	r3,16(sp)
  8091d4:	d9800517 	ldw	r6,20(sp)
  8091d8:	00800c04 	movi	r2,48
  8091dc:	18c00044 	addi	r3,r3,1
  8091e0:	d8c00415 	stw	r3,16(sp)
  8091e4:	30800005 	stb	r2,0(r6)
  8091e8:	20800003 	ldbu	r2,0(r4)
  8091ec:	d8c00417 	ldw	r3,16(sp)
  8091f0:	27000044 	addi	fp,r4,1
  8091f4:	10800044 	addi	r2,r2,1
  8091f8:	d8c00d15 	stw	r3,52(sp)
  8091fc:	20800005 	stb	r2,0(r4)
  809200:	d9001617 	ldw	r4,88(sp)
  809204:	d9400717 	ldw	r5,28(sp)
  809208:	080bc000 	call	80bc00 <_Bfree>
  80920c:	e0000005 	stb	zero,0(fp)
  809210:	d9800d17 	ldw	r6,52(sp)
  809214:	d8c02717 	ldw	r3,156(sp)
  809218:	d9002917 	ldw	r4,164(sp)
  80921c:	30800044 	addi	r2,r6,1
  809220:	18800015 	stw	r2,0(r3)
  809224:	20029c26 	beq	r4,zero,809c98 <_dtoa_r+0x11c0>
  809228:	d8c00517 	ldw	r3,20(sp)
  80922c:	27000015 	stw	fp,0(r4)
  809230:	003e5d06 	br	808ba8 <_dtoa_r+0xd0>
  809234:	d9800d17 	ldw	r6,52(sp)
  809238:	00c02074 	movhi	r3,129
  80923c:	18cd1104 	addi	r3,r3,13380
  809240:	d9001217 	ldw	r4,72(sp)
  809244:	300490fa 	slli	r2,r6,3
  809248:	d9401317 	ldw	r5,76(sp)
  80924c:	10c5883a 	add	r2,r2,r3
  809250:	12000017 	ldw	r8,0(r2)
  809254:	12400117 	ldw	r9,4(r2)
  809258:	400d883a 	mov	r6,r8
  80925c:	480f883a 	mov	r7,r9
  809260:	080f2500 	call	80f250 <__ltdf2>
  809264:	1000030e 	bge	r2,zero,809274 <_dtoa_r+0x79c>
  809268:	d8800d17 	ldw	r2,52(sp)
  80926c:	10bfffc4 	addi	r2,r2,-1
  809270:	d8800d15 	stw	r2,52(sp)
  809274:	d8000c15 	stw	zero,48(sp)
  809278:	003ea806 	br	808d1c <_dtoa_r+0x244>
  80927c:	d9000b17 	ldw	r4,44(sp)
  809280:	202cc03a 	cmpne	r22,r4,zero
  809284:	b000c71e 	bne	r22,zero,8095a4 <_dtoa_r+0xacc>
  809288:	dc001117 	ldw	r16,68(sp)
  80928c:	dc801017 	ldw	r18,64(sp)
  809290:	0027883a 	mov	r19,zero
  809294:	04000b0e 	bge	zero,r16,8092c4 <_dtoa_r+0x7ec>
  809298:	d8c00a17 	ldw	r3,40(sp)
  80929c:	00c0090e 	bge	zero,r3,8092c4 <_dtoa_r+0x7ec>
  8092a0:	8005883a 	mov	r2,r16
  8092a4:	1c011316 	blt	r3,r16,8096f4 <_dtoa_r+0xc1c>
  8092a8:	d9000a17 	ldw	r4,40(sp)
  8092ac:	d9801117 	ldw	r6,68(sp)
  8092b0:	80a1c83a 	sub	r16,r16,r2
  8092b4:	2089c83a 	sub	r4,r4,r2
  8092b8:	308dc83a 	sub	r6,r6,r2
  8092bc:	d9000a15 	stw	r4,40(sp)
  8092c0:	d9801115 	stw	r6,68(sp)
  8092c4:	d8801017 	ldw	r2,64(sp)
  8092c8:	0080150e 	bge	zero,r2,809320 <_dtoa_r+0x848>
  8092cc:	d8c00b17 	ldw	r3,44(sp)
  8092d0:	1805003a 	cmpeq	r2,r3,zero
  8092d4:	1001c91e 	bne	r2,zero,8099fc <_dtoa_r+0xf24>
  8092d8:	04800e0e 	bge	zero,r18,809314 <_dtoa_r+0x83c>
  8092dc:	d9001617 	ldw	r4,88(sp)
  8092e0:	980b883a 	mov	r5,r19
  8092e4:	900d883a 	mov	r6,r18
  8092e8:	080ca4c0 	call	80ca4c <__pow5mult>
  8092ec:	d9001617 	ldw	r4,88(sp)
  8092f0:	d9800717 	ldw	r6,28(sp)
  8092f4:	100b883a 	mov	r5,r2
  8092f8:	1027883a 	mov	r19,r2
  8092fc:	080c6900 	call	80c690 <__multiply>
  809300:	d9001617 	ldw	r4,88(sp)
  809304:	d9400717 	ldw	r5,28(sp)
  809308:	1023883a 	mov	r17,r2
  80930c:	080bc000 	call	80bc00 <_Bfree>
  809310:	dc400715 	stw	r17,28(sp)
  809314:	d9001017 	ldw	r4,64(sp)
  809318:	248dc83a 	sub	r6,r4,r18
  80931c:	30010e1e 	bne	r6,zero,809758 <_dtoa_r+0xc80>
  809320:	d9001617 	ldw	r4,88(sp)
  809324:	04400044 	movi	r17,1
  809328:	880b883a 	mov	r5,r17
  80932c:	080c8e40 	call	80c8e4 <__i2b>
  809330:	d9800917 	ldw	r6,36(sp)
  809334:	1025883a 	mov	r18,r2
  809338:	0180040e 	bge	zero,r6,80934c <_dtoa_r+0x874>
  80933c:	d9001617 	ldw	r4,88(sp)
  809340:	100b883a 	mov	r5,r2
  809344:	080ca4c0 	call	80ca4c <__pow5mult>
  809348:	1025883a 	mov	r18,r2
  80934c:	d8801717 	ldw	r2,92(sp)
  809350:	8880f30e 	bge	r17,r2,809720 <_dtoa_r+0xc48>
  809354:	0023883a 	mov	r17,zero
  809358:	d9800917 	ldw	r6,36(sp)
  80935c:	30019e1e 	bne	r6,zero,8099d8 <_dtoa_r+0xf00>
  809360:	00c00044 	movi	r3,1
  809364:	d9000a17 	ldw	r4,40(sp)
  809368:	20c5883a 	add	r2,r4,r3
  80936c:	10c007cc 	andi	r3,r2,31
  809370:	1800841e 	bne	r3,zero,809584 <_dtoa_r+0xaac>
  809374:	00800704 	movi	r2,28
  809378:	d9000a17 	ldw	r4,40(sp)
  80937c:	d9801117 	ldw	r6,68(sp)
  809380:	80a1883a 	add	r16,r16,r2
  809384:	2089883a 	add	r4,r4,r2
  809388:	308d883a 	add	r6,r6,r2
  80938c:	d9000a15 	stw	r4,40(sp)
  809390:	d9801115 	stw	r6,68(sp)
  809394:	d8801117 	ldw	r2,68(sp)
  809398:	0080050e 	bge	zero,r2,8093b0 <_dtoa_r+0x8d8>
  80939c:	d9400717 	ldw	r5,28(sp)
  8093a0:	d9001617 	ldw	r4,88(sp)
  8093a4:	100d883a 	mov	r6,r2
  8093a8:	080c5440 	call	80c544 <__lshift>
  8093ac:	d8800715 	stw	r2,28(sp)
  8093b0:	d8c00a17 	ldw	r3,40(sp)
  8093b4:	00c0050e 	bge	zero,r3,8093cc <_dtoa_r+0x8f4>
  8093b8:	d9001617 	ldw	r4,88(sp)
  8093bc:	900b883a 	mov	r5,r18
  8093c0:	180d883a 	mov	r6,r3
  8093c4:	080c5440 	call	80c544 <__lshift>
  8093c8:	1025883a 	mov	r18,r2
  8093cc:	d9000c17 	ldw	r4,48(sp)
  8093d0:	2005003a 	cmpeq	r2,r4,zero
  8093d4:	10016f26 	beq	r2,zero,809994 <_dtoa_r+0xebc>
  8093d8:	d9000f17 	ldw	r4,60(sp)
  8093dc:	0102170e 	bge	zero,r4,809c3c <_dtoa_r+0x1164>
  8093e0:	d9800b17 	ldw	r6,44(sp)
  8093e4:	3005003a 	cmpeq	r2,r6,zero
  8093e8:	1000881e 	bne	r2,zero,80960c <_dtoa_r+0xb34>
  8093ec:	0400050e 	bge	zero,r16,809404 <_dtoa_r+0x92c>
  8093f0:	d9001617 	ldw	r4,88(sp)
  8093f4:	980b883a 	mov	r5,r19
  8093f8:	800d883a 	mov	r6,r16
  8093fc:	080c5440 	call	80c544 <__lshift>
  809400:	1027883a 	mov	r19,r2
  809404:	8804c03a 	cmpne	r2,r17,zero
  809408:	1002541e 	bne	r2,zero,809d5c <_dtoa_r+0x1284>
  80940c:	980b883a 	mov	r5,r19
  809410:	dd800517 	ldw	r22,20(sp)
  809414:	dcc00615 	stw	r19,24(sp)
  809418:	a700004c 	andi	fp,r20,1
  80941c:	2827883a 	mov	r19,r5
  809420:	d9000717 	ldw	r4,28(sp)
  809424:	900b883a 	mov	r5,r18
  809428:	08088940 	call	808894 <quorem>
  80942c:	d9000717 	ldw	r4,28(sp)
  809430:	d9400617 	ldw	r5,24(sp)
  809434:	1023883a 	mov	r17,r2
  809438:	8dc00c04 	addi	r23,r17,48
  80943c:	080bd5c0 	call	80bd5c <__mcmp>
  809440:	d9001617 	ldw	r4,88(sp)
  809444:	900b883a 	mov	r5,r18
  809448:	980d883a 	mov	r6,r19
  80944c:	1029883a 	mov	r20,r2
  809450:	080c3b80 	call	80c3b8 <__mdiff>
  809454:	102b883a 	mov	r21,r2
  809458:	10800317 	ldw	r2,12(r2)
  80945c:	1001281e 	bne	r2,zero,809900 <_dtoa_r+0xe28>
  809460:	d9000717 	ldw	r4,28(sp)
  809464:	a80b883a 	mov	r5,r21
  809468:	080bd5c0 	call	80bd5c <__mcmp>
  80946c:	d9001617 	ldw	r4,88(sp)
  809470:	1021883a 	mov	r16,r2
  809474:	a80b883a 	mov	r5,r21
  809478:	080bc000 	call	80bc00 <_Bfree>
  80947c:	8000041e 	bne	r16,zero,809490 <_dtoa_r+0x9b8>
  809480:	d8801717 	ldw	r2,92(sp)
  809484:	1000021e 	bne	r2,zero,809490 <_dtoa_r+0x9b8>
  809488:	e004c03a 	cmpne	r2,fp,zero
  80948c:	10011726 	beq	r2,zero,8098ec <_dtoa_r+0xe14>
  809490:	a0010616 	blt	r20,zero,8098ac <_dtoa_r+0xdd4>
  809494:	a000041e 	bne	r20,zero,8094a8 <_dtoa_r+0x9d0>
  809498:	d8c01717 	ldw	r3,92(sp)
  80949c:	1800021e 	bne	r3,zero,8094a8 <_dtoa_r+0x9d0>
  8094a0:	e004c03a 	cmpne	r2,fp,zero
  8094a4:	10010126 	beq	r2,zero,8098ac <_dtoa_r+0xdd4>
  8094a8:	04023d16 	blt	zero,r16,809da0 <_dtoa_r+0x12c8>
  8094ac:	b5c00005 	stb	r23,0(r22)
  8094b0:	d9800517 	ldw	r6,20(sp)
  8094b4:	d9000f17 	ldw	r4,60(sp)
  8094b8:	b5800044 	addi	r22,r22,1
  8094bc:	3105883a 	add	r2,r6,r4
  8094c0:	b0806526 	beq	r22,r2,809658 <_dtoa_r+0xb80>
  8094c4:	d9400717 	ldw	r5,28(sp)
  8094c8:	d9001617 	ldw	r4,88(sp)
  8094cc:	01800284 	movi	r6,10
  8094d0:	000f883a 	mov	r7,zero
  8094d4:	080c9200 	call	80c920 <__multadd>
  8094d8:	d8800715 	stw	r2,28(sp)
  8094dc:	d8800617 	ldw	r2,24(sp)
  8094e0:	14c10c26 	beq	r2,r19,809914 <_dtoa_r+0xe3c>
  8094e4:	d9400617 	ldw	r5,24(sp)
  8094e8:	d9001617 	ldw	r4,88(sp)
  8094ec:	01800284 	movi	r6,10
  8094f0:	000f883a 	mov	r7,zero
  8094f4:	080c9200 	call	80c920 <__multadd>
  8094f8:	d9001617 	ldw	r4,88(sp)
  8094fc:	980b883a 	mov	r5,r19
  809500:	01800284 	movi	r6,10
  809504:	000f883a 	mov	r7,zero
  809508:	d8800615 	stw	r2,24(sp)
  80950c:	080c9200 	call	80c920 <__multadd>
  809510:	1027883a 	mov	r19,r2
  809514:	003fc206 	br	809420 <_dtoa_r+0x948>
  809518:	2445c83a 	sub	r2,r4,r17
  80951c:	a088983a 	sll	r4,r20,r2
  809520:	003e4b06 	br	808e50 <_dtoa_r+0x378>
  809524:	01bfffc4 	movi	r6,-1
  809528:	00800044 	movi	r2,1
  80952c:	d9800e15 	stw	r6,56(sp)
  809530:	d9800f15 	stw	r6,60(sp)
  809534:	d8800b15 	stw	r2,44(sp)
  809538:	d8c01617 	ldw	r3,88(sp)
  80953c:	008005c4 	movi	r2,23
  809540:	18001115 	stw	zero,68(r3)
  809544:	1580082e 	bgeu	r2,r22,809568 <_dtoa_r+0xa90>
  809548:	00c00104 	movi	r3,4
  80954c:	0009883a 	mov	r4,zero
  809550:	18c7883a 	add	r3,r3,r3
  809554:	18800504 	addi	r2,r3,20
  809558:	21000044 	addi	r4,r4,1
  80955c:	b0bffc2e 	bgeu	r22,r2,809550 <_dtoa_r+0xa78>
  809560:	d9801617 	ldw	r6,88(sp)
  809564:	31001115 	stw	r4,68(r6)
  809568:	dc000f17 	ldw	r16,60(sp)
  80956c:	003e4b06 	br	808e9c <_dtoa_r+0x3c4>
  809570:	d9801717 	ldw	r6,92(sp)
  809574:	0023883a 	mov	r17,zero
  809578:	31bfff04 	addi	r6,r6,-4
  80957c:	d9801715 	stw	r6,92(sp)
  809580:	003df806 	br	808d64 <_dtoa_r+0x28c>
  809584:	00800804 	movi	r2,32
  809588:	10c9c83a 	sub	r4,r2,r3
  80958c:	00c00104 	movi	r3,4
  809590:	19005a16 	blt	r3,r4,8096fc <_dtoa_r+0xc24>
  809594:	008000c4 	movi	r2,3
  809598:	113f7e16 	blt	r2,r4,809394 <_dtoa_r+0x8bc>
  80959c:	20800704 	addi	r2,r4,28
  8095a0:	003f7506 	br	809378 <_dtoa_r+0x8a0>
  8095a4:	d9801717 	ldw	r6,92(sp)
  8095a8:	00800044 	movi	r2,1
  8095ac:	1180a10e 	bge	r2,r6,809834 <_dtoa_r+0xd5c>
  8095b0:	d9800f17 	ldw	r6,60(sp)
  8095b4:	d8c01017 	ldw	r3,64(sp)
  8095b8:	30bfffc4 	addi	r2,r6,-1
  8095bc:	1881c616 	blt	r3,r2,809cd8 <_dtoa_r+0x1200>
  8095c0:	18a5c83a 	sub	r18,r3,r2
  8095c4:	d8800f17 	ldw	r2,60(sp)
  8095c8:	10026216 	blt	r2,zero,809f54 <_dtoa_r+0x147c>
  8095cc:	dc001117 	ldw	r16,68(sp)
  8095d0:	1007883a 	mov	r3,r2
  8095d4:	d9800a17 	ldw	r6,40(sp)
  8095d8:	d8801117 	ldw	r2,68(sp)
  8095dc:	d9001617 	ldw	r4,88(sp)
  8095e0:	30cd883a 	add	r6,r6,r3
  8095e4:	10c5883a 	add	r2,r2,r3
  8095e8:	01400044 	movi	r5,1
  8095ec:	d9800a15 	stw	r6,40(sp)
  8095f0:	d8801115 	stw	r2,68(sp)
  8095f4:	080c8e40 	call	80c8e4 <__i2b>
  8095f8:	1027883a 	mov	r19,r2
  8095fc:	003f2506 	br	809294 <_dtoa_r+0x7bc>
  809600:	00c02074 	movhi	r3,129
  809604:	18cc5304 	addi	r3,r3,12620
  809608:	003d6706 	br	808ba8 <_dtoa_r+0xd0>
  80960c:	dd800517 	ldw	r22,20(sp)
  809610:	04000044 	movi	r16,1
  809614:	00000706 	br	809634 <_dtoa_r+0xb5c>
  809618:	d9400717 	ldw	r5,28(sp)
  80961c:	d9001617 	ldw	r4,88(sp)
  809620:	01800284 	movi	r6,10
  809624:	000f883a 	mov	r7,zero
  809628:	080c9200 	call	80c920 <__multadd>
  80962c:	d8800715 	stw	r2,28(sp)
  809630:	84000044 	addi	r16,r16,1
  809634:	d9000717 	ldw	r4,28(sp)
  809638:	900b883a 	mov	r5,r18
  80963c:	08088940 	call	808894 <quorem>
  809640:	15c00c04 	addi	r23,r2,48
  809644:	b5c00005 	stb	r23,0(r22)
  809648:	d8c00f17 	ldw	r3,60(sp)
  80964c:	b5800044 	addi	r22,r22,1
  809650:	80fff116 	blt	r16,r3,809618 <_dtoa_r+0xb40>
  809654:	d8000615 	stw	zero,24(sp)
  809658:	d9400717 	ldw	r5,28(sp)
  80965c:	d9001617 	ldw	r4,88(sp)
  809660:	01800044 	movi	r6,1
  809664:	080c5440 	call	80c544 <__lshift>
  809668:	1009883a 	mov	r4,r2
  80966c:	900b883a 	mov	r5,r18
  809670:	d8800715 	stw	r2,28(sp)
  809674:	080bd5c0 	call	80bd5c <__mcmp>
  809678:	00803c0e 	bge	zero,r2,80976c <_dtoa_r+0xc94>
  80967c:	b009883a 	mov	r4,r22
  809680:	213fffc4 	addi	r4,r4,-1
  809684:	21400003 	ldbu	r5,0(r4)
  809688:	00800e44 	movi	r2,57
  80968c:	28c03fcc 	andi	r3,r5,255
  809690:	18c0201c 	xori	r3,r3,128
  809694:	18ffe004 	addi	r3,r3,-128
  809698:	1881981e 	bne	r3,r2,809cfc <_dtoa_r+0x1224>
  80969c:	d9800517 	ldw	r6,20(sp)
  8096a0:	21bff71e 	bne	r4,r6,809680 <_dtoa_r+0xba8>
  8096a4:	d8800d17 	ldw	r2,52(sp)
  8096a8:	37000044 	addi	fp,r6,1
  8096ac:	10800044 	addi	r2,r2,1
  8096b0:	d8800d15 	stw	r2,52(sp)
  8096b4:	00800c44 	movi	r2,49
  8096b8:	30800005 	stb	r2,0(r6)
  8096bc:	d9001617 	ldw	r4,88(sp)
  8096c0:	900b883a 	mov	r5,r18
  8096c4:	080bc000 	call	80bc00 <_Bfree>
  8096c8:	983ecd26 	beq	r19,zero,809200 <_dtoa_r+0x728>
  8096cc:	d8c00617 	ldw	r3,24(sp)
  8096d0:	18000426 	beq	r3,zero,8096e4 <_dtoa_r+0xc0c>
  8096d4:	1cc00326 	beq	r3,r19,8096e4 <_dtoa_r+0xc0c>
  8096d8:	d9001617 	ldw	r4,88(sp)
  8096dc:	180b883a 	mov	r5,r3
  8096e0:	080bc000 	call	80bc00 <_Bfree>
  8096e4:	d9001617 	ldw	r4,88(sp)
  8096e8:	980b883a 	mov	r5,r19
  8096ec:	080bc000 	call	80bc00 <_Bfree>
  8096f0:	003ec306 	br	809200 <_dtoa_r+0x728>
  8096f4:	1805883a 	mov	r2,r3
  8096f8:	003eeb06 	br	8092a8 <_dtoa_r+0x7d0>
  8096fc:	d9800a17 	ldw	r6,40(sp)
  809700:	d8c01117 	ldw	r3,68(sp)
  809704:	20bfff04 	addi	r2,r4,-4
  809708:	308d883a 	add	r6,r6,r2
  80970c:	1887883a 	add	r3,r3,r2
  809710:	80a1883a 	add	r16,r16,r2
  809714:	d9800a15 	stw	r6,40(sp)
  809718:	d8c01115 	stw	r3,68(sp)
  80971c:	003f1d06 	br	809394 <_dtoa_r+0x8bc>
  809720:	a03f0c1e 	bne	r20,zero,809354 <_dtoa_r+0x87c>
  809724:	00800434 	movhi	r2,16
  809728:	10bfffc4 	addi	r2,r2,-1
  80972c:	a884703a 	and	r2,r21,r2
  809730:	103f081e 	bne	r2,zero,809354 <_dtoa_r+0x87c>
  809734:	a89ffc2c 	andhi	r2,r21,32752
  809738:	103f0626 	beq	r2,zero,809354 <_dtoa_r+0x87c>
  80973c:	d8c01117 	ldw	r3,68(sp)
  809740:	d9000a17 	ldw	r4,40(sp)
  809744:	18c00044 	addi	r3,r3,1
  809748:	21000044 	addi	r4,r4,1
  80974c:	d8c01115 	stw	r3,68(sp)
  809750:	d9000a15 	stw	r4,40(sp)
  809754:	003f0006 	br	809358 <_dtoa_r+0x880>
  809758:	d9400717 	ldw	r5,28(sp)
  80975c:	d9001617 	ldw	r4,88(sp)
  809760:	080ca4c0 	call	80ca4c <__pow5mult>
  809764:	d8800715 	stw	r2,28(sp)
  809768:	003eed06 	br	809320 <_dtoa_r+0x848>
  80976c:	1000021e 	bne	r2,zero,809778 <_dtoa_r+0xca0>
  809770:	b880004c 	andi	r2,r23,1
  809774:	103fc11e 	bne	r2,zero,80967c <_dtoa_r+0xba4>
  809778:	b5bfffc4 	addi	r22,r22,-1
  80977c:	b0c00007 	ldb	r3,0(r22)
  809780:	00800c04 	movi	r2,48
  809784:	18bffc26 	beq	r3,r2,809778 <_dtoa_r+0xca0>
  809788:	b7000044 	addi	fp,r22,1
  80978c:	003fcb06 	br	8096bc <_dtoa_r+0xbe4>
  809790:	d9800d17 	ldw	r6,52(sp)
  809794:	018fc83a 	sub	r7,zero,r6
  809798:	3801f726 	beq	r7,zero,809f78 <_dtoa_r+0x14a0>
  80979c:	398003cc 	andi	r6,r7,15
  8097a0:	300c90fa 	slli	r6,r6,3
  8097a4:	01402074 	movhi	r5,129
  8097a8:	294d1104 	addi	r5,r5,13380
  8097ac:	d9001217 	ldw	r4,72(sp)
  8097b0:	314d883a 	add	r6,r6,r5
  8097b4:	30c00117 	ldw	r3,4(r6)
  8097b8:	30800017 	ldw	r2,0(r6)
  8097bc:	d9401317 	ldw	r5,76(sp)
  8097c0:	3821d13a 	srai	r16,r7,4
  8097c4:	100d883a 	mov	r6,r2
  8097c8:	180f883a 	mov	r7,r3
  8097cc:	080ea140 	call	80ea14 <__muldf3>
  8097d0:	1011883a 	mov	r8,r2
  8097d4:	1813883a 	mov	r9,r3
  8097d8:	1029883a 	mov	r20,r2
  8097dc:	182b883a 	mov	r21,r3
  8097e0:	8001e526 	beq	r16,zero,809f78 <_dtoa_r+0x14a0>
  8097e4:	05800084 	movi	r22,2
  8097e8:	04402074 	movhi	r17,129
  8097ec:	8c4d4304 	addi	r17,r17,13580
  8097f0:	8080004c 	andi	r2,r16,1
  8097f4:	1005003a 	cmpeq	r2,r2,zero
  8097f8:	1000081e 	bne	r2,zero,80981c <_dtoa_r+0xd44>
  8097fc:	89800017 	ldw	r6,0(r17)
  809800:	89c00117 	ldw	r7,4(r17)
  809804:	480b883a 	mov	r5,r9
  809808:	4009883a 	mov	r4,r8
  80980c:	080ea140 	call	80ea14 <__muldf3>
  809810:	1011883a 	mov	r8,r2
  809814:	b5800044 	addi	r22,r22,1
  809818:	1813883a 	mov	r9,r3
  80981c:	8021d07a 	srai	r16,r16,1
  809820:	8c400204 	addi	r17,r17,8
  809824:	803ff21e 	bne	r16,zero,8097f0 <_dtoa_r+0xd18>
  809828:	4029883a 	mov	r20,r8
  80982c:	482b883a 	mov	r21,r9
  809830:	003dca06 	br	808f5c <_dtoa_r+0x484>
  809834:	d9000817 	ldw	r4,32(sp)
  809838:	2005003a 	cmpeq	r2,r4,zero
  80983c:	1001f61e 	bne	r2,zero,80a018 <_dtoa_r+0x1540>
  809840:	dc001117 	ldw	r16,68(sp)
  809844:	dc801017 	ldw	r18,64(sp)
  809848:	18c10cc4 	addi	r3,r3,1075
  80984c:	003f6106 	br	8095d4 <_dtoa_r+0xafc>
  809850:	d8000b15 	stw	zero,44(sp)
  809854:	d9802617 	ldw	r6,152(sp)
  809858:	d8c00d17 	ldw	r3,52(sp)
  80985c:	30800044 	addi	r2,r6,1
  809860:	18ad883a 	add	r22,r3,r2
  809864:	b13fffc4 	addi	r4,r22,-1
  809868:	d9000e15 	stw	r4,56(sp)
  80986c:	0581f60e 	bge	zero,r22,80a048 <_dtoa_r+0x1570>
  809870:	dd800f15 	stw	r22,60(sp)
  809874:	003f3006 	br	809538 <_dtoa_r+0xa60>
  809878:	d8000b15 	stw	zero,44(sp)
  80987c:	d9002617 	ldw	r4,152(sp)
  809880:	0101eb0e 	bge	zero,r4,80a030 <_dtoa_r+0x1558>
  809884:	202d883a 	mov	r22,r4
  809888:	d9000e15 	stw	r4,56(sp)
  80988c:	d9000f15 	stw	r4,60(sp)
  809890:	003f2906 	br	809538 <_dtoa_r+0xa60>
  809894:	01800044 	movi	r6,1
  809898:	d9800b15 	stw	r6,44(sp)
  80989c:	003ff706 	br	80987c <_dtoa_r+0xda4>
  8098a0:	01000044 	movi	r4,1
  8098a4:	d9000b15 	stw	r4,44(sp)
  8098a8:	003fea06 	br	809854 <_dtoa_r+0xd7c>
  8098ac:	04000c0e 	bge	zero,r16,8098e0 <_dtoa_r+0xe08>
  8098b0:	d9400717 	ldw	r5,28(sp)
  8098b4:	d9001617 	ldw	r4,88(sp)
  8098b8:	01800044 	movi	r6,1
  8098bc:	080c5440 	call	80c544 <__lshift>
  8098c0:	1009883a 	mov	r4,r2
  8098c4:	900b883a 	mov	r5,r18
  8098c8:	d8800715 	stw	r2,28(sp)
  8098cc:	080bd5c0 	call	80bd5c <__mcmp>
  8098d0:	0081e00e 	bge	zero,r2,80a054 <_dtoa_r+0x157c>
  8098d4:	bdc00044 	addi	r23,r23,1
  8098d8:	00800e84 	movi	r2,58
  8098dc:	b881a226 	beq	r23,r2,809f68 <_dtoa_r+0x1490>
  8098e0:	b7000044 	addi	fp,r22,1
  8098e4:	b5c00005 	stb	r23,0(r22)
  8098e8:	003f7406 	br	8096bc <_dtoa_r+0xbe4>
  8098ec:	00800e44 	movi	r2,57
  8098f0:	b8819d26 	beq	r23,r2,809f68 <_dtoa_r+0x1490>
  8098f4:	053ffa0e 	bge	zero,r20,8098e0 <_dtoa_r+0xe08>
  8098f8:	8dc00c44 	addi	r23,r17,49
  8098fc:	003ff806 	br	8098e0 <_dtoa_r+0xe08>
  809900:	d9001617 	ldw	r4,88(sp)
  809904:	a80b883a 	mov	r5,r21
  809908:	04000044 	movi	r16,1
  80990c:	080bc000 	call	80bc00 <_Bfree>
  809910:	003edf06 	br	809490 <_dtoa_r+0x9b8>
  809914:	d9001617 	ldw	r4,88(sp)
  809918:	980b883a 	mov	r5,r19
  80991c:	01800284 	movi	r6,10
  809920:	000f883a 	mov	r7,zero
  809924:	080c9200 	call	80c920 <__multadd>
  809928:	1027883a 	mov	r19,r2
  80992c:	d8800615 	stw	r2,24(sp)
  809930:	003ebb06 	br	809420 <_dtoa_r+0x948>
  809934:	d9801117 	ldw	r6,68(sp)
  809938:	d8800d17 	ldw	r2,52(sp)
  80993c:	d8000915 	stw	zero,36(sp)
  809940:	308dc83a 	sub	r6,r6,r2
  809944:	0087c83a 	sub	r3,zero,r2
  809948:	d9801115 	stw	r6,68(sp)
  80994c:	d8c01015 	stw	r3,64(sp)
  809950:	003cfe06 	br	808d4c <_dtoa_r+0x274>
  809954:	018dc83a 	sub	r6,zero,r6
  809958:	d9801115 	stw	r6,68(sp)
  80995c:	d8000a15 	stw	zero,40(sp)
  809960:	003cf306 	br	808d30 <_dtoa_r+0x258>
  809964:	d9000d17 	ldw	r4,52(sp)
  809968:	0805b400 	call	805b40 <__floatsidf>
  80996c:	880b883a 	mov	r5,r17
  809970:	8009883a 	mov	r4,r16
  809974:	180f883a 	mov	r7,r3
  809978:	100d883a 	mov	r6,r2
  80997c:	080f0b80 	call	80f0b8 <__nedf2>
  809980:	103ce126 	beq	r2,zero,808d08 <_dtoa_r+0x230>
  809984:	d9800d17 	ldw	r6,52(sp)
  809988:	31bfffc4 	addi	r6,r6,-1
  80998c:	d9800d15 	stw	r6,52(sp)
  809990:	003cdd06 	br	808d08 <_dtoa_r+0x230>
  809994:	d9000717 	ldw	r4,28(sp)
  809998:	900b883a 	mov	r5,r18
  80999c:	080bd5c0 	call	80bd5c <__mcmp>
  8099a0:	103e8d0e 	bge	r2,zero,8093d8 <_dtoa_r+0x900>
  8099a4:	d9400717 	ldw	r5,28(sp)
  8099a8:	d9001617 	ldw	r4,88(sp)
  8099ac:	01800284 	movi	r6,10
  8099b0:	000f883a 	mov	r7,zero
  8099b4:	080c9200 	call	80c920 <__multadd>
  8099b8:	d9800d17 	ldw	r6,52(sp)
  8099bc:	d8800715 	stw	r2,28(sp)
  8099c0:	31bfffc4 	addi	r6,r6,-1
  8099c4:	d9800d15 	stw	r6,52(sp)
  8099c8:	b001a71e 	bne	r22,zero,80a068 <_dtoa_r+0x1590>
  8099cc:	d8800e17 	ldw	r2,56(sp)
  8099d0:	d8800f15 	stw	r2,60(sp)
  8099d4:	003e8006 	br	8093d8 <_dtoa_r+0x900>
  8099d8:	90800417 	ldw	r2,16(r18)
  8099dc:	1085883a 	add	r2,r2,r2
  8099e0:	1085883a 	add	r2,r2,r2
  8099e4:	1485883a 	add	r2,r2,r18
  8099e8:	11000417 	ldw	r4,16(r2)
  8099ec:	080bc280 	call	80bc28 <__hi0bits>
  8099f0:	00c00804 	movi	r3,32
  8099f4:	1887c83a 	sub	r3,r3,r2
  8099f8:	003e5a06 	br	809364 <_dtoa_r+0x88c>
  8099fc:	d9400717 	ldw	r5,28(sp)
  809a00:	d9801017 	ldw	r6,64(sp)
  809a04:	d9001617 	ldw	r4,88(sp)
  809a08:	080ca4c0 	call	80ca4c <__pow5mult>
  809a0c:	d8800715 	stw	r2,28(sp)
  809a10:	003e4306 	br	809320 <_dtoa_r+0x848>
  809a14:	d9800f17 	ldw	r6,60(sp)
  809a18:	d8800d17 	ldw	r2,52(sp)
  809a1c:	d9800315 	stw	r6,12(sp)
  809a20:	d8800415 	stw	r2,16(sp)
  809a24:	d8c00b17 	ldw	r3,44(sp)
  809a28:	1805003a 	cmpeq	r2,r3,zero
  809a2c:	1000e21e 	bne	r2,zero,809db8 <_dtoa_r+0x12e0>
  809a30:	d9000317 	ldw	r4,12(sp)
  809a34:	0005883a 	mov	r2,zero
  809a38:	00cff834 	movhi	r3,16352
  809a3c:	200c90fa 	slli	r6,r4,3
  809a40:	01002074 	movhi	r4,129
  809a44:	210d1104 	addi	r4,r4,13380
  809a48:	180b883a 	mov	r5,r3
  809a4c:	310d883a 	add	r6,r6,r4
  809a50:	327fff17 	ldw	r9,-4(r6)
  809a54:	323ffe17 	ldw	r8,-8(r6)
  809a58:	1009883a 	mov	r4,r2
  809a5c:	480f883a 	mov	r7,r9
  809a60:	400d883a 	mov	r6,r8
  809a64:	080edd80 	call	80edd8 <__divdf3>
  809a68:	180b883a 	mov	r5,r3
  809a6c:	b00d883a 	mov	r6,r22
  809a70:	b80f883a 	mov	r7,r23
  809a74:	1009883a 	mov	r4,r2
  809a78:	0805a4c0 	call	805a4c <__subdf3>
  809a7c:	a80b883a 	mov	r5,r21
  809a80:	a009883a 	mov	r4,r20
  809a84:	d8c01915 	stw	r3,100(sp)
  809a88:	d8801815 	stw	r2,96(sp)
  809a8c:	0805c380 	call	805c38 <__fixdfsi>
  809a90:	1009883a 	mov	r4,r2
  809a94:	1027883a 	mov	r19,r2
  809a98:	0805b400 	call	805b40 <__floatsidf>
  809a9c:	a80b883a 	mov	r5,r21
  809aa0:	a009883a 	mov	r4,r20
  809aa4:	180f883a 	mov	r7,r3
  809aa8:	100d883a 	mov	r6,r2
  809aac:	0805a4c0 	call	805a4c <__subdf3>
  809ab0:	d9801817 	ldw	r6,96(sp)
  809ab4:	1823883a 	mov	r17,r3
  809ab8:	d8801415 	stw	r2,80(sp)
  809abc:	302d883a 	mov	r22,r6
  809ac0:	d9800517 	ldw	r6,20(sp)
  809ac4:	9cc00c04 	addi	r19,r19,48
  809ac8:	dc401515 	stw	r17,84(sp)
  809acc:	d8c01917 	ldw	r3,100(sp)
  809ad0:	34c00005 	stb	r19,0(r6)
  809ad4:	d8800517 	ldw	r2,20(sp)
  809ad8:	d9401917 	ldw	r5,100(sp)
  809adc:	d9801417 	ldw	r6,80(sp)
  809ae0:	b009883a 	mov	r4,r22
  809ae4:	880f883a 	mov	r7,r17
  809ae8:	182f883a 	mov	r23,r3
  809aec:	17000044 	addi	fp,r2,1
  809af0:	080f1400 	call	80f140 <__gtdf2>
  809af4:	00804e16 	blt	zero,r2,809c30 <_dtoa_r+0x1158>
  809af8:	d9801417 	ldw	r6,80(sp)
  809afc:	0005883a 	mov	r2,zero
  809b00:	00cffc34 	movhi	r3,16368
  809b04:	180b883a 	mov	r5,r3
  809b08:	880f883a 	mov	r7,r17
  809b0c:	1009883a 	mov	r4,r2
  809b10:	0805a4c0 	call	805a4c <__subdf3>
  809b14:	d9401917 	ldw	r5,100(sp)
  809b18:	180f883a 	mov	r7,r3
  809b1c:	b009883a 	mov	r4,r22
  809b20:	100d883a 	mov	r6,r2
  809b24:	080f1400 	call	80f140 <__gtdf2>
  809b28:	00bda216 	blt	zero,r2,8091b4 <_dtoa_r+0x6dc>
  809b2c:	d8c00317 	ldw	r3,12(sp)
  809b30:	00800044 	movi	r2,1
  809b34:	10c01216 	blt	r2,r3,809b80 <_dtoa_r+0x10a8>
  809b38:	003d4506 	br	809050 <_dtoa_r+0x578>
  809b3c:	d9801417 	ldw	r6,80(sp)
  809b40:	0005883a 	mov	r2,zero
  809b44:	00cffc34 	movhi	r3,16368
  809b48:	180b883a 	mov	r5,r3
  809b4c:	880f883a 	mov	r7,r17
  809b50:	1009883a 	mov	r4,r2
  809b54:	0805a4c0 	call	805a4c <__subdf3>
  809b58:	d9c01b17 	ldw	r7,108(sp)
  809b5c:	180b883a 	mov	r5,r3
  809b60:	1009883a 	mov	r4,r2
  809b64:	b00d883a 	mov	r6,r22
  809b68:	080f2500 	call	80f250 <__ltdf2>
  809b6c:	103d9116 	blt	r2,zero,8091b4 <_dtoa_r+0x6dc>
  809b70:	d9800517 	ldw	r6,20(sp)
  809b74:	d9000317 	ldw	r4,12(sp)
  809b78:	3105883a 	add	r2,r6,r4
  809b7c:	e0bd3426 	beq	fp,r2,809050 <_dtoa_r+0x578>
  809b80:	04500934 	movhi	r17,16420
  809b84:	0021883a 	mov	r16,zero
  809b88:	b80b883a 	mov	r5,r23
  809b8c:	b009883a 	mov	r4,r22
  809b90:	800d883a 	mov	r6,r16
  809b94:	880f883a 	mov	r7,r17
  809b98:	080ea140 	call	80ea14 <__muldf3>
  809b9c:	d9401517 	ldw	r5,84(sp)
  809ba0:	d9001417 	ldw	r4,80(sp)
  809ba4:	880f883a 	mov	r7,r17
  809ba8:	000d883a 	mov	r6,zero
  809bac:	d8801a15 	stw	r2,104(sp)
  809bb0:	d8c01b15 	stw	r3,108(sp)
  809bb4:	080ea140 	call	80ea14 <__muldf3>
  809bb8:	180b883a 	mov	r5,r3
  809bbc:	1009883a 	mov	r4,r2
  809bc0:	1823883a 	mov	r17,r3
  809bc4:	1021883a 	mov	r16,r2
  809bc8:	0805c380 	call	805c38 <__fixdfsi>
  809bcc:	1009883a 	mov	r4,r2
  809bd0:	102b883a 	mov	r21,r2
  809bd4:	0805b400 	call	805b40 <__floatsidf>
  809bd8:	880b883a 	mov	r5,r17
  809bdc:	8009883a 	mov	r4,r16
  809be0:	180f883a 	mov	r7,r3
  809be4:	100d883a 	mov	r6,r2
  809be8:	0805a4c0 	call	805a4c <__subdf3>
  809bec:	1021883a 	mov	r16,r2
  809bf0:	d9001b17 	ldw	r4,108(sp)
  809bf4:	1823883a 	mov	r17,r3
  809bf8:	dc001415 	stw	r16,80(sp)
  809bfc:	ad400c04 	addi	r21,r21,48
  809c00:	dc401515 	stw	r17,84(sp)
  809c04:	d8801a17 	ldw	r2,104(sp)
  809c08:	e5400005 	stb	r21,0(fp)
  809c0c:	202f883a 	mov	r23,r4
  809c10:	d9c01b17 	ldw	r7,108(sp)
  809c14:	d9001417 	ldw	r4,80(sp)
  809c18:	880b883a 	mov	r5,r17
  809c1c:	100d883a 	mov	r6,r2
  809c20:	102d883a 	mov	r22,r2
  809c24:	e7000044 	addi	fp,fp,1
  809c28:	080f2500 	call	80f250 <__ltdf2>
  809c2c:	103fc30e 	bge	r2,zero,809b3c <_dtoa_r+0x1064>
  809c30:	d9000417 	ldw	r4,16(sp)
  809c34:	d9000d15 	stw	r4,52(sp)
  809c38:	003d7106 	br	809200 <_dtoa_r+0x728>
  809c3c:	d9801717 	ldw	r6,92(sp)
  809c40:	00800084 	movi	r2,2
  809c44:	11bde60e 	bge	r2,r6,8093e0 <_dtoa_r+0x908>
  809c48:	203cfb1e 	bne	r4,zero,809038 <_dtoa_r+0x560>
  809c4c:	d9001617 	ldw	r4,88(sp)
  809c50:	900b883a 	mov	r5,r18
  809c54:	01800144 	movi	r6,5
  809c58:	000f883a 	mov	r7,zero
  809c5c:	080c9200 	call	80c920 <__multadd>
  809c60:	d9000717 	ldw	r4,28(sp)
  809c64:	100b883a 	mov	r5,r2
  809c68:	1025883a 	mov	r18,r2
  809c6c:	080bd5c0 	call	80bd5c <__mcmp>
  809c70:	00bcf10e 	bge	zero,r2,809038 <_dtoa_r+0x560>
  809c74:	d8c00d17 	ldw	r3,52(sp)
  809c78:	d9000517 	ldw	r4,20(sp)
  809c7c:	d8000615 	stw	zero,24(sp)
  809c80:	18c00044 	addi	r3,r3,1
  809c84:	d8c00d15 	stw	r3,52(sp)
  809c88:	00800c44 	movi	r2,49
  809c8c:	27000044 	addi	fp,r4,1
  809c90:	20800005 	stb	r2,0(r4)
  809c94:	003e8906 	br	8096bc <_dtoa_r+0xbe4>
  809c98:	d8c00517 	ldw	r3,20(sp)
  809c9c:	003bc206 	br	808ba8 <_dtoa_r+0xd0>
  809ca0:	01802074 	movhi	r6,129
  809ca4:	318d4304 	addi	r6,r6,13580
  809ca8:	30c00917 	ldw	r3,36(r6)
  809cac:	30800817 	ldw	r2,32(r6)
  809cb0:	d9001217 	ldw	r4,72(sp)
  809cb4:	d9401317 	ldw	r5,76(sp)
  809cb8:	180f883a 	mov	r7,r3
  809cbc:	100d883a 	mov	r6,r2
  809cc0:	080edd80 	call	80edd8 <__divdf3>
  809cc4:	948003cc 	andi	r18,r18,15
  809cc8:	058000c4 	movi	r22,3
  809ccc:	1029883a 	mov	r20,r2
  809cd0:	182b883a 	mov	r21,r3
  809cd4:	003c8906 	br	808efc <_dtoa_r+0x424>
  809cd8:	d9001017 	ldw	r4,64(sp)
  809cdc:	d9800917 	ldw	r6,36(sp)
  809ce0:	0025883a 	mov	r18,zero
  809ce4:	1105c83a 	sub	r2,r2,r4
  809ce8:	2089883a 	add	r4,r4,r2
  809cec:	308d883a 	add	r6,r6,r2
  809cf0:	d9001015 	stw	r4,64(sp)
  809cf4:	d9800915 	stw	r6,36(sp)
  809cf8:	003e3206 	br	8095c4 <_dtoa_r+0xaec>
  809cfc:	28800044 	addi	r2,r5,1
  809d00:	27000044 	addi	fp,r4,1
  809d04:	20800005 	stb	r2,0(r4)
  809d08:	003e6c06 	br	8096bc <_dtoa_r+0xbe4>
  809d0c:	d8800f17 	ldw	r2,60(sp)
  809d10:	00bce016 	blt	zero,r2,809094 <_dtoa_r+0x5bc>
  809d14:	d9800f17 	ldw	r6,60(sp)
  809d18:	303cc51e 	bne	r6,zero,809030 <_dtoa_r+0x558>
  809d1c:	0005883a 	mov	r2,zero
  809d20:	00d00534 	movhi	r3,16404
  809d24:	980b883a 	mov	r5,r19
  809d28:	180f883a 	mov	r7,r3
  809d2c:	9009883a 	mov	r4,r18
  809d30:	100d883a 	mov	r6,r2
  809d34:	080ea140 	call	80ea14 <__muldf3>
  809d38:	180b883a 	mov	r5,r3
  809d3c:	a80f883a 	mov	r7,r21
  809d40:	1009883a 	mov	r4,r2
  809d44:	a00d883a 	mov	r6,r20
  809d48:	080f1c80 	call	80f1c8 <__gedf2>
  809d4c:	103cb80e 	bge	r2,zero,809030 <_dtoa_r+0x558>
  809d50:	0027883a 	mov	r19,zero
  809d54:	0025883a 	mov	r18,zero
  809d58:	003fc606 	br	809c74 <_dtoa_r+0x119c>
  809d5c:	99400117 	ldw	r5,4(r19)
  809d60:	d9001617 	ldw	r4,88(sp)
  809d64:	080c1800 	call	80c180 <_Balloc>
  809d68:	99800417 	ldw	r6,16(r19)
  809d6c:	11000304 	addi	r4,r2,12
  809d70:	99400304 	addi	r5,r19,12
  809d74:	318d883a 	add	r6,r6,r6
  809d78:	318d883a 	add	r6,r6,r6
  809d7c:	31800204 	addi	r6,r6,8
  809d80:	1023883a 	mov	r17,r2
  809d84:	08063400 	call	806340 <memcpy>
  809d88:	d9001617 	ldw	r4,88(sp)
  809d8c:	880b883a 	mov	r5,r17
  809d90:	01800044 	movi	r6,1
  809d94:	080c5440 	call	80c544 <__lshift>
  809d98:	100b883a 	mov	r5,r2
  809d9c:	003d9c06 	br	809410 <_dtoa_r+0x938>
  809da0:	00800e44 	movi	r2,57
  809da4:	b8807026 	beq	r23,r2,809f68 <_dtoa_r+0x1490>
  809da8:	b8800044 	addi	r2,r23,1
  809dac:	b7000044 	addi	fp,r22,1
  809db0:	b0800005 	stb	r2,0(r22)
  809db4:	003e4106 	br	8096bc <_dtoa_r+0xbe4>
  809db8:	d8800317 	ldw	r2,12(sp)
  809dbc:	01802074 	movhi	r6,129
  809dc0:	318d1104 	addi	r6,r6,13380
  809dc4:	b009883a 	mov	r4,r22
  809dc8:	100e90fa 	slli	r7,r2,3
  809dcc:	b80b883a 	mov	r5,r23
  809dd0:	398f883a 	add	r7,r7,r6
  809dd4:	38bffe17 	ldw	r2,-8(r7)
  809dd8:	d9800517 	ldw	r6,20(sp)
  809ddc:	38ffff17 	ldw	r3,-4(r7)
  809de0:	37000044 	addi	fp,r6,1
  809de4:	180f883a 	mov	r7,r3
  809de8:	100d883a 	mov	r6,r2
  809dec:	080ea140 	call	80ea14 <__muldf3>
  809df0:	a80b883a 	mov	r5,r21
  809df4:	a009883a 	mov	r4,r20
  809df8:	182f883a 	mov	r23,r3
  809dfc:	102d883a 	mov	r22,r2
  809e00:	0805c380 	call	805c38 <__fixdfsi>
  809e04:	1009883a 	mov	r4,r2
  809e08:	1027883a 	mov	r19,r2
  809e0c:	0805b400 	call	805b40 <__floatsidf>
  809e10:	a80b883a 	mov	r5,r21
  809e14:	a009883a 	mov	r4,r20
  809e18:	180f883a 	mov	r7,r3
  809e1c:	100d883a 	mov	r6,r2
  809e20:	0805a4c0 	call	805a4c <__subdf3>
  809e24:	180b883a 	mov	r5,r3
  809e28:	d8c00517 	ldw	r3,20(sp)
  809e2c:	9cc00c04 	addi	r19,r19,48
  809e30:	1009883a 	mov	r4,r2
  809e34:	1cc00005 	stb	r19,0(r3)
  809e38:	2021883a 	mov	r16,r4
  809e3c:	d9000317 	ldw	r4,12(sp)
  809e40:	00800044 	movi	r2,1
  809e44:	2823883a 	mov	r17,r5
  809e48:	20802226 	beq	r4,r2,809ed4 <_dtoa_r+0x13fc>
  809e4c:	1029883a 	mov	r20,r2
  809e50:	0005883a 	mov	r2,zero
  809e54:	00d00934 	movhi	r3,16420
  809e58:	180f883a 	mov	r7,r3
  809e5c:	100d883a 	mov	r6,r2
  809e60:	880b883a 	mov	r5,r17
  809e64:	8009883a 	mov	r4,r16
  809e68:	080ea140 	call	80ea14 <__muldf3>
  809e6c:	180b883a 	mov	r5,r3
  809e70:	1009883a 	mov	r4,r2
  809e74:	1823883a 	mov	r17,r3
  809e78:	1021883a 	mov	r16,r2
  809e7c:	0805c380 	call	805c38 <__fixdfsi>
  809e80:	1009883a 	mov	r4,r2
  809e84:	102b883a 	mov	r21,r2
  809e88:	0805b400 	call	805b40 <__floatsidf>
  809e8c:	880b883a 	mov	r5,r17
  809e90:	8009883a 	mov	r4,r16
  809e94:	180f883a 	mov	r7,r3
  809e98:	100d883a 	mov	r6,r2
  809e9c:	0805a4c0 	call	805a4c <__subdf3>
  809ea0:	180b883a 	mov	r5,r3
  809ea4:	d8c00517 	ldw	r3,20(sp)
  809ea8:	1009883a 	mov	r4,r2
  809eac:	ad400c04 	addi	r21,r21,48
  809eb0:	1d05883a 	add	r2,r3,r20
  809eb4:	15400005 	stb	r21,0(r2)
  809eb8:	2021883a 	mov	r16,r4
  809ebc:	d9000317 	ldw	r4,12(sp)
  809ec0:	a5000044 	addi	r20,r20,1
  809ec4:	2823883a 	mov	r17,r5
  809ec8:	a13fe11e 	bne	r20,r4,809e50 <_dtoa_r+0x1378>
  809ecc:	e505883a 	add	r2,fp,r20
  809ed0:	173fffc4 	addi	fp,r2,-1
  809ed4:	0025883a 	mov	r18,zero
  809ed8:	04cff834 	movhi	r19,16352
  809edc:	b009883a 	mov	r4,r22
  809ee0:	b80b883a 	mov	r5,r23
  809ee4:	900d883a 	mov	r6,r18
  809ee8:	980f883a 	mov	r7,r19
  809eec:	0805acc0 	call	805acc <__adddf3>
  809ef0:	180b883a 	mov	r5,r3
  809ef4:	1009883a 	mov	r4,r2
  809ef8:	800d883a 	mov	r6,r16
  809efc:	880f883a 	mov	r7,r17
  809f00:	080f2500 	call	80f250 <__ltdf2>
  809f04:	103cab16 	blt	r2,zero,8091b4 <_dtoa_r+0x6dc>
  809f08:	0009883a 	mov	r4,zero
  809f0c:	980b883a 	mov	r5,r19
  809f10:	b80f883a 	mov	r7,r23
  809f14:	b00d883a 	mov	r6,r22
  809f18:	0805a4c0 	call	805a4c <__subdf3>
  809f1c:	180b883a 	mov	r5,r3
  809f20:	880f883a 	mov	r7,r17
  809f24:	1009883a 	mov	r4,r2
  809f28:	800d883a 	mov	r6,r16
  809f2c:	080f1400 	call	80f140 <__gtdf2>
  809f30:	00bc470e 	bge	zero,r2,809050 <_dtoa_r+0x578>
  809f34:	00c00c04 	movi	r3,48
  809f38:	e73fffc4 	addi	fp,fp,-1
  809f3c:	e0800007 	ldb	r2,0(fp)
  809f40:	10fffd26 	beq	r2,r3,809f38 <_dtoa_r+0x1460>
  809f44:	d9800417 	ldw	r6,16(sp)
  809f48:	e7000044 	addi	fp,fp,1
  809f4c:	d9800d15 	stw	r6,52(sp)
  809f50:	003cab06 	br	809200 <_dtoa_r+0x728>
  809f54:	d8c00f17 	ldw	r3,60(sp)
  809f58:	d9001117 	ldw	r4,68(sp)
  809f5c:	20e1c83a 	sub	r16,r4,r3
  809f60:	0007883a 	mov	r3,zero
  809f64:	003d9b06 	br	8095d4 <_dtoa_r+0xafc>
  809f68:	00800e44 	movi	r2,57
  809f6c:	b0800005 	stb	r2,0(r22)
  809f70:	b5800044 	addi	r22,r22,1
  809f74:	003dc106 	br	80967c <_dtoa_r+0xba4>
  809f78:	05800084 	movi	r22,2
  809f7c:	003bf706 	br	808f5c <_dtoa_r+0x484>
  809f80:	d9000f17 	ldw	r4,60(sp)
  809f84:	013c000e 	bge	zero,r4,808f88 <_dtoa_r+0x4b0>
  809f88:	d9800e17 	ldw	r6,56(sp)
  809f8c:	01bc300e 	bge	zero,r6,809050 <_dtoa_r+0x578>
  809f90:	0005883a 	mov	r2,zero
  809f94:	00d00934 	movhi	r3,16420
  809f98:	a80b883a 	mov	r5,r21
  809f9c:	180f883a 	mov	r7,r3
  809fa0:	a009883a 	mov	r4,r20
  809fa4:	100d883a 	mov	r6,r2
  809fa8:	080ea140 	call	80ea14 <__muldf3>
  809fac:	b1000044 	addi	r4,r22,1
  809fb0:	1021883a 	mov	r16,r2
  809fb4:	1823883a 	mov	r17,r3
  809fb8:	0805b400 	call	805b40 <__floatsidf>
  809fbc:	880b883a 	mov	r5,r17
  809fc0:	8009883a 	mov	r4,r16
  809fc4:	180f883a 	mov	r7,r3
  809fc8:	100d883a 	mov	r6,r2
  809fcc:	080ea140 	call	80ea14 <__muldf3>
  809fd0:	0011883a 	mov	r8,zero
  809fd4:	02500734 	movhi	r9,16412
  809fd8:	180b883a 	mov	r5,r3
  809fdc:	480f883a 	mov	r7,r9
  809fe0:	1009883a 	mov	r4,r2
  809fe4:	400d883a 	mov	r6,r8
  809fe8:	0805acc0 	call	805acc <__adddf3>
  809fec:	102d883a 	mov	r22,r2
  809ff0:	00bf3034 	movhi	r2,64704
  809ff4:	10ef883a 	add	r23,r2,r3
  809ff8:	d8800d17 	ldw	r2,52(sp)
  809ffc:	d8c00e17 	ldw	r3,56(sp)
  80a000:	8029883a 	mov	r20,r16
  80a004:	10bfffc4 	addi	r2,r2,-1
  80a008:	882b883a 	mov	r21,r17
  80a00c:	d8800415 	stw	r2,16(sp)
  80a010:	d8c00315 	stw	r3,12(sp)
  80a014:	003e8306 	br	809a24 <_dtoa_r+0xf4c>
  80a018:	d8800117 	ldw	r2,4(sp)
  80a01c:	dc001117 	ldw	r16,68(sp)
  80a020:	dc801017 	ldw	r18,64(sp)
  80a024:	00c00d84 	movi	r3,54
  80a028:	1887c83a 	sub	r3,r3,r2
  80a02c:	003d6906 	br	8095d4 <_dtoa_r+0xafc>
  80a030:	01800044 	movi	r6,1
  80a034:	3021883a 	mov	r16,r6
  80a038:	d9800f15 	stw	r6,60(sp)
  80a03c:	d9802615 	stw	r6,152(sp)
  80a040:	d9800e15 	stw	r6,56(sp)
  80a044:	003b9306 	br	808e94 <_dtoa_r+0x3bc>
  80a048:	b021883a 	mov	r16,r22
  80a04c:	dd800f15 	stw	r22,60(sp)
  80a050:	003b9006 	br	808e94 <_dtoa_r+0x3bc>
  80a054:	103e221e 	bne	r2,zero,8098e0 <_dtoa_r+0xe08>
  80a058:	b880004c 	andi	r2,r23,1
  80a05c:	1005003a 	cmpeq	r2,r2,zero
  80a060:	103e1f1e 	bne	r2,zero,8098e0 <_dtoa_r+0xe08>
  80a064:	003e1b06 	br	8098d4 <_dtoa_r+0xdfc>
  80a068:	d9001617 	ldw	r4,88(sp)
  80a06c:	980b883a 	mov	r5,r19
  80a070:	01800284 	movi	r6,10
  80a074:	000f883a 	mov	r7,zero
  80a078:	080c9200 	call	80c920 <__multadd>
  80a07c:	d8c00e17 	ldw	r3,56(sp)
  80a080:	1027883a 	mov	r19,r2
  80a084:	d8c00f15 	stw	r3,60(sp)
  80a088:	003cd306 	br	8093d8 <_dtoa_r+0x900>

0080a08c <_fflush_r>:
  80a08c:	defffb04 	addi	sp,sp,-20
  80a090:	dcc00315 	stw	r19,12(sp)
  80a094:	dc800215 	stw	r18,8(sp)
  80a098:	dfc00415 	stw	ra,16(sp)
  80a09c:	dc400115 	stw	r17,4(sp)
  80a0a0:	dc000015 	stw	r16,0(sp)
  80a0a4:	2027883a 	mov	r19,r4
  80a0a8:	2825883a 	mov	r18,r5
  80a0ac:	20000226 	beq	r4,zero,80a0b8 <_fflush_r+0x2c>
  80a0b0:	20800e17 	ldw	r2,56(r4)
  80a0b4:	10005626 	beq	r2,zero,80a210 <_fflush_r+0x184>
  80a0b8:	9100030b 	ldhu	r4,12(r18)
  80a0bc:	20ffffcc 	andi	r3,r4,65535
  80a0c0:	18e0001c 	xori	r3,r3,32768
  80a0c4:	18e00004 	addi	r3,r3,-32768
  80a0c8:	1880020c 	andi	r2,r3,8
  80a0cc:	1000261e 	bne	r2,zero,80a168 <_fflush_r+0xdc>
  80a0d0:	90c00117 	ldw	r3,4(r18)
  80a0d4:	20820014 	ori	r2,r4,2048
  80a0d8:	9080030d 	sth	r2,12(r18)
  80a0dc:	1009883a 	mov	r4,r2
  80a0e0:	00c0400e 	bge	zero,r3,80a1e4 <_fflush_r+0x158>
  80a0e4:	92000a17 	ldw	r8,40(r18)
  80a0e8:	40004026 	beq	r8,zero,80a1ec <_fflush_r+0x160>
  80a0ec:	2084000c 	andi	r2,r4,4096
  80a0f0:	10005326 	beq	r2,zero,80a240 <_fflush_r+0x1b4>
  80a0f4:	94001417 	ldw	r16,80(r18)
  80a0f8:	9080030b 	ldhu	r2,12(r18)
  80a0fc:	1080010c 	andi	r2,r2,4
  80a100:	1000481e 	bne	r2,zero,80a224 <_fflush_r+0x198>
  80a104:	91400717 	ldw	r5,28(r18)
  80a108:	9809883a 	mov	r4,r19
  80a10c:	800d883a 	mov	r6,r16
  80a110:	000f883a 	mov	r7,zero
  80a114:	403ee83a 	callr	r8
  80a118:	8080261e 	bne	r16,r2,80a1b4 <_fflush_r+0x128>
  80a11c:	9080030b 	ldhu	r2,12(r18)
  80a120:	91000417 	ldw	r4,16(r18)
  80a124:	90000115 	stw	zero,4(r18)
  80a128:	10bdffcc 	andi	r2,r2,63487
  80a12c:	10ffffcc 	andi	r3,r2,65535
  80a130:	18c4000c 	andi	r3,r3,4096
  80a134:	9080030d 	sth	r2,12(r18)
  80a138:	91000015 	stw	r4,0(r18)
  80a13c:	18002b26 	beq	r3,zero,80a1ec <_fflush_r+0x160>
  80a140:	0007883a 	mov	r3,zero
  80a144:	1805883a 	mov	r2,r3
  80a148:	94001415 	stw	r16,80(r18)
  80a14c:	dfc00417 	ldw	ra,16(sp)
  80a150:	dcc00317 	ldw	r19,12(sp)
  80a154:	dc800217 	ldw	r18,8(sp)
  80a158:	dc400117 	ldw	r17,4(sp)
  80a15c:	dc000017 	ldw	r16,0(sp)
  80a160:	dec00504 	addi	sp,sp,20
  80a164:	f800283a 	ret
  80a168:	94400417 	ldw	r17,16(r18)
  80a16c:	88001f26 	beq	r17,zero,80a1ec <_fflush_r+0x160>
  80a170:	90800017 	ldw	r2,0(r18)
  80a174:	18c000cc 	andi	r3,r3,3
  80a178:	94400015 	stw	r17,0(r18)
  80a17c:	1461c83a 	sub	r16,r2,r17
  80a180:	18002526 	beq	r3,zero,80a218 <_fflush_r+0x18c>
  80a184:	0005883a 	mov	r2,zero
  80a188:	90800215 	stw	r2,8(r18)
  80a18c:	0400170e 	bge	zero,r16,80a1ec <_fflush_r+0x160>
  80a190:	90c00917 	ldw	r3,36(r18)
  80a194:	91400717 	ldw	r5,28(r18)
  80a198:	880d883a 	mov	r6,r17
  80a19c:	800f883a 	mov	r7,r16
  80a1a0:	9809883a 	mov	r4,r19
  80a1a4:	183ee83a 	callr	r3
  80a1a8:	88a3883a 	add	r17,r17,r2
  80a1ac:	80a1c83a 	sub	r16,r16,r2
  80a1b0:	00bff616 	blt	zero,r2,80a18c <_fflush_r+0x100>
  80a1b4:	9080030b 	ldhu	r2,12(r18)
  80a1b8:	00ffffc4 	movi	r3,-1
  80a1bc:	10801014 	ori	r2,r2,64
  80a1c0:	9080030d 	sth	r2,12(r18)
  80a1c4:	1805883a 	mov	r2,r3
  80a1c8:	dfc00417 	ldw	ra,16(sp)
  80a1cc:	dcc00317 	ldw	r19,12(sp)
  80a1d0:	dc800217 	ldw	r18,8(sp)
  80a1d4:	dc400117 	ldw	r17,4(sp)
  80a1d8:	dc000017 	ldw	r16,0(sp)
  80a1dc:	dec00504 	addi	sp,sp,20
  80a1e0:	f800283a 	ret
  80a1e4:	90800f17 	ldw	r2,60(r18)
  80a1e8:	00bfbe16 	blt	zero,r2,80a0e4 <_fflush_r+0x58>
  80a1ec:	0007883a 	mov	r3,zero
  80a1f0:	1805883a 	mov	r2,r3
  80a1f4:	dfc00417 	ldw	ra,16(sp)
  80a1f8:	dcc00317 	ldw	r19,12(sp)
  80a1fc:	dc800217 	ldw	r18,8(sp)
  80a200:	dc400117 	ldw	r17,4(sp)
  80a204:	dc000017 	ldw	r16,0(sp)
  80a208:	dec00504 	addi	sp,sp,20
  80a20c:	f800283a 	ret
  80a210:	080a3240 	call	80a324 <__sinit>
  80a214:	003fa806 	br	80a0b8 <_fflush_r+0x2c>
  80a218:	90800517 	ldw	r2,20(r18)
  80a21c:	90800215 	stw	r2,8(r18)
  80a220:	003fda06 	br	80a18c <_fflush_r+0x100>
  80a224:	90800117 	ldw	r2,4(r18)
  80a228:	90c00c17 	ldw	r3,48(r18)
  80a22c:	80a1c83a 	sub	r16,r16,r2
  80a230:	183fb426 	beq	r3,zero,80a104 <_fflush_r+0x78>
  80a234:	90800f17 	ldw	r2,60(r18)
  80a238:	80a1c83a 	sub	r16,r16,r2
  80a23c:	003fb106 	br	80a104 <_fflush_r+0x78>
  80a240:	91400717 	ldw	r5,28(r18)
  80a244:	9809883a 	mov	r4,r19
  80a248:	000d883a 	mov	r6,zero
  80a24c:	01c00044 	movi	r7,1
  80a250:	403ee83a 	callr	r8
  80a254:	1021883a 	mov	r16,r2
  80a258:	00bfffc4 	movi	r2,-1
  80a25c:	80800226 	beq	r16,r2,80a268 <_fflush_r+0x1dc>
  80a260:	92000a17 	ldw	r8,40(r18)
  80a264:	003fa406 	br	80a0f8 <_fflush_r+0x6c>
  80a268:	98c00017 	ldw	r3,0(r19)
  80a26c:	00800744 	movi	r2,29
  80a270:	18bfde26 	beq	r3,r2,80a1ec <_fflush_r+0x160>
  80a274:	9080030b 	ldhu	r2,12(r18)
  80a278:	8007883a 	mov	r3,r16
  80a27c:	10801014 	ori	r2,r2,64
  80a280:	9080030d 	sth	r2,12(r18)
  80a284:	003fcf06 	br	80a1c4 <_fflush_r+0x138>

0080a288 <fflush>:
  80a288:	01402074 	movhi	r5,129
  80a28c:	29682304 	addi	r5,r5,-24436
  80a290:	2007883a 	mov	r3,r4
  80a294:	20000526 	beq	r4,zero,80a2ac <fflush+0x24>
  80a298:	00802074 	movhi	r2,129
  80a29c:	1094d404 	addi	r2,r2,21328
  80a2a0:	11000017 	ldw	r4,0(r2)
  80a2a4:	180b883a 	mov	r5,r3
  80a2a8:	080a08c1 	jmpi	80a08c <_fflush_r>
  80a2ac:	00802074 	movhi	r2,129
  80a2b0:	1094d504 	addi	r2,r2,21332
  80a2b4:	11000017 	ldw	r4,0(r2)
  80a2b8:	080ae8c1 	jmpi	80ae8c <_fwalk_reent>

0080a2bc <std>:
  80a2bc:	00802074 	movhi	r2,129
  80a2c0:	10b55304 	addi	r2,r2,-10932
  80a2c4:	20800b15 	stw	r2,44(r4)
  80a2c8:	00802074 	movhi	r2,129
  80a2cc:	10b58e04 	addi	r2,r2,-10696
  80a2d0:	20800815 	stw	r2,32(r4)
  80a2d4:	00c02074 	movhi	r3,129
  80a2d8:	18f56f04 	addi	r3,r3,-10820
  80a2dc:	00802074 	movhi	r2,129
  80a2e0:	10b55504 	addi	r2,r2,-10924
  80a2e4:	2140030d 	sth	r5,12(r4)
  80a2e8:	2180038d 	sth	r6,14(r4)
  80a2ec:	20c00915 	stw	r3,36(r4)
  80a2f0:	20800a15 	stw	r2,40(r4)
  80a2f4:	20000015 	stw	zero,0(r4)
  80a2f8:	20000115 	stw	zero,4(r4)
  80a2fc:	20000215 	stw	zero,8(r4)
  80a300:	20000415 	stw	zero,16(r4)
  80a304:	20000515 	stw	zero,20(r4)
  80a308:	20000615 	stw	zero,24(r4)
  80a30c:	21000715 	stw	r4,28(r4)
  80a310:	f800283a 	ret

0080a314 <__sfp_lock_acquire>:
  80a314:	f800283a 	ret

0080a318 <__sfp_lock_release>:
  80a318:	f800283a 	ret

0080a31c <__sinit_lock_acquire>:
  80a31c:	f800283a 	ret

0080a320 <__sinit_lock_release>:
  80a320:	f800283a 	ret

0080a324 <__sinit>:
  80a324:	20800e17 	ldw	r2,56(r4)
  80a328:	defffd04 	addi	sp,sp,-12
  80a32c:	dc400115 	stw	r17,4(sp)
  80a330:	dc000015 	stw	r16,0(sp)
  80a334:	dfc00215 	stw	ra,8(sp)
  80a338:	04400044 	movi	r17,1
  80a33c:	01400104 	movi	r5,4
  80a340:	000d883a 	mov	r6,zero
  80a344:	2021883a 	mov	r16,r4
  80a348:	2200bb04 	addi	r8,r4,748
  80a34c:	200f883a 	mov	r7,r4
  80a350:	10000526 	beq	r2,zero,80a368 <__sinit+0x44>
  80a354:	dfc00217 	ldw	ra,8(sp)
  80a358:	dc400117 	ldw	r17,4(sp)
  80a35c:	dc000017 	ldw	r16,0(sp)
  80a360:	dec00304 	addi	sp,sp,12
  80a364:	f800283a 	ret
  80a368:	21000117 	ldw	r4,4(r4)
  80a36c:	00802074 	movhi	r2,129
  80a370:	10a90204 	addi	r2,r2,-23544
  80a374:	00c000c4 	movi	r3,3
  80a378:	80800f15 	stw	r2,60(r16)
  80a37c:	80c0b915 	stw	r3,740(r16)
  80a380:	8200ba15 	stw	r8,744(r16)
  80a384:	84400e15 	stw	r17,56(r16)
  80a388:	8000b815 	stw	zero,736(r16)
  80a38c:	080a2bc0 	call	80a2bc <std>
  80a390:	81000217 	ldw	r4,8(r16)
  80a394:	880d883a 	mov	r6,r17
  80a398:	800f883a 	mov	r7,r16
  80a39c:	01400284 	movi	r5,10
  80a3a0:	080a2bc0 	call	80a2bc <std>
  80a3a4:	81000317 	ldw	r4,12(r16)
  80a3a8:	800f883a 	mov	r7,r16
  80a3ac:	01400484 	movi	r5,18
  80a3b0:	01800084 	movi	r6,2
  80a3b4:	dfc00217 	ldw	ra,8(sp)
  80a3b8:	dc400117 	ldw	r17,4(sp)
  80a3bc:	dc000017 	ldw	r16,0(sp)
  80a3c0:	dec00304 	addi	sp,sp,12
  80a3c4:	080a2bc1 	jmpi	80a2bc <std>

0080a3c8 <__fp_lock>:
  80a3c8:	0005883a 	mov	r2,zero
  80a3cc:	f800283a 	ret

0080a3d0 <__fp_unlock>:
  80a3d0:	0005883a 	mov	r2,zero
  80a3d4:	f800283a 	ret

0080a3d8 <__fp_unlock_all>:
  80a3d8:	00802074 	movhi	r2,129
  80a3dc:	1094d404 	addi	r2,r2,21328
  80a3e0:	11000017 	ldw	r4,0(r2)
  80a3e4:	01402074 	movhi	r5,129
  80a3e8:	2968f404 	addi	r5,r5,-23600
  80a3ec:	080af541 	jmpi	80af54 <_fwalk>

0080a3f0 <__fp_lock_all>:
  80a3f0:	00802074 	movhi	r2,129
  80a3f4:	1094d404 	addi	r2,r2,21328
  80a3f8:	11000017 	ldw	r4,0(r2)
  80a3fc:	01402074 	movhi	r5,129
  80a400:	2968f204 	addi	r5,r5,-23608
  80a404:	080af541 	jmpi	80af54 <_fwalk>

0080a408 <_cleanup_r>:
  80a408:	01402074 	movhi	r5,129
  80a40c:	2976d804 	addi	r5,r5,-9376
  80a410:	080af541 	jmpi	80af54 <_fwalk>

0080a414 <_cleanup>:
  80a414:	00802074 	movhi	r2,129
  80a418:	1094d504 	addi	r2,r2,21332
  80a41c:	11000017 	ldw	r4,0(r2)
  80a420:	080a4081 	jmpi	80a408 <_cleanup_r>

0080a424 <__sfmoreglue>:
  80a424:	defffc04 	addi	sp,sp,-16
  80a428:	dc000015 	stw	r16,0(sp)
  80a42c:	2821883a 	mov	r16,r5
  80a430:	dc400115 	stw	r17,4(sp)
  80a434:	01401704 	movi	r5,92
  80a438:	2023883a 	mov	r17,r4
  80a43c:	8009883a 	mov	r4,r16
  80a440:	dfc00315 	stw	ra,12(sp)
  80a444:	dcc00215 	stw	r19,8(sp)
  80a448:	080f46c0 	call	80f46c <__mulsi3>
  80a44c:	11400304 	addi	r5,r2,12
  80a450:	8809883a 	mov	r4,r17
  80a454:	1027883a 	mov	r19,r2
  80a458:	080b2640 	call	80b264 <_malloc_r>
  80a45c:	10c00304 	addi	r3,r2,12
  80a460:	1023883a 	mov	r17,r2
  80a464:	1809883a 	mov	r4,r3
  80a468:	980d883a 	mov	r6,r19
  80a46c:	000b883a 	mov	r5,zero
  80a470:	10000b26 	beq	r2,zero,80a4a0 <__sfmoreglue+0x7c>
  80a474:	14000115 	stw	r16,4(r2)
  80a478:	10c00215 	stw	r3,8(r2)
  80a47c:	10000015 	stw	zero,0(r2)
  80a480:	080bb680 	call	80bb68 <memset>
  80a484:	8805883a 	mov	r2,r17
  80a488:	dfc00317 	ldw	ra,12(sp)
  80a48c:	dcc00217 	ldw	r19,8(sp)
  80a490:	dc400117 	ldw	r17,4(sp)
  80a494:	dc000017 	ldw	r16,0(sp)
  80a498:	dec00404 	addi	sp,sp,16
  80a49c:	f800283a 	ret
  80a4a0:	0023883a 	mov	r17,zero
  80a4a4:	8805883a 	mov	r2,r17
  80a4a8:	dfc00317 	ldw	ra,12(sp)
  80a4ac:	dcc00217 	ldw	r19,8(sp)
  80a4b0:	dc400117 	ldw	r17,4(sp)
  80a4b4:	dc000017 	ldw	r16,0(sp)
  80a4b8:	dec00404 	addi	sp,sp,16
  80a4bc:	f800283a 	ret

0080a4c0 <__sfp>:
  80a4c0:	defffd04 	addi	sp,sp,-12
  80a4c4:	00802074 	movhi	r2,129
  80a4c8:	1094d504 	addi	r2,r2,21332
  80a4cc:	dc000015 	stw	r16,0(sp)
  80a4d0:	14000017 	ldw	r16,0(r2)
  80a4d4:	dc400115 	stw	r17,4(sp)
  80a4d8:	dfc00215 	stw	ra,8(sp)
  80a4dc:	80800e17 	ldw	r2,56(r16)
  80a4e0:	2023883a 	mov	r17,r4
  80a4e4:	10002626 	beq	r2,zero,80a580 <__sfp+0xc0>
  80a4e8:	8400b804 	addi	r16,r16,736
  80a4ec:	80800117 	ldw	r2,4(r16)
  80a4f0:	81000217 	ldw	r4,8(r16)
  80a4f4:	10ffffc4 	addi	r3,r2,-1
  80a4f8:	18000916 	blt	r3,zero,80a520 <__sfp+0x60>
  80a4fc:	2080030f 	ldh	r2,12(r4)
  80a500:	10000b26 	beq	r2,zero,80a530 <__sfp+0x70>
  80a504:	017fffc4 	movi	r5,-1
  80a508:	00000206 	br	80a514 <__sfp+0x54>
  80a50c:	2080030f 	ldh	r2,12(r4)
  80a510:	10000726 	beq	r2,zero,80a530 <__sfp+0x70>
  80a514:	18ffffc4 	addi	r3,r3,-1
  80a518:	21001704 	addi	r4,r4,92
  80a51c:	197ffb1e 	bne	r3,r5,80a50c <__sfp+0x4c>
  80a520:	80800017 	ldw	r2,0(r16)
  80a524:	10001926 	beq	r2,zero,80a58c <__sfp+0xcc>
  80a528:	1021883a 	mov	r16,r2
  80a52c:	003fef06 	br	80a4ec <__sfp+0x2c>
  80a530:	00bfffc4 	movi	r2,-1
  80a534:	00c00044 	movi	r3,1
  80a538:	2080038d 	sth	r2,14(r4)
  80a53c:	20c0030d 	sth	r3,12(r4)
  80a540:	20000015 	stw	zero,0(r4)
  80a544:	20000215 	stw	zero,8(r4)
  80a548:	20000115 	stw	zero,4(r4)
  80a54c:	20000415 	stw	zero,16(r4)
  80a550:	20000515 	stw	zero,20(r4)
  80a554:	20000615 	stw	zero,24(r4)
  80a558:	20000c15 	stw	zero,48(r4)
  80a55c:	20000d15 	stw	zero,52(r4)
  80a560:	20001115 	stw	zero,68(r4)
  80a564:	20001215 	stw	zero,72(r4)
  80a568:	2005883a 	mov	r2,r4
  80a56c:	dfc00217 	ldw	ra,8(sp)
  80a570:	dc400117 	ldw	r17,4(sp)
  80a574:	dc000017 	ldw	r16,0(sp)
  80a578:	dec00304 	addi	sp,sp,12
  80a57c:	f800283a 	ret
  80a580:	8009883a 	mov	r4,r16
  80a584:	080a3240 	call	80a324 <__sinit>
  80a588:	003fd706 	br	80a4e8 <__sfp+0x28>
  80a58c:	8809883a 	mov	r4,r17
  80a590:	01400104 	movi	r5,4
  80a594:	080a4240 	call	80a424 <__sfmoreglue>
  80a598:	80800015 	stw	r2,0(r16)
  80a59c:	103fe21e 	bne	r2,zero,80a528 <__sfp+0x68>
  80a5a0:	00800304 	movi	r2,12
  80a5a4:	0009883a 	mov	r4,zero
  80a5a8:	88800015 	stw	r2,0(r17)
  80a5ac:	003fee06 	br	80a568 <__sfp+0xa8>

0080a5b0 <_malloc_trim_r>:
  80a5b0:	defffb04 	addi	sp,sp,-20
  80a5b4:	dcc00315 	stw	r19,12(sp)
  80a5b8:	04c02074 	movhi	r19,129
  80a5bc:	9ccf3304 	addi	r19,r19,15564
  80a5c0:	dc800215 	stw	r18,8(sp)
  80a5c4:	dc400115 	stw	r17,4(sp)
  80a5c8:	dc000015 	stw	r16,0(sp)
  80a5cc:	2823883a 	mov	r17,r5
  80a5d0:	2025883a 	mov	r18,r4
  80a5d4:	dfc00415 	stw	ra,16(sp)
  80a5d8:	080fee40 	call	80fee4 <__malloc_lock>
  80a5dc:	98800217 	ldw	r2,8(r19)
  80a5e0:	9009883a 	mov	r4,r18
  80a5e4:	000b883a 	mov	r5,zero
  80a5e8:	10c00117 	ldw	r3,4(r2)
  80a5ec:	00bfff04 	movi	r2,-4
  80a5f0:	18a0703a 	and	r16,r3,r2
  80a5f4:	8463c83a 	sub	r17,r16,r17
  80a5f8:	8c43fbc4 	addi	r17,r17,4079
  80a5fc:	8822d33a 	srli	r17,r17,12
  80a600:	0083ffc4 	movi	r2,4095
  80a604:	8c7fffc4 	addi	r17,r17,-1
  80a608:	8822933a 	slli	r17,r17,12
  80a60c:	1440060e 	bge	r2,r17,80a628 <_malloc_trim_r+0x78>
  80a610:	080d4dc0 	call	80d4dc <_sbrk_r>
  80a614:	98c00217 	ldw	r3,8(r19)
  80a618:	9009883a 	mov	r4,r18
  80a61c:	044bc83a 	sub	r5,zero,r17
  80a620:	80c7883a 	add	r3,r16,r3
  80a624:	10c00926 	beq	r2,r3,80a64c <_malloc_trim_r+0x9c>
  80a628:	080ff040 	call	80ff04 <__malloc_unlock>
  80a62c:	0005883a 	mov	r2,zero
  80a630:	dfc00417 	ldw	ra,16(sp)
  80a634:	dcc00317 	ldw	r19,12(sp)
  80a638:	dc800217 	ldw	r18,8(sp)
  80a63c:	dc400117 	ldw	r17,4(sp)
  80a640:	dc000017 	ldw	r16,0(sp)
  80a644:	dec00504 	addi	sp,sp,20
  80a648:	f800283a 	ret
  80a64c:	9009883a 	mov	r4,r18
  80a650:	080d4dc0 	call	80d4dc <_sbrk_r>
  80a654:	844dc83a 	sub	r6,r16,r17
  80a658:	00ffffc4 	movi	r3,-1
  80a65c:	9009883a 	mov	r4,r18
  80a660:	000b883a 	mov	r5,zero
  80a664:	01c02074 	movhi	r7,129
  80a668:	39dc7304 	addi	r7,r7,29132
  80a66c:	31800054 	ori	r6,r6,1
  80a670:	10c00926 	beq	r2,r3,80a698 <_malloc_trim_r+0xe8>
  80a674:	38800017 	ldw	r2,0(r7)
  80a678:	98c00217 	ldw	r3,8(r19)
  80a67c:	9009883a 	mov	r4,r18
  80a680:	1445c83a 	sub	r2,r2,r17
  80a684:	38800015 	stw	r2,0(r7)
  80a688:	19800115 	stw	r6,4(r3)
  80a68c:	080ff040 	call	80ff04 <__malloc_unlock>
  80a690:	00800044 	movi	r2,1
  80a694:	003fe606 	br	80a630 <_malloc_trim_r+0x80>
  80a698:	080d4dc0 	call	80d4dc <_sbrk_r>
  80a69c:	99800217 	ldw	r6,8(r19)
  80a6a0:	100f883a 	mov	r7,r2
  80a6a4:	9009883a 	mov	r4,r18
  80a6a8:	1187c83a 	sub	r3,r2,r6
  80a6ac:	008003c4 	movi	r2,15
  80a6b0:	19400054 	ori	r5,r3,1
  80a6b4:	10ffdc0e 	bge	r2,r3,80a628 <_malloc_trim_r+0x78>
  80a6b8:	00802074 	movhi	r2,129
  80a6bc:	1094d904 	addi	r2,r2,21348
  80a6c0:	10c00017 	ldw	r3,0(r2)
  80a6c4:	00802074 	movhi	r2,129
  80a6c8:	109c7304 	addi	r2,r2,29132
  80a6cc:	31400115 	stw	r5,4(r6)
  80a6d0:	38c7c83a 	sub	r3,r7,r3
  80a6d4:	10c00015 	stw	r3,0(r2)
  80a6d8:	003fd306 	br	80a628 <_malloc_trim_r+0x78>

0080a6dc <_free_r>:
  80a6dc:	defffd04 	addi	sp,sp,-12
  80a6e0:	dc400115 	stw	r17,4(sp)
  80a6e4:	dc000015 	stw	r16,0(sp)
  80a6e8:	dfc00215 	stw	ra,8(sp)
  80a6ec:	2821883a 	mov	r16,r5
  80a6f0:	2023883a 	mov	r17,r4
  80a6f4:	28005a26 	beq	r5,zero,80a860 <_free_r+0x184>
  80a6f8:	080fee40 	call	80fee4 <__malloc_lock>
  80a6fc:	823ffe04 	addi	r8,r16,-8
  80a700:	41400117 	ldw	r5,4(r8)
  80a704:	00bfff84 	movi	r2,-2
  80a708:	02802074 	movhi	r10,129
  80a70c:	528f3304 	addi	r10,r10,15564
  80a710:	288e703a 	and	r7,r5,r2
  80a714:	41cd883a 	add	r6,r8,r7
  80a718:	30c00117 	ldw	r3,4(r6)
  80a71c:	51000217 	ldw	r4,8(r10)
  80a720:	00bfff04 	movi	r2,-4
  80a724:	1892703a 	and	r9,r3,r2
  80a728:	5017883a 	mov	r11,r10
  80a72c:	31006726 	beq	r6,r4,80a8cc <_free_r+0x1f0>
  80a730:	2880004c 	andi	r2,r5,1
  80a734:	1005003a 	cmpeq	r2,r2,zero
  80a738:	32400115 	stw	r9,4(r6)
  80a73c:	10001a1e 	bne	r2,zero,80a7a8 <_free_r+0xcc>
  80a740:	000b883a 	mov	r5,zero
  80a744:	3247883a 	add	r3,r6,r9
  80a748:	18800117 	ldw	r2,4(r3)
  80a74c:	1080004c 	andi	r2,r2,1
  80a750:	1000231e 	bne	r2,zero,80a7e0 <_free_r+0x104>
  80a754:	280ac03a 	cmpne	r5,r5,zero
  80a758:	3a4f883a 	add	r7,r7,r9
  80a75c:	2800451e 	bne	r5,zero,80a874 <_free_r+0x198>
  80a760:	31000217 	ldw	r4,8(r6)
  80a764:	00802074 	movhi	r2,129
  80a768:	108f3504 	addi	r2,r2,15572
  80a76c:	20807b26 	beq	r4,r2,80a95c <_free_r+0x280>
  80a770:	30800317 	ldw	r2,12(r6)
  80a774:	3a07883a 	add	r3,r7,r8
  80a778:	19c00015 	stw	r7,0(r3)
  80a77c:	11000215 	stw	r4,8(r2)
  80a780:	20800315 	stw	r2,12(r4)
  80a784:	38800054 	ori	r2,r7,1
  80a788:	40800115 	stw	r2,4(r8)
  80a78c:	28001a26 	beq	r5,zero,80a7f8 <_free_r+0x11c>
  80a790:	8809883a 	mov	r4,r17
  80a794:	dfc00217 	ldw	ra,8(sp)
  80a798:	dc400117 	ldw	r17,4(sp)
  80a79c:	dc000017 	ldw	r16,0(sp)
  80a7a0:	dec00304 	addi	sp,sp,12
  80a7a4:	080ff041 	jmpi	80ff04 <__malloc_unlock>
  80a7a8:	80bffe17 	ldw	r2,-8(r16)
  80a7ac:	50c00204 	addi	r3,r10,8
  80a7b0:	4091c83a 	sub	r8,r8,r2
  80a7b4:	41000217 	ldw	r4,8(r8)
  80a7b8:	388f883a 	add	r7,r7,r2
  80a7bc:	20c06126 	beq	r4,r3,80a944 <_free_r+0x268>
  80a7c0:	40800317 	ldw	r2,12(r8)
  80a7c4:	3247883a 	add	r3,r6,r9
  80a7c8:	000b883a 	mov	r5,zero
  80a7cc:	11000215 	stw	r4,8(r2)
  80a7d0:	20800315 	stw	r2,12(r4)
  80a7d4:	18800117 	ldw	r2,4(r3)
  80a7d8:	1080004c 	andi	r2,r2,1
  80a7dc:	103fdd26 	beq	r2,zero,80a754 <_free_r+0x78>
  80a7e0:	38800054 	ori	r2,r7,1
  80a7e4:	3a07883a 	add	r3,r7,r8
  80a7e8:	280ac03a 	cmpne	r5,r5,zero
  80a7ec:	40800115 	stw	r2,4(r8)
  80a7f0:	19c00015 	stw	r7,0(r3)
  80a7f4:	283fe61e 	bne	r5,zero,80a790 <_free_r+0xb4>
  80a7f8:	00807fc4 	movi	r2,511
  80a7fc:	11c01f2e 	bgeu	r2,r7,80a87c <_free_r+0x1a0>
  80a800:	3806d27a 	srli	r3,r7,9
  80a804:	1800481e 	bne	r3,zero,80a928 <_free_r+0x24c>
  80a808:	3804d0fa 	srli	r2,r7,3
  80a80c:	100690fa 	slli	r3,r2,3
  80a810:	1acd883a 	add	r6,r3,r11
  80a814:	31400217 	ldw	r5,8(r6)
  80a818:	31405926 	beq	r6,r5,80a980 <_free_r+0x2a4>
  80a81c:	28800117 	ldw	r2,4(r5)
  80a820:	00ffff04 	movi	r3,-4
  80a824:	10c4703a 	and	r2,r2,r3
  80a828:	3880022e 	bgeu	r7,r2,80a834 <_free_r+0x158>
  80a82c:	29400217 	ldw	r5,8(r5)
  80a830:	317ffa1e 	bne	r6,r5,80a81c <_free_r+0x140>
  80a834:	29800317 	ldw	r6,12(r5)
  80a838:	41800315 	stw	r6,12(r8)
  80a83c:	41400215 	stw	r5,8(r8)
  80a840:	8809883a 	mov	r4,r17
  80a844:	2a000315 	stw	r8,12(r5)
  80a848:	32000215 	stw	r8,8(r6)
  80a84c:	dfc00217 	ldw	ra,8(sp)
  80a850:	dc400117 	ldw	r17,4(sp)
  80a854:	dc000017 	ldw	r16,0(sp)
  80a858:	dec00304 	addi	sp,sp,12
  80a85c:	080ff041 	jmpi	80ff04 <__malloc_unlock>
  80a860:	dfc00217 	ldw	ra,8(sp)
  80a864:	dc400117 	ldw	r17,4(sp)
  80a868:	dc000017 	ldw	r16,0(sp)
  80a86c:	dec00304 	addi	sp,sp,12
  80a870:	f800283a 	ret
  80a874:	31000217 	ldw	r4,8(r6)
  80a878:	003fbd06 	br	80a770 <_free_r+0x94>
  80a87c:	3806d0fa 	srli	r3,r7,3
  80a880:	00800044 	movi	r2,1
  80a884:	51400117 	ldw	r5,4(r10)
  80a888:	180890fa 	slli	r4,r3,3
  80a88c:	1807d0ba 	srai	r3,r3,2
  80a890:	22c9883a 	add	r4,r4,r11
  80a894:	21800217 	ldw	r6,8(r4)
  80a898:	10c4983a 	sll	r2,r2,r3
  80a89c:	41000315 	stw	r4,12(r8)
  80a8a0:	41800215 	stw	r6,8(r8)
  80a8a4:	288ab03a 	or	r5,r5,r2
  80a8a8:	22000215 	stw	r8,8(r4)
  80a8ac:	8809883a 	mov	r4,r17
  80a8b0:	51400115 	stw	r5,4(r10)
  80a8b4:	32000315 	stw	r8,12(r6)
  80a8b8:	dfc00217 	ldw	ra,8(sp)
  80a8bc:	dc400117 	ldw	r17,4(sp)
  80a8c0:	dc000017 	ldw	r16,0(sp)
  80a8c4:	dec00304 	addi	sp,sp,12
  80a8c8:	080ff041 	jmpi	80ff04 <__malloc_unlock>
  80a8cc:	2880004c 	andi	r2,r5,1
  80a8d0:	3a4d883a 	add	r6,r7,r9
  80a8d4:	1000071e 	bne	r2,zero,80a8f4 <_free_r+0x218>
  80a8d8:	80bffe17 	ldw	r2,-8(r16)
  80a8dc:	4091c83a 	sub	r8,r8,r2
  80a8e0:	41000317 	ldw	r4,12(r8)
  80a8e4:	40c00217 	ldw	r3,8(r8)
  80a8e8:	308d883a 	add	r6,r6,r2
  80a8ec:	20c00215 	stw	r3,8(r4)
  80a8f0:	19000315 	stw	r4,12(r3)
  80a8f4:	00802074 	movhi	r2,129
  80a8f8:	1094d804 	addi	r2,r2,21344
  80a8fc:	11000017 	ldw	r4,0(r2)
  80a900:	30c00054 	ori	r3,r6,1
  80a904:	52000215 	stw	r8,8(r10)
  80a908:	40c00115 	stw	r3,4(r8)
  80a90c:	313fa036 	bltu	r6,r4,80a790 <_free_r+0xb4>
  80a910:	00802074 	movhi	r2,129
  80a914:	109c6904 	addi	r2,r2,29092
  80a918:	11400017 	ldw	r5,0(r2)
  80a91c:	8809883a 	mov	r4,r17
  80a920:	080a5b00 	call	80a5b0 <_malloc_trim_r>
  80a924:	003f9a06 	br	80a790 <_free_r+0xb4>
  80a928:	00800104 	movi	r2,4
  80a92c:	10c0072e 	bgeu	r2,r3,80a94c <_free_r+0x270>
  80a930:	00800504 	movi	r2,20
  80a934:	10c01936 	bltu	r2,r3,80a99c <_free_r+0x2c0>
  80a938:	188016c4 	addi	r2,r3,91
  80a93c:	100690fa 	slli	r3,r2,3
  80a940:	003fb306 	br	80a810 <_free_r+0x134>
  80a944:	01400044 	movi	r5,1
  80a948:	003f7e06 	br	80a744 <_free_r+0x68>
  80a94c:	3804d1ba 	srli	r2,r7,6
  80a950:	10800e04 	addi	r2,r2,56
  80a954:	100690fa 	slli	r3,r2,3
  80a958:	003fad06 	br	80a810 <_free_r+0x134>
  80a95c:	22000315 	stw	r8,12(r4)
  80a960:	22000215 	stw	r8,8(r4)
  80a964:	3a05883a 	add	r2,r7,r8
  80a968:	38c00054 	ori	r3,r7,1
  80a96c:	11c00015 	stw	r7,0(r2)
  80a970:	41000215 	stw	r4,8(r8)
  80a974:	40c00115 	stw	r3,4(r8)
  80a978:	41000315 	stw	r4,12(r8)
  80a97c:	003f8406 	br	80a790 <_free_r+0xb4>
  80a980:	1005d0ba 	srai	r2,r2,2
  80a984:	00c00044 	movi	r3,1
  80a988:	51000117 	ldw	r4,4(r10)
  80a98c:	1886983a 	sll	r3,r3,r2
  80a990:	20c8b03a 	or	r4,r4,r3
  80a994:	51000115 	stw	r4,4(r10)
  80a998:	003fa706 	br	80a838 <_free_r+0x15c>
  80a99c:	00801504 	movi	r2,84
  80a9a0:	10c00436 	bltu	r2,r3,80a9b4 <_free_r+0x2d8>
  80a9a4:	3804d33a 	srli	r2,r7,12
  80a9a8:	10801b84 	addi	r2,r2,110
  80a9ac:	100690fa 	slli	r3,r2,3
  80a9b0:	003f9706 	br	80a810 <_free_r+0x134>
  80a9b4:	00805504 	movi	r2,340
  80a9b8:	10c00436 	bltu	r2,r3,80a9cc <_free_r+0x2f0>
  80a9bc:	3804d3fa 	srli	r2,r7,15
  80a9c0:	10801dc4 	addi	r2,r2,119
  80a9c4:	100690fa 	slli	r3,r2,3
  80a9c8:	003f9106 	br	80a810 <_free_r+0x134>
  80a9cc:	00815504 	movi	r2,1364
  80a9d0:	10c0032e 	bgeu	r2,r3,80a9e0 <_free_r+0x304>
  80a9d4:	00801f84 	movi	r2,126
  80a9d8:	00c0fc04 	movi	r3,1008
  80a9dc:	003f8c06 	br	80a810 <_free_r+0x134>
  80a9e0:	3804d4ba 	srli	r2,r7,18
  80a9e4:	10801f04 	addi	r2,r2,124
  80a9e8:	100690fa 	slli	r3,r2,3
  80a9ec:	003f8806 	br	80a810 <_free_r+0x134>

0080a9f0 <__sfvwrite_r>:
  80a9f0:	30800217 	ldw	r2,8(r6)
  80a9f4:	defff504 	addi	sp,sp,-44
  80a9f8:	df000915 	stw	fp,36(sp)
  80a9fc:	dd800715 	stw	r22,28(sp)
  80aa00:	dc800315 	stw	r18,12(sp)
  80aa04:	dfc00a15 	stw	ra,40(sp)
  80aa08:	ddc00815 	stw	r23,32(sp)
  80aa0c:	dd400615 	stw	r21,24(sp)
  80aa10:	dd000515 	stw	r20,20(sp)
  80aa14:	dcc00415 	stw	r19,16(sp)
  80aa18:	dc400215 	stw	r17,8(sp)
  80aa1c:	dc000115 	stw	r16,4(sp)
  80aa20:	302d883a 	mov	r22,r6
  80aa24:	2039883a 	mov	fp,r4
  80aa28:	2825883a 	mov	r18,r5
  80aa2c:	10001c26 	beq	r2,zero,80aaa0 <__sfvwrite_r+0xb0>
  80aa30:	29c0030b 	ldhu	r7,12(r5)
  80aa34:	3880020c 	andi	r2,r7,8
  80aa38:	10002726 	beq	r2,zero,80aad8 <__sfvwrite_r+0xe8>
  80aa3c:	28800417 	ldw	r2,16(r5)
  80aa40:	10002526 	beq	r2,zero,80aad8 <__sfvwrite_r+0xe8>
  80aa44:	3880008c 	andi	r2,r7,2
  80aa48:	b5400017 	ldw	r21,0(r22)
  80aa4c:	10002826 	beq	r2,zero,80aaf0 <__sfvwrite_r+0x100>
  80aa50:	0021883a 	mov	r16,zero
  80aa54:	0023883a 	mov	r17,zero
  80aa58:	880d883a 	mov	r6,r17
  80aa5c:	e009883a 	mov	r4,fp
  80aa60:	00810004 	movi	r2,1024
  80aa64:	80006e26 	beq	r16,zero,80ac20 <__sfvwrite_r+0x230>
  80aa68:	800f883a 	mov	r7,r16
  80aa6c:	91400717 	ldw	r5,28(r18)
  80aa70:	1400012e 	bgeu	r2,r16,80aa78 <__sfvwrite_r+0x88>
  80aa74:	100f883a 	mov	r7,r2
  80aa78:	90c00917 	ldw	r3,36(r18)
  80aa7c:	183ee83a 	callr	r3
  80aa80:	1007883a 	mov	r3,r2
  80aa84:	80a1c83a 	sub	r16,r16,r2
  80aa88:	88a3883a 	add	r17,r17,r2
  80aa8c:	00806d0e 	bge	zero,r2,80ac44 <__sfvwrite_r+0x254>
  80aa90:	b0800217 	ldw	r2,8(r22)
  80aa94:	10c5c83a 	sub	r2,r2,r3
  80aa98:	b0800215 	stw	r2,8(r22)
  80aa9c:	103fee1e 	bne	r2,zero,80aa58 <__sfvwrite_r+0x68>
  80aaa0:	0009883a 	mov	r4,zero
  80aaa4:	2005883a 	mov	r2,r4
  80aaa8:	dfc00a17 	ldw	ra,40(sp)
  80aaac:	df000917 	ldw	fp,36(sp)
  80aab0:	ddc00817 	ldw	r23,32(sp)
  80aab4:	dd800717 	ldw	r22,28(sp)
  80aab8:	dd400617 	ldw	r21,24(sp)
  80aabc:	dd000517 	ldw	r20,20(sp)
  80aac0:	dcc00417 	ldw	r19,16(sp)
  80aac4:	dc800317 	ldw	r18,12(sp)
  80aac8:	dc400217 	ldw	r17,8(sp)
  80aacc:	dc000117 	ldw	r16,4(sp)
  80aad0:	dec00b04 	addi	sp,sp,44
  80aad4:	f800283a 	ret
  80aad8:	08087580 	call	808758 <__swsetup_r>
  80aadc:	1000e41e 	bne	r2,zero,80ae70 <__sfvwrite_r+0x480>
  80aae0:	91c0030b 	ldhu	r7,12(r18)
  80aae4:	b5400017 	ldw	r21,0(r22)
  80aae8:	3880008c 	andi	r2,r7,2
  80aaec:	103fd81e 	bne	r2,zero,80aa50 <__sfvwrite_r+0x60>
  80aaf0:	3880004c 	andi	r2,r7,1
  80aaf4:	1005003a 	cmpeq	r2,r2,zero
  80aaf8:	10005726 	beq	r2,zero,80ac58 <__sfvwrite_r+0x268>
  80aafc:	0029883a 	mov	r20,zero
  80ab00:	002f883a 	mov	r23,zero
  80ab04:	a0004226 	beq	r20,zero,80ac10 <__sfvwrite_r+0x220>
  80ab08:	3880800c 	andi	r2,r7,512
  80ab0c:	94000217 	ldw	r16,8(r18)
  80ab10:	10008b26 	beq	r2,zero,80ad40 <__sfvwrite_r+0x350>
  80ab14:	800d883a 	mov	r6,r16
  80ab18:	a400a536 	bltu	r20,r16,80adb0 <__sfvwrite_r+0x3c0>
  80ab1c:	3881200c 	andi	r2,r7,1152
  80ab20:	10002726 	beq	r2,zero,80abc0 <__sfvwrite_r+0x1d0>
  80ab24:	90800517 	ldw	r2,20(r18)
  80ab28:	92000417 	ldw	r8,16(r18)
  80ab2c:	91400017 	ldw	r5,0(r18)
  80ab30:	1087883a 	add	r3,r2,r2
  80ab34:	1887883a 	add	r3,r3,r2
  80ab38:	1808d7fa 	srli	r4,r3,31
  80ab3c:	2a21c83a 	sub	r16,r5,r8
  80ab40:	80800044 	addi	r2,r16,1
  80ab44:	20c9883a 	add	r4,r4,r3
  80ab48:	2027d07a 	srai	r19,r4,1
  80ab4c:	a085883a 	add	r2,r20,r2
  80ab50:	980d883a 	mov	r6,r19
  80ab54:	9880022e 	bgeu	r19,r2,80ab60 <__sfvwrite_r+0x170>
  80ab58:	1027883a 	mov	r19,r2
  80ab5c:	100d883a 	mov	r6,r2
  80ab60:	3881000c 	andi	r2,r7,1024
  80ab64:	1000b826 	beq	r2,zero,80ae48 <__sfvwrite_r+0x458>
  80ab68:	300b883a 	mov	r5,r6
  80ab6c:	e009883a 	mov	r4,fp
  80ab70:	080b2640 	call	80b264 <_malloc_r>
  80ab74:	10003126 	beq	r2,zero,80ac3c <__sfvwrite_r+0x24c>
  80ab78:	91400417 	ldw	r5,16(r18)
  80ab7c:	1009883a 	mov	r4,r2
  80ab80:	800d883a 	mov	r6,r16
  80ab84:	1023883a 	mov	r17,r2
  80ab88:	08063400 	call	806340 <memcpy>
  80ab8c:	90c0030b 	ldhu	r3,12(r18)
  80ab90:	00beffc4 	movi	r2,-1025
  80ab94:	1886703a 	and	r3,r3,r2
  80ab98:	18c02014 	ori	r3,r3,128
  80ab9c:	90c0030d 	sth	r3,12(r18)
  80aba0:	9c07c83a 	sub	r3,r19,r16
  80aba4:	8c05883a 	add	r2,r17,r16
  80aba8:	a00d883a 	mov	r6,r20
  80abac:	a021883a 	mov	r16,r20
  80abb0:	90800015 	stw	r2,0(r18)
  80abb4:	90c00215 	stw	r3,8(r18)
  80abb8:	94400415 	stw	r17,16(r18)
  80abbc:	94c00515 	stw	r19,20(r18)
  80abc0:	91000017 	ldw	r4,0(r18)
  80abc4:	b80b883a 	mov	r5,r23
  80abc8:	a023883a 	mov	r17,r20
  80abcc:	080ba880 	call	80ba88 <memmove>
  80abd0:	90c00217 	ldw	r3,8(r18)
  80abd4:	90800017 	ldw	r2,0(r18)
  80abd8:	a027883a 	mov	r19,r20
  80abdc:	1c07c83a 	sub	r3,r3,r16
  80abe0:	1405883a 	add	r2,r2,r16
  80abe4:	90c00215 	stw	r3,8(r18)
  80abe8:	a021883a 	mov	r16,r20
  80abec:	90800015 	stw	r2,0(r18)
  80abf0:	b0800217 	ldw	r2,8(r22)
  80abf4:	1405c83a 	sub	r2,r2,r16
  80abf8:	b0800215 	stw	r2,8(r22)
  80abfc:	103fa826 	beq	r2,zero,80aaa0 <__sfvwrite_r+0xb0>
  80ac00:	a469c83a 	sub	r20,r20,r17
  80ac04:	91c0030b 	ldhu	r7,12(r18)
  80ac08:	bcef883a 	add	r23,r23,r19
  80ac0c:	a03fbe1e 	bne	r20,zero,80ab08 <__sfvwrite_r+0x118>
  80ac10:	adc00017 	ldw	r23,0(r21)
  80ac14:	ad000117 	ldw	r20,4(r21)
  80ac18:	ad400204 	addi	r21,r21,8
  80ac1c:	003fb906 	br	80ab04 <__sfvwrite_r+0x114>
  80ac20:	ac400017 	ldw	r17,0(r21)
  80ac24:	ac000117 	ldw	r16,4(r21)
  80ac28:	ad400204 	addi	r21,r21,8
  80ac2c:	003f8a06 	br	80aa58 <__sfvwrite_r+0x68>
  80ac30:	91400417 	ldw	r5,16(r18)
  80ac34:	e009883a 	mov	r4,fp
  80ac38:	080a6dc0 	call	80a6dc <_free_r>
  80ac3c:	00800304 	movi	r2,12
  80ac40:	e0800015 	stw	r2,0(fp)
  80ac44:	9080030b 	ldhu	r2,12(r18)
  80ac48:	013fffc4 	movi	r4,-1
  80ac4c:	10801014 	ori	r2,r2,64
  80ac50:	9080030d 	sth	r2,12(r18)
  80ac54:	003f9306 	br	80aaa4 <__sfvwrite_r+0xb4>
  80ac58:	0027883a 	mov	r19,zero
  80ac5c:	002f883a 	mov	r23,zero
  80ac60:	d8000015 	stw	zero,0(sp)
  80ac64:	0029883a 	mov	r20,zero
  80ac68:	98001e26 	beq	r19,zero,80ace4 <__sfvwrite_r+0x2f4>
  80ac6c:	d8c00017 	ldw	r3,0(sp)
  80ac70:	1804c03a 	cmpne	r2,r3,zero
  80ac74:	10005e26 	beq	r2,zero,80adf0 <__sfvwrite_r+0x400>
  80ac78:	9821883a 	mov	r16,r19
  80ac7c:	a4c0012e 	bgeu	r20,r19,80ac84 <__sfvwrite_r+0x294>
  80ac80:	a021883a 	mov	r16,r20
  80ac84:	91000017 	ldw	r4,0(r18)
  80ac88:	90800417 	ldw	r2,16(r18)
  80ac8c:	91800217 	ldw	r6,8(r18)
  80ac90:	91c00517 	ldw	r7,20(r18)
  80ac94:	1100022e 	bgeu	r2,r4,80aca0 <__sfvwrite_r+0x2b0>
  80ac98:	31e3883a 	add	r17,r6,r7
  80ac9c:	8c001616 	blt	r17,r16,80acf8 <__sfvwrite_r+0x308>
  80aca0:	81c03816 	blt	r16,r7,80ad84 <__sfvwrite_r+0x394>
  80aca4:	90c00917 	ldw	r3,36(r18)
  80aca8:	91400717 	ldw	r5,28(r18)
  80acac:	e009883a 	mov	r4,fp
  80acb0:	b80d883a 	mov	r6,r23
  80acb4:	183ee83a 	callr	r3
  80acb8:	1023883a 	mov	r17,r2
  80acbc:	00bfe10e 	bge	zero,r2,80ac44 <__sfvwrite_r+0x254>
  80acc0:	a469c83a 	sub	r20,r20,r17
  80acc4:	a0001826 	beq	r20,zero,80ad28 <__sfvwrite_r+0x338>
  80acc8:	b0800217 	ldw	r2,8(r22)
  80accc:	1445c83a 	sub	r2,r2,r17
  80acd0:	b0800215 	stw	r2,8(r22)
  80acd4:	103f7226 	beq	r2,zero,80aaa0 <__sfvwrite_r+0xb0>
  80acd8:	9c67c83a 	sub	r19,r19,r17
  80acdc:	bc6f883a 	add	r23,r23,r17
  80ace0:	983fe21e 	bne	r19,zero,80ac6c <__sfvwrite_r+0x27c>
  80ace4:	adc00017 	ldw	r23,0(r21)
  80ace8:	acc00117 	ldw	r19,4(r21)
  80acec:	ad400204 	addi	r21,r21,8
  80acf0:	d8000015 	stw	zero,0(sp)
  80acf4:	003fdc06 	br	80ac68 <__sfvwrite_r+0x278>
  80acf8:	b80b883a 	mov	r5,r23
  80acfc:	880d883a 	mov	r6,r17
  80ad00:	080ba880 	call	80ba88 <memmove>
  80ad04:	90c00017 	ldw	r3,0(r18)
  80ad08:	e009883a 	mov	r4,fp
  80ad0c:	900b883a 	mov	r5,r18
  80ad10:	1c47883a 	add	r3,r3,r17
  80ad14:	90c00015 	stw	r3,0(r18)
  80ad18:	080a08c0 	call	80a08c <_fflush_r>
  80ad1c:	103fc91e 	bne	r2,zero,80ac44 <__sfvwrite_r+0x254>
  80ad20:	a469c83a 	sub	r20,r20,r17
  80ad24:	a03fe81e 	bne	r20,zero,80acc8 <__sfvwrite_r+0x2d8>
  80ad28:	e009883a 	mov	r4,fp
  80ad2c:	900b883a 	mov	r5,r18
  80ad30:	080a08c0 	call	80a08c <_fflush_r>
  80ad34:	103fc31e 	bne	r2,zero,80ac44 <__sfvwrite_r+0x254>
  80ad38:	d8000015 	stw	zero,0(sp)
  80ad3c:	003fe206 	br	80acc8 <__sfvwrite_r+0x2d8>
  80ad40:	91000017 	ldw	r4,0(r18)
  80ad44:	90800417 	ldw	r2,16(r18)
  80ad48:	1100022e 	bgeu	r2,r4,80ad54 <__sfvwrite_r+0x364>
  80ad4c:	8023883a 	mov	r17,r16
  80ad50:	85003136 	bltu	r16,r20,80ae18 <__sfvwrite_r+0x428>
  80ad54:	91c00517 	ldw	r7,20(r18)
  80ad58:	a1c01836 	bltu	r20,r7,80adbc <__sfvwrite_r+0x3cc>
  80ad5c:	90c00917 	ldw	r3,36(r18)
  80ad60:	91400717 	ldw	r5,28(r18)
  80ad64:	e009883a 	mov	r4,fp
  80ad68:	b80d883a 	mov	r6,r23
  80ad6c:	183ee83a 	callr	r3
  80ad70:	1021883a 	mov	r16,r2
  80ad74:	00bfb30e 	bge	zero,r2,80ac44 <__sfvwrite_r+0x254>
  80ad78:	1023883a 	mov	r17,r2
  80ad7c:	1027883a 	mov	r19,r2
  80ad80:	003f9b06 	br	80abf0 <__sfvwrite_r+0x200>
  80ad84:	b80b883a 	mov	r5,r23
  80ad88:	800d883a 	mov	r6,r16
  80ad8c:	080ba880 	call	80ba88 <memmove>
  80ad90:	90c00217 	ldw	r3,8(r18)
  80ad94:	90800017 	ldw	r2,0(r18)
  80ad98:	8023883a 	mov	r17,r16
  80ad9c:	1c07c83a 	sub	r3,r3,r16
  80ada0:	1405883a 	add	r2,r2,r16
  80ada4:	90c00215 	stw	r3,8(r18)
  80ada8:	90800015 	stw	r2,0(r18)
  80adac:	003fc406 	br	80acc0 <__sfvwrite_r+0x2d0>
  80adb0:	a00d883a 	mov	r6,r20
  80adb4:	a021883a 	mov	r16,r20
  80adb8:	003f8106 	br	80abc0 <__sfvwrite_r+0x1d0>
  80adbc:	b80b883a 	mov	r5,r23
  80adc0:	a00d883a 	mov	r6,r20
  80adc4:	080ba880 	call	80ba88 <memmove>
  80adc8:	90c00217 	ldw	r3,8(r18)
  80adcc:	90800017 	ldw	r2,0(r18)
  80add0:	a021883a 	mov	r16,r20
  80add4:	1d07c83a 	sub	r3,r3,r20
  80add8:	1505883a 	add	r2,r2,r20
  80addc:	a023883a 	mov	r17,r20
  80ade0:	a027883a 	mov	r19,r20
  80ade4:	90c00215 	stw	r3,8(r18)
  80ade8:	90800015 	stw	r2,0(r18)
  80adec:	003f8006 	br	80abf0 <__sfvwrite_r+0x200>
  80adf0:	b809883a 	mov	r4,r23
  80adf4:	01400284 	movi	r5,10
  80adf8:	980d883a 	mov	r6,r19
  80adfc:	080b9a40 	call	80b9a4 <memchr>
  80ae00:	10001726 	beq	r2,zero,80ae60 <__sfvwrite_r+0x470>
  80ae04:	15c5c83a 	sub	r2,r2,r23
  80ae08:	15000044 	addi	r20,r2,1
  80ae0c:	00800044 	movi	r2,1
  80ae10:	d8800015 	stw	r2,0(sp)
  80ae14:	003f9806 	br	80ac78 <__sfvwrite_r+0x288>
  80ae18:	b80b883a 	mov	r5,r23
  80ae1c:	800d883a 	mov	r6,r16
  80ae20:	080ba880 	call	80ba88 <memmove>
  80ae24:	90c00017 	ldw	r3,0(r18)
  80ae28:	e009883a 	mov	r4,fp
  80ae2c:	900b883a 	mov	r5,r18
  80ae30:	1c07883a 	add	r3,r3,r16
  80ae34:	90c00015 	stw	r3,0(r18)
  80ae38:	8027883a 	mov	r19,r16
  80ae3c:	080a08c0 	call	80a08c <_fflush_r>
  80ae40:	103f6b26 	beq	r2,zero,80abf0 <__sfvwrite_r+0x200>
  80ae44:	003f7f06 	br	80ac44 <__sfvwrite_r+0x254>
  80ae48:	400b883a 	mov	r5,r8
  80ae4c:	e009883a 	mov	r4,fp
  80ae50:	080ce780 	call	80ce78 <_realloc_r>
  80ae54:	103f7626 	beq	r2,zero,80ac30 <__sfvwrite_r+0x240>
  80ae58:	1023883a 	mov	r17,r2
  80ae5c:	003f5006 	br	80aba0 <__sfvwrite_r+0x1b0>
  80ae60:	00c00044 	movi	r3,1
  80ae64:	9d000044 	addi	r20,r19,1
  80ae68:	d8c00015 	stw	r3,0(sp)
  80ae6c:	003f8206 	br	80ac78 <__sfvwrite_r+0x288>
  80ae70:	9080030b 	ldhu	r2,12(r18)
  80ae74:	00c00244 	movi	r3,9
  80ae78:	013fffc4 	movi	r4,-1
  80ae7c:	10801014 	ori	r2,r2,64
  80ae80:	9080030d 	sth	r2,12(r18)
  80ae84:	e0c00015 	stw	r3,0(fp)
  80ae88:	003f0606 	br	80aaa4 <__sfvwrite_r+0xb4>

0080ae8c <_fwalk_reent>:
  80ae8c:	defff704 	addi	sp,sp,-36
  80ae90:	dcc00315 	stw	r19,12(sp)
  80ae94:	24c0b804 	addi	r19,r4,736
  80ae98:	dd800615 	stw	r22,24(sp)
  80ae9c:	dd400515 	stw	r21,20(sp)
  80aea0:	dfc00815 	stw	ra,32(sp)
  80aea4:	ddc00715 	stw	r23,28(sp)
  80aea8:	dd000415 	stw	r20,16(sp)
  80aeac:	dc800215 	stw	r18,8(sp)
  80aeb0:	dc400115 	stw	r17,4(sp)
  80aeb4:	dc000015 	stw	r16,0(sp)
  80aeb8:	202b883a 	mov	r21,r4
  80aebc:	282d883a 	mov	r22,r5
  80aec0:	080a3140 	call	80a314 <__sfp_lock_acquire>
  80aec4:	98002126 	beq	r19,zero,80af4c <_fwalk_reent+0xc0>
  80aec8:	002f883a 	mov	r23,zero
  80aecc:	9c800117 	ldw	r18,4(r19)
  80aed0:	9c000217 	ldw	r16,8(r19)
  80aed4:	90bfffc4 	addi	r2,r18,-1
  80aed8:	10000d16 	blt	r2,zero,80af10 <_fwalk_reent+0x84>
  80aedc:	0023883a 	mov	r17,zero
  80aee0:	053fffc4 	movi	r20,-1
  80aee4:	8080030f 	ldh	r2,12(r16)
  80aee8:	8c400044 	addi	r17,r17,1
  80aeec:	10000626 	beq	r2,zero,80af08 <_fwalk_reent+0x7c>
  80aef0:	8080038f 	ldh	r2,14(r16)
  80aef4:	800b883a 	mov	r5,r16
  80aef8:	a809883a 	mov	r4,r21
  80aefc:	15000226 	beq	r2,r20,80af08 <_fwalk_reent+0x7c>
  80af00:	b03ee83a 	callr	r22
  80af04:	b8aeb03a 	or	r23,r23,r2
  80af08:	84001704 	addi	r16,r16,92
  80af0c:	947ff51e 	bne	r18,r17,80aee4 <_fwalk_reent+0x58>
  80af10:	9cc00017 	ldw	r19,0(r19)
  80af14:	983fed1e 	bne	r19,zero,80aecc <_fwalk_reent+0x40>
  80af18:	080a3180 	call	80a318 <__sfp_lock_release>
  80af1c:	b805883a 	mov	r2,r23
  80af20:	dfc00817 	ldw	ra,32(sp)
  80af24:	ddc00717 	ldw	r23,28(sp)
  80af28:	dd800617 	ldw	r22,24(sp)
  80af2c:	dd400517 	ldw	r21,20(sp)
  80af30:	dd000417 	ldw	r20,16(sp)
  80af34:	dcc00317 	ldw	r19,12(sp)
  80af38:	dc800217 	ldw	r18,8(sp)
  80af3c:	dc400117 	ldw	r17,4(sp)
  80af40:	dc000017 	ldw	r16,0(sp)
  80af44:	dec00904 	addi	sp,sp,36
  80af48:	f800283a 	ret
  80af4c:	002f883a 	mov	r23,zero
  80af50:	003ff106 	br	80af18 <_fwalk_reent+0x8c>

0080af54 <_fwalk>:
  80af54:	defff804 	addi	sp,sp,-32
  80af58:	dcc00315 	stw	r19,12(sp)
  80af5c:	24c0b804 	addi	r19,r4,736
  80af60:	dd400515 	stw	r21,20(sp)
  80af64:	dfc00715 	stw	ra,28(sp)
  80af68:	dd800615 	stw	r22,24(sp)
  80af6c:	dd000415 	stw	r20,16(sp)
  80af70:	dc800215 	stw	r18,8(sp)
  80af74:	dc400115 	stw	r17,4(sp)
  80af78:	dc000015 	stw	r16,0(sp)
  80af7c:	282b883a 	mov	r21,r5
  80af80:	080a3140 	call	80a314 <__sfp_lock_acquire>
  80af84:	98001f26 	beq	r19,zero,80b004 <_fwalk+0xb0>
  80af88:	002d883a 	mov	r22,zero
  80af8c:	9c800117 	ldw	r18,4(r19)
  80af90:	9c000217 	ldw	r16,8(r19)
  80af94:	90bfffc4 	addi	r2,r18,-1
  80af98:	10000c16 	blt	r2,zero,80afcc <_fwalk+0x78>
  80af9c:	0023883a 	mov	r17,zero
  80afa0:	053fffc4 	movi	r20,-1
  80afa4:	8080030f 	ldh	r2,12(r16)
  80afa8:	8c400044 	addi	r17,r17,1
  80afac:	10000526 	beq	r2,zero,80afc4 <_fwalk+0x70>
  80afb0:	8080038f 	ldh	r2,14(r16)
  80afb4:	8009883a 	mov	r4,r16
  80afb8:	15000226 	beq	r2,r20,80afc4 <_fwalk+0x70>
  80afbc:	a83ee83a 	callr	r21
  80afc0:	b0acb03a 	or	r22,r22,r2
  80afc4:	84001704 	addi	r16,r16,92
  80afc8:	947ff61e 	bne	r18,r17,80afa4 <_fwalk+0x50>
  80afcc:	9cc00017 	ldw	r19,0(r19)
  80afd0:	983fee1e 	bne	r19,zero,80af8c <_fwalk+0x38>
  80afd4:	080a3180 	call	80a318 <__sfp_lock_release>
  80afd8:	b005883a 	mov	r2,r22
  80afdc:	dfc00717 	ldw	ra,28(sp)
  80afe0:	dd800617 	ldw	r22,24(sp)
  80afe4:	dd400517 	ldw	r21,20(sp)
  80afe8:	dd000417 	ldw	r20,16(sp)
  80afec:	dcc00317 	ldw	r19,12(sp)
  80aff0:	dc800217 	ldw	r18,8(sp)
  80aff4:	dc400117 	ldw	r17,4(sp)
  80aff8:	dc000017 	ldw	r16,0(sp)
  80affc:	dec00804 	addi	sp,sp,32
  80b000:	f800283a 	ret
  80b004:	002d883a 	mov	r22,zero
  80b008:	003ff206 	br	80afd4 <_fwalk+0x80>

0080b00c <__locale_charset>:
  80b00c:	d0a00817 	ldw	r2,-32736(gp)
  80b010:	f800283a 	ret

0080b014 <_localeconv_r>:
  80b014:	00802074 	movhi	r2,129
  80b018:	108d0504 	addi	r2,r2,13332
  80b01c:	f800283a 	ret

0080b020 <localeconv>:
  80b020:	00802074 	movhi	r2,129
  80b024:	1094d404 	addi	r2,r2,21328
  80b028:	11000017 	ldw	r4,0(r2)
  80b02c:	080b0141 	jmpi	80b014 <_localeconv_r>

0080b030 <_setlocale_r>:
  80b030:	defffc04 	addi	sp,sp,-16
  80b034:	00c02074 	movhi	r3,129
  80b038:	18cd0004 	addi	r3,r3,13312
  80b03c:	dc800215 	stw	r18,8(sp)
  80b040:	dc400115 	stw	r17,4(sp)
  80b044:	dc000015 	stw	r16,0(sp)
  80b048:	2023883a 	mov	r17,r4
  80b04c:	2825883a 	mov	r18,r5
  80b050:	dfc00315 	stw	ra,12(sp)
  80b054:	3021883a 	mov	r16,r6
  80b058:	3009883a 	mov	r4,r6
  80b05c:	180b883a 	mov	r5,r3
  80b060:	30000926 	beq	r6,zero,80b088 <_setlocale_r+0x58>
  80b064:	080d6980 	call	80d698 <strcmp>
  80b068:	8009883a 	mov	r4,r16
  80b06c:	01402074 	movhi	r5,129
  80b070:	294c4b04 	addi	r5,r5,12588
  80b074:	10000b1e 	bne	r2,zero,80b0a4 <_setlocale_r+0x74>
  80b078:	8c000d15 	stw	r16,52(r17)
  80b07c:	8c800c15 	stw	r18,48(r17)
  80b080:	00c02074 	movhi	r3,129
  80b084:	18cd0004 	addi	r3,r3,13312
  80b088:	1805883a 	mov	r2,r3
  80b08c:	dfc00317 	ldw	ra,12(sp)
  80b090:	dc800217 	ldw	r18,8(sp)
  80b094:	dc400117 	ldw	r17,4(sp)
  80b098:	dc000017 	ldw	r16,0(sp)
  80b09c:	dec00404 	addi	sp,sp,16
  80b0a0:	f800283a 	ret
  80b0a4:	080d6980 	call	80d698 <strcmp>
  80b0a8:	0007883a 	mov	r3,zero
  80b0ac:	103ff226 	beq	r2,zero,80b078 <_setlocale_r+0x48>
  80b0b0:	003ff506 	br	80b088 <_setlocale_r+0x58>

0080b0b4 <setlocale>:
  80b0b4:	01802074 	movhi	r6,129
  80b0b8:	3194d404 	addi	r6,r6,21328
  80b0bc:	2007883a 	mov	r3,r4
  80b0c0:	31000017 	ldw	r4,0(r6)
  80b0c4:	280d883a 	mov	r6,r5
  80b0c8:	180b883a 	mov	r5,r3
  80b0cc:	080b0301 	jmpi	80b030 <_setlocale_r>

0080b0d0 <__smakebuf_r>:
  80b0d0:	2880030b 	ldhu	r2,12(r5)
  80b0d4:	deffed04 	addi	sp,sp,-76
  80b0d8:	dc401015 	stw	r17,64(sp)
  80b0dc:	1080008c 	andi	r2,r2,2
  80b0e0:	dc000f15 	stw	r16,60(sp)
  80b0e4:	dfc01215 	stw	ra,72(sp)
  80b0e8:	dc801115 	stw	r18,68(sp)
  80b0ec:	2821883a 	mov	r16,r5
  80b0f0:	2023883a 	mov	r17,r4
  80b0f4:	10000b26 	beq	r2,zero,80b124 <__smakebuf_r+0x54>
  80b0f8:	28c010c4 	addi	r3,r5,67
  80b0fc:	00800044 	movi	r2,1
  80b100:	28800515 	stw	r2,20(r5)
  80b104:	28c00415 	stw	r3,16(r5)
  80b108:	28c00015 	stw	r3,0(r5)
  80b10c:	dfc01217 	ldw	ra,72(sp)
  80b110:	dc801117 	ldw	r18,68(sp)
  80b114:	dc401017 	ldw	r17,64(sp)
  80b118:	dc000f17 	ldw	r16,60(sp)
  80b11c:	dec01304 	addi	sp,sp,76
  80b120:	f800283a 	ret
  80b124:	2940038f 	ldh	r5,14(r5)
  80b128:	28002116 	blt	r5,zero,80b1b0 <__smakebuf_r+0xe0>
  80b12c:	d80d883a 	mov	r6,sp
  80b130:	080db740 	call	80db74 <_fstat_r>
  80b134:	10001e16 	blt	r2,zero,80b1b0 <__smakebuf_r+0xe0>
  80b138:	d8800117 	ldw	r2,4(sp)
  80b13c:	00e00014 	movui	r3,32768
  80b140:	113c000c 	andi	r4,r2,61440
  80b144:	20c03126 	beq	r4,r3,80b20c <__smakebuf_r+0x13c>
  80b148:	8080030b 	ldhu	r2,12(r16)
  80b14c:	00c80004 	movi	r3,8192
  80b150:	10820014 	ori	r2,r2,2048
  80b154:	8080030d 	sth	r2,12(r16)
  80b158:	20c01e26 	beq	r4,r3,80b1d4 <__smakebuf_r+0x104>
  80b15c:	04810004 	movi	r18,1024
  80b160:	8809883a 	mov	r4,r17
  80b164:	900b883a 	mov	r5,r18
  80b168:	080b2640 	call	80b264 <_malloc_r>
  80b16c:	1009883a 	mov	r4,r2
  80b170:	10003126 	beq	r2,zero,80b238 <__smakebuf_r+0x168>
  80b174:	80c0030b 	ldhu	r3,12(r16)
  80b178:	00802074 	movhi	r2,129
  80b17c:	10a90204 	addi	r2,r2,-23544
  80b180:	88800f15 	stw	r2,60(r17)
  80b184:	18c02014 	ori	r3,r3,128
  80b188:	84800515 	stw	r18,20(r16)
  80b18c:	80c0030d 	sth	r3,12(r16)
  80b190:	81000415 	stw	r4,16(r16)
  80b194:	81000015 	stw	r4,0(r16)
  80b198:	dfc01217 	ldw	ra,72(sp)
  80b19c:	dc801117 	ldw	r18,68(sp)
  80b1a0:	dc401017 	ldw	r17,64(sp)
  80b1a4:	dc000f17 	ldw	r16,60(sp)
  80b1a8:	dec01304 	addi	sp,sp,76
  80b1ac:	f800283a 	ret
  80b1b0:	80c0030b 	ldhu	r3,12(r16)
  80b1b4:	1880200c 	andi	r2,r3,128
  80b1b8:	10000426 	beq	r2,zero,80b1cc <__smakebuf_r+0xfc>
  80b1bc:	04801004 	movi	r18,64
  80b1c0:	18820014 	ori	r2,r3,2048
  80b1c4:	8080030d 	sth	r2,12(r16)
  80b1c8:	003fe506 	br	80b160 <__smakebuf_r+0x90>
  80b1cc:	04810004 	movi	r18,1024
  80b1d0:	003ffb06 	br	80b1c0 <__smakebuf_r+0xf0>
  80b1d4:	8140038f 	ldh	r5,14(r16)
  80b1d8:	8809883a 	mov	r4,r17
  80b1dc:	080dbe80 	call	80dbe8 <_isatty_r>
  80b1e0:	103fde26 	beq	r2,zero,80b15c <__smakebuf_r+0x8c>
  80b1e4:	8080030b 	ldhu	r2,12(r16)
  80b1e8:	80c010c4 	addi	r3,r16,67
  80b1ec:	04810004 	movi	r18,1024
  80b1f0:	10800054 	ori	r2,r2,1
  80b1f4:	8080030d 	sth	r2,12(r16)
  80b1f8:	00800044 	movi	r2,1
  80b1fc:	80c00415 	stw	r3,16(r16)
  80b200:	80800515 	stw	r2,20(r16)
  80b204:	80c00015 	stw	r3,0(r16)
  80b208:	003fd506 	br	80b160 <__smakebuf_r+0x90>
  80b20c:	80c00a17 	ldw	r3,40(r16)
  80b210:	00802074 	movhi	r2,129
  80b214:	10b55504 	addi	r2,r2,-10924
  80b218:	18bfcb1e 	bne	r3,r2,80b148 <__smakebuf_r+0x78>
  80b21c:	8080030b 	ldhu	r2,12(r16)
  80b220:	00c10004 	movi	r3,1024
  80b224:	1825883a 	mov	r18,r3
  80b228:	10c4b03a 	or	r2,r2,r3
  80b22c:	8080030d 	sth	r2,12(r16)
  80b230:	80c01315 	stw	r3,76(r16)
  80b234:	003fca06 	br	80b160 <__smakebuf_r+0x90>
  80b238:	8100030b 	ldhu	r4,12(r16)
  80b23c:	2080800c 	andi	r2,r4,512
  80b240:	103fb21e 	bne	r2,zero,80b10c <__smakebuf_r+0x3c>
  80b244:	80c010c4 	addi	r3,r16,67
  80b248:	21000094 	ori	r4,r4,2
  80b24c:	00800044 	movi	r2,1
  80b250:	80800515 	stw	r2,20(r16)
  80b254:	8100030d 	sth	r4,12(r16)
  80b258:	80c00415 	stw	r3,16(r16)
  80b25c:	80c00015 	stw	r3,0(r16)
  80b260:	003faa06 	br	80b10c <__smakebuf_r+0x3c>

0080b264 <_malloc_r>:
  80b264:	defff604 	addi	sp,sp,-40
  80b268:	28c002c4 	addi	r3,r5,11
  80b26c:	00800584 	movi	r2,22
  80b270:	dc800215 	stw	r18,8(sp)
  80b274:	dfc00915 	stw	ra,36(sp)
  80b278:	df000815 	stw	fp,32(sp)
  80b27c:	ddc00715 	stw	r23,28(sp)
  80b280:	dd800615 	stw	r22,24(sp)
  80b284:	dd400515 	stw	r21,20(sp)
  80b288:	dd000415 	stw	r20,16(sp)
  80b28c:	dcc00315 	stw	r19,12(sp)
  80b290:	dc400115 	stw	r17,4(sp)
  80b294:	dc000015 	stw	r16,0(sp)
  80b298:	2025883a 	mov	r18,r4
  80b29c:	10c01236 	bltu	r2,r3,80b2e8 <_malloc_r+0x84>
  80b2a0:	04400404 	movi	r17,16
  80b2a4:	8940142e 	bgeu	r17,r5,80b2f8 <_malloc_r+0x94>
  80b2a8:	00800304 	movi	r2,12
  80b2ac:	0007883a 	mov	r3,zero
  80b2b0:	90800015 	stw	r2,0(r18)
  80b2b4:	1805883a 	mov	r2,r3
  80b2b8:	dfc00917 	ldw	ra,36(sp)
  80b2bc:	df000817 	ldw	fp,32(sp)
  80b2c0:	ddc00717 	ldw	r23,28(sp)
  80b2c4:	dd800617 	ldw	r22,24(sp)
  80b2c8:	dd400517 	ldw	r21,20(sp)
  80b2cc:	dd000417 	ldw	r20,16(sp)
  80b2d0:	dcc00317 	ldw	r19,12(sp)
  80b2d4:	dc800217 	ldw	r18,8(sp)
  80b2d8:	dc400117 	ldw	r17,4(sp)
  80b2dc:	dc000017 	ldw	r16,0(sp)
  80b2e0:	dec00a04 	addi	sp,sp,40
  80b2e4:	f800283a 	ret
  80b2e8:	00bffe04 	movi	r2,-8
  80b2ec:	18a2703a 	and	r17,r3,r2
  80b2f0:	883fed16 	blt	r17,zero,80b2a8 <_malloc_r+0x44>
  80b2f4:	897fec36 	bltu	r17,r5,80b2a8 <_malloc_r+0x44>
  80b2f8:	9009883a 	mov	r4,r18
  80b2fc:	080fee40 	call	80fee4 <__malloc_lock>
  80b300:	00807dc4 	movi	r2,503
  80b304:	14402b2e 	bgeu	r2,r17,80b3b4 <_malloc_r+0x150>
  80b308:	8806d27a 	srli	r3,r17,9
  80b30c:	18003f1e 	bne	r3,zero,80b40c <_malloc_r+0x1a8>
  80b310:	880cd0fa 	srli	r6,r17,3
  80b314:	300490fa 	slli	r2,r6,3
  80b318:	02c02074 	movhi	r11,129
  80b31c:	5acf3304 	addi	r11,r11,15564
  80b320:	12cb883a 	add	r5,r2,r11
  80b324:	2c000317 	ldw	r16,12(r5)
  80b328:	580f883a 	mov	r7,r11
  80b32c:	2c00041e 	bne	r5,r16,80b340 <_malloc_r+0xdc>
  80b330:	00000a06 	br	80b35c <_malloc_r+0xf8>
  80b334:	1800860e 	bge	r3,zero,80b550 <_malloc_r+0x2ec>
  80b338:	84000317 	ldw	r16,12(r16)
  80b33c:	2c000726 	beq	r5,r16,80b35c <_malloc_r+0xf8>
  80b340:	80800117 	ldw	r2,4(r16)
  80b344:	00ffff04 	movi	r3,-4
  80b348:	10c8703a 	and	r4,r2,r3
  80b34c:	2447c83a 	sub	r3,r4,r17
  80b350:	008003c4 	movi	r2,15
  80b354:	10fff70e 	bge	r2,r3,80b334 <_malloc_r+0xd0>
  80b358:	31bfffc4 	addi	r6,r6,-1
  80b35c:	32400044 	addi	r9,r6,1
  80b360:	02802074 	movhi	r10,129
  80b364:	528f3504 	addi	r10,r10,15572
  80b368:	54000217 	ldw	r16,8(r10)
  80b36c:	8280a026 	beq	r16,r10,80b5f0 <_malloc_r+0x38c>
  80b370:	80800117 	ldw	r2,4(r16)
  80b374:	00ffff04 	movi	r3,-4
  80b378:	10ca703a 	and	r5,r2,r3
  80b37c:	2c4dc83a 	sub	r6,r5,r17
  80b380:	008003c4 	movi	r2,15
  80b384:	11808316 	blt	r2,r6,80b594 <_malloc_r+0x330>
  80b388:	52800315 	stw	r10,12(r10)
  80b38c:	52800215 	stw	r10,8(r10)
  80b390:	30002916 	blt	r6,zero,80b438 <_malloc_r+0x1d4>
  80b394:	8147883a 	add	r3,r16,r5
  80b398:	18800117 	ldw	r2,4(r3)
  80b39c:	9009883a 	mov	r4,r18
  80b3a0:	10800054 	ori	r2,r2,1
  80b3a4:	18800115 	stw	r2,4(r3)
  80b3a8:	080ff040 	call	80ff04 <__malloc_unlock>
  80b3ac:	80c00204 	addi	r3,r16,8
  80b3b0:	003fc006 	br	80b2b4 <_malloc_r+0x50>
  80b3b4:	02c02074 	movhi	r11,129
  80b3b8:	5acf3304 	addi	r11,r11,15564
  80b3bc:	8ac5883a 	add	r2,r17,r11
  80b3c0:	14000317 	ldw	r16,12(r2)
  80b3c4:	580f883a 	mov	r7,r11
  80b3c8:	8806d0fa 	srli	r3,r17,3
  80b3cc:	14006c26 	beq	r2,r16,80b580 <_malloc_r+0x31c>
  80b3d0:	80c00117 	ldw	r3,4(r16)
  80b3d4:	00bfff04 	movi	r2,-4
  80b3d8:	81800317 	ldw	r6,12(r16)
  80b3dc:	1886703a 	and	r3,r3,r2
  80b3e0:	80c7883a 	add	r3,r16,r3
  80b3e4:	18800117 	ldw	r2,4(r3)
  80b3e8:	81400217 	ldw	r5,8(r16)
  80b3ec:	9009883a 	mov	r4,r18
  80b3f0:	10800054 	ori	r2,r2,1
  80b3f4:	18800115 	stw	r2,4(r3)
  80b3f8:	31400215 	stw	r5,8(r6)
  80b3fc:	29800315 	stw	r6,12(r5)
  80b400:	080ff040 	call	80ff04 <__malloc_unlock>
  80b404:	80c00204 	addi	r3,r16,8
  80b408:	003faa06 	br	80b2b4 <_malloc_r+0x50>
  80b40c:	00800104 	movi	r2,4
  80b410:	10c0052e 	bgeu	r2,r3,80b428 <_malloc_r+0x1c4>
  80b414:	00800504 	movi	r2,20
  80b418:	10c07836 	bltu	r2,r3,80b5fc <_malloc_r+0x398>
  80b41c:	198016c4 	addi	r6,r3,91
  80b420:	300490fa 	slli	r2,r6,3
  80b424:	003fbc06 	br	80b318 <_malloc_r+0xb4>
  80b428:	8804d1ba 	srli	r2,r17,6
  80b42c:	11800e04 	addi	r6,r2,56
  80b430:	300490fa 	slli	r2,r6,3
  80b434:	003fb806 	br	80b318 <_malloc_r+0xb4>
  80b438:	00807fc4 	movi	r2,511
  80b43c:	1140bb36 	bltu	r2,r5,80b72c <_malloc_r+0x4c8>
  80b440:	2806d0fa 	srli	r3,r5,3
  80b444:	573ffe04 	addi	fp,r10,-8
  80b448:	00800044 	movi	r2,1
  80b44c:	180890fa 	slli	r4,r3,3
  80b450:	1807d0ba 	srai	r3,r3,2
  80b454:	e1c00117 	ldw	r7,4(fp)
  80b458:	5909883a 	add	r4,r11,r4
  80b45c:	21400217 	ldw	r5,8(r4)
  80b460:	10c4983a 	sll	r2,r2,r3
  80b464:	81000315 	stw	r4,12(r16)
  80b468:	81400215 	stw	r5,8(r16)
  80b46c:	388eb03a 	or	r7,r7,r2
  80b470:	2c000315 	stw	r16,12(r5)
  80b474:	24000215 	stw	r16,8(r4)
  80b478:	e1c00115 	stw	r7,4(fp)
  80b47c:	4807883a 	mov	r3,r9
  80b480:	4800cd16 	blt	r9,zero,80b7b8 <_malloc_r+0x554>
  80b484:	1807d0ba 	srai	r3,r3,2
  80b488:	00800044 	movi	r2,1
  80b48c:	10c8983a 	sll	r4,r2,r3
  80b490:	39004436 	bltu	r7,r4,80b5a4 <_malloc_r+0x340>
  80b494:	21c4703a 	and	r2,r4,r7
  80b498:	10000a1e 	bne	r2,zero,80b4c4 <_malloc_r+0x260>
  80b49c:	2109883a 	add	r4,r4,r4
  80b4a0:	00bfff04 	movi	r2,-4
  80b4a4:	4884703a 	and	r2,r9,r2
  80b4a8:	3906703a 	and	r3,r7,r4
  80b4ac:	12400104 	addi	r9,r2,4
  80b4b0:	1800041e 	bne	r3,zero,80b4c4 <_malloc_r+0x260>
  80b4b4:	2109883a 	add	r4,r4,r4
  80b4b8:	3904703a 	and	r2,r7,r4
  80b4bc:	4a400104 	addi	r9,r9,4
  80b4c0:	103ffc26 	beq	r2,zero,80b4b4 <_malloc_r+0x250>
  80b4c4:	480490fa 	slli	r2,r9,3
  80b4c8:	4819883a 	mov	r12,r9
  80b4cc:	023fff04 	movi	r8,-4
  80b4d0:	589b883a 	add	r13,r11,r2
  80b4d4:	6807883a 	mov	r3,r13
  80b4d8:	014003c4 	movi	r5,15
  80b4dc:	1c000317 	ldw	r16,12(r3)
  80b4e0:	1c00041e 	bne	r3,r16,80b4f4 <_malloc_r+0x290>
  80b4e4:	0000a706 	br	80b784 <_malloc_r+0x520>
  80b4e8:	3000ab0e 	bge	r6,zero,80b798 <_malloc_r+0x534>
  80b4ec:	84000317 	ldw	r16,12(r16)
  80b4f0:	1c00a426 	beq	r3,r16,80b784 <_malloc_r+0x520>
  80b4f4:	80800117 	ldw	r2,4(r16)
  80b4f8:	1204703a 	and	r2,r2,r8
  80b4fc:	144dc83a 	sub	r6,r2,r17
  80b500:	29bff90e 	bge	r5,r6,80b4e8 <_malloc_r+0x284>
  80b504:	81000317 	ldw	r4,12(r16)
  80b508:	80c00217 	ldw	r3,8(r16)
  80b50c:	89400054 	ori	r5,r17,1
  80b510:	8445883a 	add	r2,r16,r17
  80b514:	20c00215 	stw	r3,8(r4)
  80b518:	19000315 	stw	r4,12(r3)
  80b51c:	81400115 	stw	r5,4(r16)
  80b520:	1187883a 	add	r3,r2,r6
  80b524:	31000054 	ori	r4,r6,1
  80b528:	50800315 	stw	r2,12(r10)
  80b52c:	50800215 	stw	r2,8(r10)
  80b530:	19800015 	stw	r6,0(r3)
  80b534:	11000115 	stw	r4,4(r2)
  80b538:	12800215 	stw	r10,8(r2)
  80b53c:	12800315 	stw	r10,12(r2)
  80b540:	9009883a 	mov	r4,r18
  80b544:	080ff040 	call	80ff04 <__malloc_unlock>
  80b548:	80c00204 	addi	r3,r16,8
  80b54c:	003f5906 	br	80b2b4 <_malloc_r+0x50>
  80b550:	8109883a 	add	r4,r16,r4
  80b554:	20800117 	ldw	r2,4(r4)
  80b558:	80c00217 	ldw	r3,8(r16)
  80b55c:	81400317 	ldw	r5,12(r16)
  80b560:	10800054 	ori	r2,r2,1
  80b564:	20800115 	stw	r2,4(r4)
  80b568:	28c00215 	stw	r3,8(r5)
  80b56c:	19400315 	stw	r5,12(r3)
  80b570:	9009883a 	mov	r4,r18
  80b574:	080ff040 	call	80ff04 <__malloc_unlock>
  80b578:	80c00204 	addi	r3,r16,8
  80b57c:	003f4d06 	br	80b2b4 <_malloc_r+0x50>
  80b580:	80800204 	addi	r2,r16,8
  80b584:	14000317 	ldw	r16,12(r2)
  80b588:	143f911e 	bne	r2,r16,80b3d0 <_malloc_r+0x16c>
  80b58c:	1a400084 	addi	r9,r3,2
  80b590:	003f7306 	br	80b360 <_malloc_r+0xfc>
  80b594:	88c00054 	ori	r3,r17,1
  80b598:	8445883a 	add	r2,r16,r17
  80b59c:	80c00115 	stw	r3,4(r16)
  80b5a0:	003fdf06 	br	80b520 <_malloc_r+0x2bc>
  80b5a4:	e4000217 	ldw	r16,8(fp)
  80b5a8:	00bfff04 	movi	r2,-4
  80b5ac:	80c00117 	ldw	r3,4(r16)
  80b5b0:	802d883a 	mov	r22,r16
  80b5b4:	18aa703a 	and	r21,r3,r2
  80b5b8:	ac401636 	bltu	r21,r17,80b614 <_malloc_r+0x3b0>
  80b5bc:	ac49c83a 	sub	r4,r21,r17
  80b5c0:	008003c4 	movi	r2,15
  80b5c4:	1100130e 	bge	r2,r4,80b614 <_malloc_r+0x3b0>
  80b5c8:	88800054 	ori	r2,r17,1
  80b5cc:	8447883a 	add	r3,r16,r17
  80b5d0:	80800115 	stw	r2,4(r16)
  80b5d4:	20800054 	ori	r2,r4,1
  80b5d8:	18800115 	stw	r2,4(r3)
  80b5dc:	e0c00215 	stw	r3,8(fp)
  80b5e0:	9009883a 	mov	r4,r18
  80b5e4:	080ff040 	call	80ff04 <__malloc_unlock>
  80b5e8:	80c00204 	addi	r3,r16,8
  80b5ec:	003f3106 	br	80b2b4 <_malloc_r+0x50>
  80b5f0:	39c00117 	ldw	r7,4(r7)
  80b5f4:	573ffe04 	addi	fp,r10,-8
  80b5f8:	003fa006 	br	80b47c <_malloc_r+0x218>
  80b5fc:	00801504 	movi	r2,84
  80b600:	10c06736 	bltu	r2,r3,80b7a0 <_malloc_r+0x53c>
  80b604:	8804d33a 	srli	r2,r17,12
  80b608:	11801b84 	addi	r6,r2,110
  80b60c:	300490fa 	slli	r2,r6,3
  80b610:	003f4106 	br	80b318 <_malloc_r+0xb4>
  80b614:	d0a79a17 	ldw	r2,-24984(gp)
  80b618:	d0e00a17 	ldw	r3,-32728(gp)
  80b61c:	053fffc4 	movi	r20,-1
  80b620:	10800404 	addi	r2,r2,16
  80b624:	88a7883a 	add	r19,r17,r2
  80b628:	1d000326 	beq	r3,r20,80b638 <_malloc_r+0x3d4>
  80b62c:	98c3ffc4 	addi	r3,r19,4095
  80b630:	00bc0004 	movi	r2,-4096
  80b634:	18a6703a 	and	r19,r3,r2
  80b638:	9009883a 	mov	r4,r18
  80b63c:	980b883a 	mov	r5,r19
  80b640:	080d4dc0 	call	80d4dc <_sbrk_r>
  80b644:	1009883a 	mov	r4,r2
  80b648:	15000426 	beq	r2,r20,80b65c <_malloc_r+0x3f8>
  80b64c:	854b883a 	add	r5,r16,r21
  80b650:	1029883a 	mov	r20,r2
  80b654:	11405a2e 	bgeu	r2,r5,80b7c0 <_malloc_r+0x55c>
  80b658:	87000c26 	beq	r16,fp,80b68c <_malloc_r+0x428>
  80b65c:	e4000217 	ldw	r16,8(fp)
  80b660:	80c00117 	ldw	r3,4(r16)
  80b664:	00bfff04 	movi	r2,-4
  80b668:	1884703a 	and	r2,r3,r2
  80b66c:	14400336 	bltu	r2,r17,80b67c <_malloc_r+0x418>
  80b670:	1449c83a 	sub	r4,r2,r17
  80b674:	008003c4 	movi	r2,15
  80b678:	113fd316 	blt	r2,r4,80b5c8 <_malloc_r+0x364>
  80b67c:	9009883a 	mov	r4,r18
  80b680:	080ff040 	call	80ff04 <__malloc_unlock>
  80b684:	0007883a 	mov	r3,zero
  80b688:	003f0a06 	br	80b2b4 <_malloc_r+0x50>
  80b68c:	05c02074 	movhi	r23,129
  80b690:	bddc7304 	addi	r23,r23,29132
  80b694:	b8800017 	ldw	r2,0(r23)
  80b698:	988d883a 	add	r6,r19,r2
  80b69c:	b9800015 	stw	r6,0(r23)
  80b6a0:	d0e00a17 	ldw	r3,-32728(gp)
  80b6a4:	00bfffc4 	movi	r2,-1
  80b6a8:	18808e26 	beq	r3,r2,80b8e4 <_malloc_r+0x680>
  80b6ac:	2145c83a 	sub	r2,r4,r5
  80b6b0:	3085883a 	add	r2,r6,r2
  80b6b4:	b8800015 	stw	r2,0(r23)
  80b6b8:	20c001cc 	andi	r3,r4,7
  80b6bc:	18005f1e 	bne	r3,zero,80b83c <_malloc_r+0x5d8>
  80b6c0:	000b883a 	mov	r5,zero
  80b6c4:	a4c5883a 	add	r2,r20,r19
  80b6c8:	1083ffcc 	andi	r2,r2,4095
  80b6cc:	00c40004 	movi	r3,4096
  80b6d0:	1887c83a 	sub	r3,r3,r2
  80b6d4:	28e7883a 	add	r19,r5,r3
  80b6d8:	9009883a 	mov	r4,r18
  80b6dc:	980b883a 	mov	r5,r19
  80b6e0:	080d4dc0 	call	80d4dc <_sbrk_r>
  80b6e4:	1007883a 	mov	r3,r2
  80b6e8:	00bfffc4 	movi	r2,-1
  80b6ec:	18807a26 	beq	r3,r2,80b8d8 <_malloc_r+0x674>
  80b6f0:	1d05c83a 	sub	r2,r3,r20
  80b6f4:	9885883a 	add	r2,r19,r2
  80b6f8:	10c00054 	ori	r3,r2,1
  80b6fc:	b8800017 	ldw	r2,0(r23)
  80b700:	a021883a 	mov	r16,r20
  80b704:	a0c00115 	stw	r3,4(r20)
  80b708:	9885883a 	add	r2,r19,r2
  80b70c:	b8800015 	stw	r2,0(r23)
  80b710:	e5000215 	stw	r20,8(fp)
  80b714:	b7003626 	beq	r22,fp,80b7f0 <_malloc_r+0x58c>
  80b718:	018003c4 	movi	r6,15
  80b71c:	35404b36 	bltu	r6,r21,80b84c <_malloc_r+0x5e8>
  80b720:	00800044 	movi	r2,1
  80b724:	a0800115 	stw	r2,4(r20)
  80b728:	003fcd06 	br	80b660 <_malloc_r+0x3fc>
  80b72c:	2808d27a 	srli	r4,r5,9
  80b730:	2000371e 	bne	r4,zero,80b810 <_malloc_r+0x5ac>
  80b734:	2808d0fa 	srli	r4,r5,3
  80b738:	200690fa 	slli	r3,r4,3
  80b73c:	1ad1883a 	add	r8,r3,r11
  80b740:	41800217 	ldw	r6,8(r8)
  80b744:	41805b26 	beq	r8,r6,80b8b4 <_malloc_r+0x650>
  80b748:	30800117 	ldw	r2,4(r6)
  80b74c:	00ffff04 	movi	r3,-4
  80b750:	10c4703a 	and	r2,r2,r3
  80b754:	2880022e 	bgeu	r5,r2,80b760 <_malloc_r+0x4fc>
  80b758:	31800217 	ldw	r6,8(r6)
  80b75c:	41bffa1e 	bne	r8,r6,80b748 <_malloc_r+0x4e4>
  80b760:	32000317 	ldw	r8,12(r6)
  80b764:	39c00117 	ldw	r7,4(r7)
  80b768:	82000315 	stw	r8,12(r16)
  80b76c:	81800215 	stw	r6,8(r16)
  80b770:	07002074 	movhi	fp,129
  80b774:	e70f3304 	addi	fp,fp,15564
  80b778:	34000315 	stw	r16,12(r6)
  80b77c:	44000215 	stw	r16,8(r8)
  80b780:	003f3e06 	br	80b47c <_malloc_r+0x218>
  80b784:	63000044 	addi	r12,r12,1
  80b788:	608000cc 	andi	r2,r12,3
  80b78c:	10005d26 	beq	r2,zero,80b904 <_malloc_r+0x6a0>
  80b790:	18c00204 	addi	r3,r3,8
  80b794:	003f5106 	br	80b4dc <_malloc_r+0x278>
  80b798:	8089883a 	add	r4,r16,r2
  80b79c:	003f6d06 	br	80b554 <_malloc_r+0x2f0>
  80b7a0:	00805504 	movi	r2,340
  80b7a4:	10c02036 	bltu	r2,r3,80b828 <_malloc_r+0x5c4>
  80b7a8:	8804d3fa 	srli	r2,r17,15
  80b7ac:	11801dc4 	addi	r6,r2,119
  80b7b0:	300490fa 	slli	r2,r6,3
  80b7b4:	003ed806 	br	80b318 <_malloc_r+0xb4>
  80b7b8:	48c000c4 	addi	r3,r9,3
  80b7bc:	003f3106 	br	80b484 <_malloc_r+0x220>
  80b7c0:	05c02074 	movhi	r23,129
  80b7c4:	bddc7304 	addi	r23,r23,29132
  80b7c8:	b8800017 	ldw	r2,0(r23)
  80b7cc:	988d883a 	add	r6,r19,r2
  80b7d0:	b9800015 	stw	r6,0(r23)
  80b7d4:	293fb21e 	bne	r5,r4,80b6a0 <_malloc_r+0x43c>
  80b7d8:	2083ffcc 	andi	r2,r4,4095
  80b7dc:	103fb01e 	bne	r2,zero,80b6a0 <_malloc_r+0x43c>
  80b7e0:	e4000217 	ldw	r16,8(fp)
  80b7e4:	9d45883a 	add	r2,r19,r21
  80b7e8:	10800054 	ori	r2,r2,1
  80b7ec:	80800115 	stw	r2,4(r16)
  80b7f0:	b8c00017 	ldw	r3,0(r23)
  80b7f4:	d0a79b17 	ldw	r2,-24980(gp)
  80b7f8:	10c0012e 	bgeu	r2,r3,80b800 <_malloc_r+0x59c>
  80b7fc:	d0e79b15 	stw	r3,-24980(gp)
  80b800:	d0a79c17 	ldw	r2,-24976(gp)
  80b804:	10ff962e 	bgeu	r2,r3,80b660 <_malloc_r+0x3fc>
  80b808:	d0e79c15 	stw	r3,-24976(gp)
  80b80c:	003f9406 	br	80b660 <_malloc_r+0x3fc>
  80b810:	00800104 	movi	r2,4
  80b814:	11001e36 	bltu	r2,r4,80b890 <_malloc_r+0x62c>
  80b818:	2804d1ba 	srli	r2,r5,6
  80b81c:	11000e04 	addi	r4,r2,56
  80b820:	200690fa 	slli	r3,r4,3
  80b824:	003fc506 	br	80b73c <_malloc_r+0x4d8>
  80b828:	00815504 	movi	r2,1364
  80b82c:	10c01d2e 	bgeu	r2,r3,80b8a4 <_malloc_r+0x640>
  80b830:	01801f84 	movi	r6,126
  80b834:	0080fc04 	movi	r2,1008
  80b838:	003eb706 	br	80b318 <_malloc_r+0xb4>
  80b83c:	00800204 	movi	r2,8
  80b840:	10cbc83a 	sub	r5,r2,r3
  80b844:	2169883a 	add	r20,r4,r5
  80b848:	003f9e06 	br	80b6c4 <_malloc_r+0x460>
  80b84c:	00bffe04 	movi	r2,-8
  80b850:	a93ffd04 	addi	r4,r21,-12
  80b854:	2088703a 	and	r4,r4,r2
  80b858:	b10b883a 	add	r5,r22,r4
  80b85c:	00c00144 	movi	r3,5
  80b860:	28c00215 	stw	r3,8(r5)
  80b864:	28c00115 	stw	r3,4(r5)
  80b868:	b0800117 	ldw	r2,4(r22)
  80b86c:	1080004c 	andi	r2,r2,1
  80b870:	2084b03a 	or	r2,r4,r2
  80b874:	b0800115 	stw	r2,4(r22)
  80b878:	313fdd2e 	bgeu	r6,r4,80b7f0 <_malloc_r+0x58c>
  80b87c:	b1400204 	addi	r5,r22,8
  80b880:	9009883a 	mov	r4,r18
  80b884:	080a6dc0 	call	80a6dc <_free_r>
  80b888:	e4000217 	ldw	r16,8(fp)
  80b88c:	003fd806 	br	80b7f0 <_malloc_r+0x58c>
  80b890:	00800504 	movi	r2,20
  80b894:	11001536 	bltu	r2,r4,80b8ec <_malloc_r+0x688>
  80b898:	210016c4 	addi	r4,r4,91
  80b89c:	200690fa 	slli	r3,r4,3
  80b8a0:	003fa606 	br	80b73c <_malloc_r+0x4d8>
  80b8a4:	8804d4ba 	srli	r2,r17,18
  80b8a8:	11801f04 	addi	r6,r2,124
  80b8ac:	300490fa 	slli	r2,r6,3
  80b8b0:	003e9906 	br	80b318 <_malloc_r+0xb4>
  80b8b4:	2009d0ba 	srai	r4,r4,2
  80b8b8:	01402074 	movhi	r5,129
  80b8bc:	294f3304 	addi	r5,r5,15564
  80b8c0:	00c00044 	movi	r3,1
  80b8c4:	28800117 	ldw	r2,4(r5)
  80b8c8:	1906983a 	sll	r3,r3,r4
  80b8cc:	10c4b03a 	or	r2,r2,r3
  80b8d0:	28800115 	stw	r2,4(r5)
  80b8d4:	003fa306 	br	80b764 <_malloc_r+0x500>
  80b8d8:	0027883a 	mov	r19,zero
  80b8dc:	00c00044 	movi	r3,1
  80b8e0:	003f8606 	br	80b6fc <_malloc_r+0x498>
  80b8e4:	d1200a15 	stw	r4,-32728(gp)
  80b8e8:	003f7306 	br	80b6b8 <_malloc_r+0x454>
  80b8ec:	00801504 	movi	r2,84
  80b8f0:	11001936 	bltu	r2,r4,80b958 <_malloc_r+0x6f4>
  80b8f4:	2804d33a 	srli	r2,r5,12
  80b8f8:	11001b84 	addi	r4,r2,110
  80b8fc:	200690fa 	slli	r3,r4,3
  80b900:	003f8e06 	br	80b73c <_malloc_r+0x4d8>
  80b904:	480b883a 	mov	r5,r9
  80b908:	6807883a 	mov	r3,r13
  80b90c:	288000cc 	andi	r2,r5,3
  80b910:	18fffe04 	addi	r3,r3,-8
  80b914:	297fffc4 	addi	r5,r5,-1
  80b918:	10001526 	beq	r2,zero,80b970 <_malloc_r+0x70c>
  80b91c:	18800217 	ldw	r2,8(r3)
  80b920:	10fffa26 	beq	r2,r3,80b90c <_malloc_r+0x6a8>
  80b924:	2109883a 	add	r4,r4,r4
  80b928:	393f1e36 	bltu	r7,r4,80b5a4 <_malloc_r+0x340>
  80b92c:	203f1d26 	beq	r4,zero,80b5a4 <_malloc_r+0x340>
  80b930:	21c4703a 	and	r2,r4,r7
  80b934:	10000226 	beq	r2,zero,80b940 <_malloc_r+0x6dc>
  80b938:	6013883a 	mov	r9,r12
  80b93c:	003ee106 	br	80b4c4 <_malloc_r+0x260>
  80b940:	2109883a 	add	r4,r4,r4
  80b944:	3904703a 	and	r2,r7,r4
  80b948:	63000104 	addi	r12,r12,4
  80b94c:	103ffc26 	beq	r2,zero,80b940 <_malloc_r+0x6dc>
  80b950:	6013883a 	mov	r9,r12
  80b954:	003edb06 	br	80b4c4 <_malloc_r+0x260>
  80b958:	00805504 	movi	r2,340
  80b95c:	11000836 	bltu	r2,r4,80b980 <_malloc_r+0x71c>
  80b960:	2804d3fa 	srli	r2,r5,15
  80b964:	11001dc4 	addi	r4,r2,119
  80b968:	200690fa 	slli	r3,r4,3
  80b96c:	003f7306 	br	80b73c <_malloc_r+0x4d8>
  80b970:	0104303a 	nor	r2,zero,r4
  80b974:	388e703a 	and	r7,r7,r2
  80b978:	e1c00115 	stw	r7,4(fp)
  80b97c:	003fe906 	br	80b924 <_malloc_r+0x6c0>
  80b980:	00815504 	movi	r2,1364
  80b984:	1100032e 	bgeu	r2,r4,80b994 <_malloc_r+0x730>
  80b988:	01001f84 	movi	r4,126
  80b98c:	00c0fc04 	movi	r3,1008
  80b990:	003f6a06 	br	80b73c <_malloc_r+0x4d8>
  80b994:	2804d4ba 	srli	r2,r5,18
  80b998:	11001f04 	addi	r4,r2,124
  80b99c:	200690fa 	slli	r3,r4,3
  80b9a0:	003f6606 	br	80b73c <_malloc_r+0x4d8>

0080b9a4 <memchr>:
  80b9a4:	008000c4 	movi	r2,3
  80b9a8:	29403fcc 	andi	r5,r5,255
  80b9ac:	2007883a 	mov	r3,r4
  80b9b0:	1180022e 	bgeu	r2,r6,80b9bc <memchr+0x18>
  80b9b4:	2084703a 	and	r2,r4,r2
  80b9b8:	10000b26 	beq	r2,zero,80b9e8 <memchr+0x44>
  80b9bc:	313fffc4 	addi	r4,r6,-1
  80b9c0:	3000051e 	bne	r6,zero,80b9d8 <memchr+0x34>
  80b9c4:	00002c06 	br	80ba78 <memchr+0xd4>
  80b9c8:	213fffc4 	addi	r4,r4,-1
  80b9cc:	00bfffc4 	movi	r2,-1
  80b9d0:	18c00044 	addi	r3,r3,1
  80b9d4:	20802826 	beq	r4,r2,80ba78 <memchr+0xd4>
  80b9d8:	18800003 	ldbu	r2,0(r3)
  80b9dc:	28bffa1e 	bne	r5,r2,80b9c8 <memchr+0x24>
  80b9e0:	1805883a 	mov	r2,r3
  80b9e4:	f800283a 	ret
  80b9e8:	0011883a 	mov	r8,zero
  80b9ec:	0007883a 	mov	r3,zero
  80b9f0:	01c00104 	movi	r7,4
  80b9f4:	4004923a 	slli	r2,r8,8
  80b9f8:	18c00044 	addi	r3,r3,1
  80b9fc:	1151883a 	add	r8,r2,r5
  80ba00:	19fffc1e 	bne	r3,r7,80b9f4 <memchr+0x50>
  80ba04:	02bfbff4 	movhi	r10,65279
  80ba08:	52bfbfc4 	addi	r10,r10,-257
  80ba0c:	02602074 	movhi	r9,32897
  80ba10:	4a602004 	addi	r9,r9,-32640
  80ba14:	02c000c4 	movi	r11,3
  80ba18:	20800017 	ldw	r2,0(r4)
  80ba1c:	31bfff04 	addi	r6,r6,-4
  80ba20:	200f883a 	mov	r7,r4
  80ba24:	1204f03a 	xor	r2,r2,r8
  80ba28:	1287883a 	add	r3,r2,r10
  80ba2c:	1a46703a 	and	r3,r3,r9
  80ba30:	0084303a 	nor	r2,zero,r2
  80ba34:	10c4703a 	and	r2,r2,r3
  80ba38:	10000b26 	beq	r2,zero,80ba68 <memchr+0xc4>
  80ba3c:	20800003 	ldbu	r2,0(r4)
  80ba40:	28800f26 	beq	r5,r2,80ba80 <memchr+0xdc>
  80ba44:	20800043 	ldbu	r2,1(r4)
  80ba48:	21c00044 	addi	r7,r4,1
  80ba4c:	28800c26 	beq	r5,r2,80ba80 <memchr+0xdc>
  80ba50:	20800083 	ldbu	r2,2(r4)
  80ba54:	21c00084 	addi	r7,r4,2
  80ba58:	28800926 	beq	r5,r2,80ba80 <memchr+0xdc>
  80ba5c:	208000c3 	ldbu	r2,3(r4)
  80ba60:	21c000c4 	addi	r7,r4,3
  80ba64:	28800626 	beq	r5,r2,80ba80 <memchr+0xdc>
  80ba68:	21000104 	addi	r4,r4,4
  80ba6c:	59bfea36 	bltu	r11,r6,80ba18 <memchr+0x74>
  80ba70:	2007883a 	mov	r3,r4
  80ba74:	003fd106 	br	80b9bc <memchr+0x18>
  80ba78:	0005883a 	mov	r2,zero
  80ba7c:	f800283a 	ret
  80ba80:	3805883a 	mov	r2,r7
  80ba84:	f800283a 	ret

0080ba88 <memmove>:
  80ba88:	2807883a 	mov	r3,r5
  80ba8c:	2011883a 	mov	r8,r4
  80ba90:	29000c2e 	bgeu	r5,r4,80bac4 <memmove+0x3c>
  80ba94:	298f883a 	add	r7,r5,r6
  80ba98:	21c00a2e 	bgeu	r4,r7,80bac4 <memmove+0x3c>
  80ba9c:	30000726 	beq	r6,zero,80babc <memmove+0x34>
  80baa0:	2187883a 	add	r3,r4,r6
  80baa4:	198dc83a 	sub	r6,r3,r6
  80baa8:	39ffffc4 	addi	r7,r7,-1
  80baac:	38800003 	ldbu	r2,0(r7)
  80bab0:	18ffffc4 	addi	r3,r3,-1
  80bab4:	18800005 	stb	r2,0(r3)
  80bab8:	19bffb1e 	bne	r3,r6,80baa8 <memmove+0x20>
  80babc:	2005883a 	mov	r2,r4
  80bac0:	f800283a 	ret
  80bac4:	01c003c4 	movi	r7,15
  80bac8:	39800a36 	bltu	r7,r6,80baf4 <memmove+0x6c>
  80bacc:	303ffb26 	beq	r6,zero,80babc <memmove+0x34>
  80bad0:	400f883a 	mov	r7,r8
  80bad4:	320d883a 	add	r6,r6,r8
  80bad8:	28800003 	ldbu	r2,0(r5)
  80badc:	29400044 	addi	r5,r5,1
  80bae0:	38800005 	stb	r2,0(r7)
  80bae4:	39c00044 	addi	r7,r7,1
  80bae8:	39bffb1e 	bne	r7,r6,80bad8 <memmove+0x50>
  80baec:	2005883a 	mov	r2,r4
  80baf0:	f800283a 	ret
  80baf4:	1904b03a 	or	r2,r3,r4
  80baf8:	108000cc 	andi	r2,r2,3
  80bafc:	103ff31e 	bne	r2,zero,80bacc <memmove+0x44>
  80bb00:	3811883a 	mov	r8,r7
  80bb04:	180b883a 	mov	r5,r3
  80bb08:	200f883a 	mov	r7,r4
  80bb0c:	28c00017 	ldw	r3,0(r5)
  80bb10:	31bffc04 	addi	r6,r6,-16
  80bb14:	38c00015 	stw	r3,0(r7)
  80bb18:	28800117 	ldw	r2,4(r5)
  80bb1c:	38800115 	stw	r2,4(r7)
  80bb20:	28c00217 	ldw	r3,8(r5)
  80bb24:	38c00215 	stw	r3,8(r7)
  80bb28:	28800317 	ldw	r2,12(r5)
  80bb2c:	29400404 	addi	r5,r5,16
  80bb30:	38800315 	stw	r2,12(r7)
  80bb34:	39c00404 	addi	r7,r7,16
  80bb38:	41bff436 	bltu	r8,r6,80bb0c <memmove+0x84>
  80bb3c:	008000c4 	movi	r2,3
  80bb40:	1180072e 	bgeu	r2,r6,80bb60 <memmove+0xd8>
  80bb44:	1007883a 	mov	r3,r2
  80bb48:	28800017 	ldw	r2,0(r5)
  80bb4c:	31bfff04 	addi	r6,r6,-4
  80bb50:	29400104 	addi	r5,r5,4
  80bb54:	38800015 	stw	r2,0(r7)
  80bb58:	39c00104 	addi	r7,r7,4
  80bb5c:	19bffa36 	bltu	r3,r6,80bb48 <memmove+0xc0>
  80bb60:	3811883a 	mov	r8,r7
  80bb64:	003fd906 	br	80bacc <memmove+0x44>

0080bb68 <memset>:
  80bb68:	008000c4 	movi	r2,3
  80bb6c:	29403fcc 	andi	r5,r5,255
  80bb70:	2007883a 	mov	r3,r4
  80bb74:	1180022e 	bgeu	r2,r6,80bb80 <memset+0x18>
  80bb78:	2084703a 	and	r2,r4,r2
  80bb7c:	10000826 	beq	r2,zero,80bba0 <memset+0x38>
  80bb80:	30000526 	beq	r6,zero,80bb98 <memset+0x30>
  80bb84:	2805883a 	mov	r2,r5
  80bb88:	30cd883a 	add	r6,r6,r3
  80bb8c:	18800005 	stb	r2,0(r3)
  80bb90:	18c00044 	addi	r3,r3,1
  80bb94:	19bffd1e 	bne	r3,r6,80bb8c <memset+0x24>
  80bb98:	2005883a 	mov	r2,r4
  80bb9c:	f800283a 	ret
  80bba0:	2804923a 	slli	r2,r5,8
  80bba4:	020003c4 	movi	r8,15
  80bba8:	200f883a 	mov	r7,r4
  80bbac:	2884b03a 	or	r2,r5,r2
  80bbb0:	1006943a 	slli	r3,r2,16
  80bbb4:	10c6b03a 	or	r3,r2,r3
  80bbb8:	41800a2e 	bgeu	r8,r6,80bbe4 <memset+0x7c>
  80bbbc:	4005883a 	mov	r2,r8
  80bbc0:	31bffc04 	addi	r6,r6,-16
  80bbc4:	38c00015 	stw	r3,0(r7)
  80bbc8:	38c00115 	stw	r3,4(r7)
  80bbcc:	38c00215 	stw	r3,8(r7)
  80bbd0:	38c00315 	stw	r3,12(r7)
  80bbd4:	39c00404 	addi	r7,r7,16
  80bbd8:	11bff936 	bltu	r2,r6,80bbc0 <memset+0x58>
  80bbdc:	008000c4 	movi	r2,3
  80bbe0:	1180052e 	bgeu	r2,r6,80bbf8 <memset+0x90>
  80bbe4:	31bfff04 	addi	r6,r6,-4
  80bbe8:	008000c4 	movi	r2,3
  80bbec:	38c00015 	stw	r3,0(r7)
  80bbf0:	39c00104 	addi	r7,r7,4
  80bbf4:	11bffb36 	bltu	r2,r6,80bbe4 <memset+0x7c>
  80bbf8:	3807883a 	mov	r3,r7
  80bbfc:	003fe006 	br	80bb80 <memset+0x18>

0080bc00 <_Bfree>:
  80bc00:	28000826 	beq	r5,zero,80bc24 <_Bfree+0x24>
  80bc04:	28800117 	ldw	r2,4(r5)
  80bc08:	21001317 	ldw	r4,76(r4)
  80bc0c:	1085883a 	add	r2,r2,r2
  80bc10:	1085883a 	add	r2,r2,r2
  80bc14:	1105883a 	add	r2,r2,r4
  80bc18:	10c00017 	ldw	r3,0(r2)
  80bc1c:	28c00015 	stw	r3,0(r5)
  80bc20:	11400015 	stw	r5,0(r2)
  80bc24:	f800283a 	ret

0080bc28 <__hi0bits>:
  80bc28:	20bfffec 	andhi	r2,r4,65535
  80bc2c:	10001426 	beq	r2,zero,80bc80 <__hi0bits+0x58>
  80bc30:	0007883a 	mov	r3,zero
  80bc34:	20bfc02c 	andhi	r2,r4,65280
  80bc38:	1000021e 	bne	r2,zero,80bc44 <__hi0bits+0x1c>
  80bc3c:	2008923a 	slli	r4,r4,8
  80bc40:	18c00204 	addi	r3,r3,8
  80bc44:	20bc002c 	andhi	r2,r4,61440
  80bc48:	1000021e 	bne	r2,zero,80bc54 <__hi0bits+0x2c>
  80bc4c:	2008913a 	slli	r4,r4,4
  80bc50:	18c00104 	addi	r3,r3,4
  80bc54:	20b0002c 	andhi	r2,r4,49152
  80bc58:	1000031e 	bne	r2,zero,80bc68 <__hi0bits+0x40>
  80bc5c:	2105883a 	add	r2,r4,r4
  80bc60:	18c00084 	addi	r3,r3,2
  80bc64:	1089883a 	add	r4,r2,r2
  80bc68:	20000316 	blt	r4,zero,80bc78 <__hi0bits+0x50>
  80bc6c:	2090002c 	andhi	r2,r4,16384
  80bc70:	10000626 	beq	r2,zero,80bc8c <__hi0bits+0x64>
  80bc74:	18c00044 	addi	r3,r3,1
  80bc78:	1805883a 	mov	r2,r3
  80bc7c:	f800283a 	ret
  80bc80:	2008943a 	slli	r4,r4,16
  80bc84:	00c00404 	movi	r3,16
  80bc88:	003fea06 	br	80bc34 <__hi0bits+0xc>
  80bc8c:	00c00804 	movi	r3,32
  80bc90:	1805883a 	mov	r2,r3
  80bc94:	f800283a 	ret

0080bc98 <__lo0bits>:
  80bc98:	20c00017 	ldw	r3,0(r4)
  80bc9c:	188001cc 	andi	r2,r3,7
  80bca0:	10000a26 	beq	r2,zero,80bccc <__lo0bits+0x34>
  80bca4:	1880004c 	andi	r2,r3,1
  80bca8:	1005003a 	cmpeq	r2,r2,zero
  80bcac:	10002126 	beq	r2,zero,80bd34 <__lo0bits+0x9c>
  80bcb0:	1880008c 	andi	r2,r3,2
  80bcb4:	1000251e 	bne	r2,zero,80bd4c <__lo0bits+0xb4>
  80bcb8:	1804d0ba 	srli	r2,r3,2
  80bcbc:	01400084 	movi	r5,2
  80bcc0:	20800015 	stw	r2,0(r4)
  80bcc4:	2805883a 	mov	r2,r5
  80bcc8:	f800283a 	ret
  80bccc:	18bfffcc 	andi	r2,r3,65535
  80bcd0:	10001526 	beq	r2,zero,80bd28 <__lo0bits+0x90>
  80bcd4:	000b883a 	mov	r5,zero
  80bcd8:	18803fcc 	andi	r2,r3,255
  80bcdc:	1000021e 	bne	r2,zero,80bce8 <__lo0bits+0x50>
  80bce0:	1806d23a 	srli	r3,r3,8
  80bce4:	29400204 	addi	r5,r5,8
  80bce8:	188003cc 	andi	r2,r3,15
  80bcec:	1000021e 	bne	r2,zero,80bcf8 <__lo0bits+0x60>
  80bcf0:	1806d13a 	srli	r3,r3,4
  80bcf4:	29400104 	addi	r5,r5,4
  80bcf8:	188000cc 	andi	r2,r3,3
  80bcfc:	1000021e 	bne	r2,zero,80bd08 <__lo0bits+0x70>
  80bd00:	1806d0ba 	srli	r3,r3,2
  80bd04:	29400084 	addi	r5,r5,2
  80bd08:	1880004c 	andi	r2,r3,1
  80bd0c:	1000031e 	bne	r2,zero,80bd1c <__lo0bits+0x84>
  80bd10:	1806d07a 	srli	r3,r3,1
  80bd14:	18000a26 	beq	r3,zero,80bd40 <__lo0bits+0xa8>
  80bd18:	29400044 	addi	r5,r5,1
  80bd1c:	2805883a 	mov	r2,r5
  80bd20:	20c00015 	stw	r3,0(r4)
  80bd24:	f800283a 	ret
  80bd28:	1806d43a 	srli	r3,r3,16
  80bd2c:	01400404 	movi	r5,16
  80bd30:	003fe906 	br	80bcd8 <__lo0bits+0x40>
  80bd34:	000b883a 	mov	r5,zero
  80bd38:	2805883a 	mov	r2,r5
  80bd3c:	f800283a 	ret
  80bd40:	01400804 	movi	r5,32
  80bd44:	2805883a 	mov	r2,r5
  80bd48:	f800283a 	ret
  80bd4c:	1804d07a 	srli	r2,r3,1
  80bd50:	01400044 	movi	r5,1
  80bd54:	20800015 	stw	r2,0(r4)
  80bd58:	003fda06 	br	80bcc4 <__lo0bits+0x2c>

0080bd5c <__mcmp>:
  80bd5c:	20800417 	ldw	r2,16(r4)
  80bd60:	28c00417 	ldw	r3,16(r5)
  80bd64:	10cfc83a 	sub	r7,r2,r3
  80bd68:	38000c1e 	bne	r7,zero,80bd9c <__mcmp+0x40>
  80bd6c:	18c5883a 	add	r2,r3,r3
  80bd70:	1085883a 	add	r2,r2,r2
  80bd74:	10c00504 	addi	r3,r2,20
  80bd78:	21000504 	addi	r4,r4,20
  80bd7c:	28cb883a 	add	r5,r5,r3
  80bd80:	2085883a 	add	r2,r4,r2
  80bd84:	10bfff04 	addi	r2,r2,-4
  80bd88:	297fff04 	addi	r5,r5,-4
  80bd8c:	11800017 	ldw	r6,0(r2)
  80bd90:	28c00017 	ldw	r3,0(r5)
  80bd94:	30c0031e 	bne	r6,r3,80bda4 <__mcmp+0x48>
  80bd98:	20bffa36 	bltu	r4,r2,80bd84 <__mcmp+0x28>
  80bd9c:	3805883a 	mov	r2,r7
  80bda0:	f800283a 	ret
  80bda4:	30c00336 	bltu	r6,r3,80bdb4 <__mcmp+0x58>
  80bda8:	01c00044 	movi	r7,1
  80bdac:	3805883a 	mov	r2,r7
  80bdb0:	f800283a 	ret
  80bdb4:	01ffffc4 	movi	r7,-1
  80bdb8:	003ff806 	br	80bd9c <__mcmp+0x40>

0080bdbc <__ulp>:
  80bdbc:	295ffc2c 	andhi	r5,r5,32752
  80bdc0:	013f3034 	movhi	r4,64704
  80bdc4:	290b883a 	add	r5,r5,r4
  80bdc8:	0145c83a 	sub	r2,zero,r5
  80bdcc:	1007d53a 	srai	r3,r2,20
  80bdd0:	000d883a 	mov	r6,zero
  80bdd4:	0140040e 	bge	zero,r5,80bde8 <__ulp+0x2c>
  80bdd8:	280f883a 	mov	r7,r5
  80bddc:	3807883a 	mov	r3,r7
  80bde0:	3005883a 	mov	r2,r6
  80bde4:	f800283a 	ret
  80bde8:	008004c4 	movi	r2,19
  80bdec:	193ffb04 	addi	r4,r3,-20
  80bdf0:	10c00c0e 	bge	r2,r3,80be24 <__ulp+0x68>
  80bdf4:	008007c4 	movi	r2,31
  80bdf8:	1107c83a 	sub	r3,r2,r4
  80bdfc:	00800784 	movi	r2,30
  80be00:	01400044 	movi	r5,1
  80be04:	11000216 	blt	r2,r4,80be10 <__ulp+0x54>
  80be08:	00800044 	movi	r2,1
  80be0c:	10ca983a 	sll	r5,r2,r3
  80be10:	000f883a 	mov	r7,zero
  80be14:	280d883a 	mov	r6,r5
  80be18:	3807883a 	mov	r3,r7
  80be1c:	3005883a 	mov	r2,r6
  80be20:	f800283a 	ret
  80be24:	00800234 	movhi	r2,8
  80be28:	10cfd83a 	sra	r7,r2,r3
  80be2c:	000d883a 	mov	r6,zero
  80be30:	3005883a 	mov	r2,r6
  80be34:	3807883a 	mov	r3,r7
  80be38:	f800283a 	ret

0080be3c <__b2d>:
  80be3c:	20800417 	ldw	r2,16(r4)
  80be40:	defff904 	addi	sp,sp,-28
  80be44:	dd000415 	stw	r20,16(sp)
  80be48:	1085883a 	add	r2,r2,r2
  80be4c:	25000504 	addi	r20,r4,20
  80be50:	1085883a 	add	r2,r2,r2
  80be54:	dc000015 	stw	r16,0(sp)
  80be58:	a0a1883a 	add	r16,r20,r2
  80be5c:	dd400515 	stw	r21,20(sp)
  80be60:	857fff17 	ldw	r21,-4(r16)
  80be64:	dc400115 	stw	r17,4(sp)
  80be68:	dfc00615 	stw	ra,24(sp)
  80be6c:	a809883a 	mov	r4,r21
  80be70:	2823883a 	mov	r17,r5
  80be74:	dcc00315 	stw	r19,12(sp)
  80be78:	dc800215 	stw	r18,8(sp)
  80be7c:	080bc280 	call	80bc28 <__hi0bits>
  80be80:	100b883a 	mov	r5,r2
  80be84:	00800804 	movi	r2,32
  80be88:	1145c83a 	sub	r2,r2,r5
  80be8c:	88800015 	stw	r2,0(r17)
  80be90:	00800284 	movi	r2,10
  80be94:	80ffff04 	addi	r3,r16,-4
  80be98:	11401416 	blt	r2,r5,80beec <__b2d+0xb0>
  80be9c:	008002c4 	movi	r2,11
  80bea0:	1149c83a 	sub	r4,r2,r5
  80bea4:	a0c02736 	bltu	r20,r3,80bf44 <__b2d+0x108>
  80bea8:	000d883a 	mov	r6,zero
  80beac:	28800544 	addi	r2,r5,21
  80beb0:	a906d83a 	srl	r3,r21,r4
  80beb4:	a884983a 	sll	r2,r21,r2
  80beb8:	1ccffc34 	orhi	r19,r3,16368
  80bebc:	11a4b03a 	or	r18,r2,r6
  80bec0:	9005883a 	mov	r2,r18
  80bec4:	9807883a 	mov	r3,r19
  80bec8:	dfc00617 	ldw	ra,24(sp)
  80becc:	dd400517 	ldw	r21,20(sp)
  80bed0:	dd000417 	ldw	r20,16(sp)
  80bed4:	dcc00317 	ldw	r19,12(sp)
  80bed8:	dc800217 	ldw	r18,8(sp)
  80bedc:	dc400117 	ldw	r17,4(sp)
  80bee0:	dc000017 	ldw	r16,0(sp)
  80bee4:	dec00704 	addi	sp,sp,28
  80bee8:	f800283a 	ret
  80beec:	a0c00e36 	bltu	r20,r3,80bf28 <__b2d+0xec>
  80bef0:	293ffd44 	addi	r4,r5,-11
  80bef4:	000d883a 	mov	r6,zero
  80bef8:	20000f26 	beq	r4,zero,80bf38 <__b2d+0xfc>
  80befc:	00800804 	movi	r2,32
  80bf00:	110bc83a 	sub	r5,r2,r4
  80bf04:	a0c01236 	bltu	r20,r3,80bf50 <__b2d+0x114>
  80bf08:	000f883a 	mov	r7,zero
  80bf0c:	a904983a 	sll	r2,r21,r4
  80bf10:	3146d83a 	srl	r3,r6,r5
  80bf14:	3108983a 	sll	r4,r6,r4
  80bf18:	108ffc34 	orhi	r2,r2,16368
  80bf1c:	18a6b03a 	or	r19,r3,r2
  80bf20:	3924b03a 	or	r18,r7,r4
  80bf24:	003fe606 	br	80bec0 <__b2d+0x84>
  80bf28:	293ffd44 	addi	r4,r5,-11
  80bf2c:	81bffe17 	ldw	r6,-8(r16)
  80bf30:	80fffe04 	addi	r3,r16,-8
  80bf34:	203ff11e 	bne	r4,zero,80befc <__b2d+0xc0>
  80bf38:	accffc34 	orhi	r19,r21,16368
  80bf3c:	3025883a 	mov	r18,r6
  80bf40:	003fdf06 	br	80bec0 <__b2d+0x84>
  80bf44:	18bfff17 	ldw	r2,-4(r3)
  80bf48:	110cd83a 	srl	r6,r2,r4
  80bf4c:	003fd706 	br	80beac <__b2d+0x70>
  80bf50:	18bfff17 	ldw	r2,-4(r3)
  80bf54:	114ed83a 	srl	r7,r2,r5
  80bf58:	003fec06 	br	80bf0c <__b2d+0xd0>

0080bf5c <__ratio>:
  80bf5c:	defff904 	addi	sp,sp,-28
  80bf60:	dc400215 	stw	r17,8(sp)
  80bf64:	2823883a 	mov	r17,r5
  80bf68:	d80b883a 	mov	r5,sp
  80bf6c:	dfc00615 	stw	ra,24(sp)
  80bf70:	dd000515 	stw	r20,20(sp)
  80bf74:	dcc00415 	stw	r19,16(sp)
  80bf78:	dc800315 	stw	r18,12(sp)
  80bf7c:	2025883a 	mov	r18,r4
  80bf80:	080be3c0 	call	80be3c <__b2d>
  80bf84:	8809883a 	mov	r4,r17
  80bf88:	d9400104 	addi	r5,sp,4
  80bf8c:	1027883a 	mov	r19,r2
  80bf90:	1829883a 	mov	r20,r3
  80bf94:	080be3c0 	call	80be3c <__b2d>
  80bf98:	89000417 	ldw	r4,16(r17)
  80bf9c:	91c00417 	ldw	r7,16(r18)
  80bfa0:	d9800117 	ldw	r6,4(sp)
  80bfa4:	180b883a 	mov	r5,r3
  80bfa8:	390fc83a 	sub	r7,r7,r4
  80bfac:	1009883a 	mov	r4,r2
  80bfb0:	d8800017 	ldw	r2,0(sp)
  80bfb4:	380e917a 	slli	r7,r7,5
  80bfb8:	2011883a 	mov	r8,r4
  80bfbc:	1185c83a 	sub	r2,r2,r6
  80bfc0:	11c5883a 	add	r2,r2,r7
  80bfc4:	1006953a 	slli	r3,r2,20
  80bfc8:	2813883a 	mov	r9,r5
  80bfcc:	00800d0e 	bge	zero,r2,80c004 <__ratio+0xa8>
  80bfd0:	1d29883a 	add	r20,r3,r20
  80bfd4:	a00b883a 	mov	r5,r20
  80bfd8:	480f883a 	mov	r7,r9
  80bfdc:	9809883a 	mov	r4,r19
  80bfe0:	400d883a 	mov	r6,r8
  80bfe4:	080edd80 	call	80edd8 <__divdf3>
  80bfe8:	dfc00617 	ldw	ra,24(sp)
  80bfec:	dd000517 	ldw	r20,20(sp)
  80bff0:	dcc00417 	ldw	r19,16(sp)
  80bff4:	dc800317 	ldw	r18,12(sp)
  80bff8:	dc400217 	ldw	r17,8(sp)
  80bffc:	dec00704 	addi	sp,sp,28
  80c000:	f800283a 	ret
  80c004:	28d3c83a 	sub	r9,r5,r3
  80c008:	003ff206 	br	80bfd4 <__ratio+0x78>

0080c00c <_mprec_log10>:
  80c00c:	defffe04 	addi	sp,sp,-8
  80c010:	008005c4 	movi	r2,23
  80c014:	dc000015 	stw	r16,0(sp)
  80c018:	dfc00115 	stw	ra,4(sp)
  80c01c:	2021883a 	mov	r16,r4
  80c020:	11000c16 	blt	r2,r4,80c054 <_mprec_log10+0x48>
  80c024:	200490fa 	slli	r2,r4,3
  80c028:	00c02074 	movhi	r3,129
  80c02c:	18cd1104 	addi	r3,r3,13380
  80c030:	10c5883a 	add	r2,r2,r3
  80c034:	12400117 	ldw	r9,4(r2)
  80c038:	12000017 	ldw	r8,0(r2)
  80c03c:	4807883a 	mov	r3,r9
  80c040:	4005883a 	mov	r2,r8
  80c044:	dfc00117 	ldw	ra,4(sp)
  80c048:	dc000017 	ldw	r16,0(sp)
  80c04c:	dec00204 	addi	sp,sp,8
  80c050:	f800283a 	ret
  80c054:	0011883a 	mov	r8,zero
  80c058:	024ffc34 	movhi	r9,16368
  80c05c:	0005883a 	mov	r2,zero
  80c060:	00d00934 	movhi	r3,16420
  80c064:	480b883a 	mov	r5,r9
  80c068:	4009883a 	mov	r4,r8
  80c06c:	180f883a 	mov	r7,r3
  80c070:	100d883a 	mov	r6,r2
  80c074:	080ea140 	call	80ea14 <__muldf3>
  80c078:	843fffc4 	addi	r16,r16,-1
  80c07c:	1011883a 	mov	r8,r2
  80c080:	1813883a 	mov	r9,r3
  80c084:	803ff51e 	bne	r16,zero,80c05c <_mprec_log10+0x50>
  80c088:	4005883a 	mov	r2,r8
  80c08c:	4807883a 	mov	r3,r9
  80c090:	dfc00117 	ldw	ra,4(sp)
  80c094:	dc000017 	ldw	r16,0(sp)
  80c098:	dec00204 	addi	sp,sp,8
  80c09c:	f800283a 	ret

0080c0a0 <__copybits>:
  80c0a0:	297fffc4 	addi	r5,r5,-1
  80c0a4:	30800417 	ldw	r2,16(r6)
  80c0a8:	280bd17a 	srai	r5,r5,5
  80c0ac:	31800504 	addi	r6,r6,20
  80c0b0:	1085883a 	add	r2,r2,r2
  80c0b4:	294b883a 	add	r5,r5,r5
  80c0b8:	294b883a 	add	r5,r5,r5
  80c0bc:	1085883a 	add	r2,r2,r2
  80c0c0:	290b883a 	add	r5,r5,r4
  80c0c4:	3087883a 	add	r3,r6,r2
  80c0c8:	29400104 	addi	r5,r5,4
  80c0cc:	30c0052e 	bgeu	r6,r3,80c0e4 <__copybits+0x44>
  80c0d0:	30800017 	ldw	r2,0(r6)
  80c0d4:	31800104 	addi	r6,r6,4
  80c0d8:	20800015 	stw	r2,0(r4)
  80c0dc:	21000104 	addi	r4,r4,4
  80c0e0:	30fffb36 	bltu	r6,r3,80c0d0 <__copybits+0x30>
  80c0e4:	2140032e 	bgeu	r4,r5,80c0f4 <__copybits+0x54>
  80c0e8:	20000015 	stw	zero,0(r4)
  80c0ec:	21000104 	addi	r4,r4,4
  80c0f0:	217ffd36 	bltu	r4,r5,80c0e8 <__copybits+0x48>
  80c0f4:	f800283a 	ret

0080c0f8 <__any_on>:
  80c0f8:	20800417 	ldw	r2,16(r4)
  80c0fc:	2807d17a 	srai	r3,r5,5
  80c100:	21000504 	addi	r4,r4,20
  80c104:	10c00d0e 	bge	r2,r3,80c13c <__any_on+0x44>
  80c108:	1085883a 	add	r2,r2,r2
  80c10c:	1085883a 	add	r2,r2,r2
  80c110:	208d883a 	add	r6,r4,r2
  80c114:	2180182e 	bgeu	r4,r6,80c178 <__any_on+0x80>
  80c118:	30bfff17 	ldw	r2,-4(r6)
  80c11c:	30ffff04 	addi	r3,r6,-4
  80c120:	1000041e 	bne	r2,zero,80c134 <__any_on+0x3c>
  80c124:	20c0142e 	bgeu	r4,r3,80c178 <__any_on+0x80>
  80c128:	18ffff04 	addi	r3,r3,-4
  80c12c:	18800017 	ldw	r2,0(r3)
  80c130:	103ffc26 	beq	r2,zero,80c124 <__any_on+0x2c>
  80c134:	00800044 	movi	r2,1
  80c138:	f800283a 	ret
  80c13c:	18800a0e 	bge	r3,r2,80c168 <__any_on+0x70>
  80c140:	294007cc 	andi	r5,r5,31
  80c144:	28000826 	beq	r5,zero,80c168 <__any_on+0x70>
  80c148:	18c5883a 	add	r2,r3,r3
  80c14c:	1085883a 	add	r2,r2,r2
  80c150:	208d883a 	add	r6,r4,r2
  80c154:	30c00017 	ldw	r3,0(r6)
  80c158:	1944d83a 	srl	r2,r3,r5
  80c15c:	1144983a 	sll	r2,r2,r5
  80c160:	18bff41e 	bne	r3,r2,80c134 <__any_on+0x3c>
  80c164:	003feb06 	br	80c114 <__any_on+0x1c>
  80c168:	18c5883a 	add	r2,r3,r3
  80c16c:	1085883a 	add	r2,r2,r2
  80c170:	208d883a 	add	r6,r4,r2
  80c174:	003fe706 	br	80c114 <__any_on+0x1c>
  80c178:	0005883a 	mov	r2,zero
  80c17c:	f800283a 	ret

0080c180 <_Balloc>:
  80c180:	20c01317 	ldw	r3,76(r4)
  80c184:	defffb04 	addi	sp,sp,-20
  80c188:	dcc00315 	stw	r19,12(sp)
  80c18c:	dc800215 	stw	r18,8(sp)
  80c190:	dfc00415 	stw	ra,16(sp)
  80c194:	2825883a 	mov	r18,r5
  80c198:	dc400115 	stw	r17,4(sp)
  80c19c:	dc000015 	stw	r16,0(sp)
  80c1a0:	2027883a 	mov	r19,r4
  80c1a4:	01800404 	movi	r6,16
  80c1a8:	01400104 	movi	r5,4
  80c1ac:	18001726 	beq	r3,zero,80c20c <_Balloc+0x8c>
  80c1b0:	01400044 	movi	r5,1
  80c1b4:	9485883a 	add	r2,r18,r18
  80c1b8:	2ca2983a 	sll	r17,r5,r18
  80c1bc:	1085883a 	add	r2,r2,r2
  80c1c0:	10c7883a 	add	r3,r2,r3
  80c1c4:	1c000017 	ldw	r16,0(r3)
  80c1c8:	8c4d883a 	add	r6,r17,r17
  80c1cc:	318d883a 	add	r6,r6,r6
  80c1d0:	9809883a 	mov	r4,r19
  80c1d4:	31800504 	addi	r6,r6,20
  80c1d8:	80001226 	beq	r16,zero,80c224 <_Balloc+0xa4>
  80c1dc:	80800017 	ldw	r2,0(r16)
  80c1e0:	18800015 	stw	r2,0(r3)
  80c1e4:	80000415 	stw	zero,16(r16)
  80c1e8:	80000315 	stw	zero,12(r16)
  80c1ec:	8005883a 	mov	r2,r16
  80c1f0:	dfc00417 	ldw	ra,16(sp)
  80c1f4:	dcc00317 	ldw	r19,12(sp)
  80c1f8:	dc800217 	ldw	r18,8(sp)
  80c1fc:	dc400117 	ldw	r17,4(sp)
  80c200:	dc000017 	ldw	r16,0(sp)
  80c204:	dec00504 	addi	sp,sp,20
  80c208:	f800283a 	ret
  80c20c:	080d9180 	call	80d918 <_calloc_r>
  80c210:	1007883a 	mov	r3,r2
  80c214:	0021883a 	mov	r16,zero
  80c218:	98801315 	stw	r2,76(r19)
  80c21c:	103fe41e 	bne	r2,zero,80c1b0 <_Balloc+0x30>
  80c220:	003ff206 	br	80c1ec <_Balloc+0x6c>
  80c224:	080d9180 	call	80d918 <_calloc_r>
  80c228:	103ff026 	beq	r2,zero,80c1ec <_Balloc+0x6c>
  80c22c:	1021883a 	mov	r16,r2
  80c230:	14800115 	stw	r18,4(r2)
  80c234:	14400215 	stw	r17,8(r2)
  80c238:	003fea06 	br	80c1e4 <_Balloc+0x64>

0080c23c <__d2b>:
  80c23c:	defff504 	addi	sp,sp,-44
  80c240:	dcc00515 	stw	r19,20(sp)
  80c244:	04c00044 	movi	r19,1
  80c248:	dc000215 	stw	r16,8(sp)
  80c24c:	2821883a 	mov	r16,r5
  80c250:	980b883a 	mov	r5,r19
  80c254:	ddc00915 	stw	r23,36(sp)
  80c258:	dd800815 	stw	r22,32(sp)
  80c25c:	dd400715 	stw	r21,28(sp)
  80c260:	dd000615 	stw	r20,24(sp)
  80c264:	dc800415 	stw	r18,16(sp)
  80c268:	dc400315 	stw	r17,12(sp)
  80c26c:	dfc00a15 	stw	ra,40(sp)
  80c270:	3023883a 	mov	r17,r6
  80c274:	382d883a 	mov	r22,r7
  80c278:	ddc00b17 	ldw	r23,44(sp)
  80c27c:	080c1800 	call	80c180 <_Balloc>
  80c280:	1025883a 	mov	r18,r2
  80c284:	00a00034 	movhi	r2,32768
  80c288:	10bfffc4 	addi	r2,r2,-1
  80c28c:	8888703a 	and	r4,r17,r2
  80c290:	202ad53a 	srli	r21,r4,20
  80c294:	00800434 	movhi	r2,16
  80c298:	10bfffc4 	addi	r2,r2,-1
  80c29c:	8886703a 	and	r3,r17,r2
  80c2a0:	a829003a 	cmpeq	r20,r21,zero
  80c2a4:	800b883a 	mov	r5,r16
  80c2a8:	d8c00115 	stw	r3,4(sp)
  80c2ac:	94000504 	addi	r16,r18,20
  80c2b0:	a000021e 	bne	r20,zero,80c2bc <__d2b+0x80>
  80c2b4:	18c00434 	orhi	r3,r3,16
  80c2b8:	d8c00115 	stw	r3,4(sp)
  80c2bc:	28002726 	beq	r5,zero,80c35c <__d2b+0x120>
  80c2c0:	d809883a 	mov	r4,sp
  80c2c4:	d9400015 	stw	r5,0(sp)
  80c2c8:	080bc980 	call	80bc98 <__lo0bits>
  80c2cc:	100d883a 	mov	r6,r2
  80c2d0:	10003526 	beq	r2,zero,80c3a8 <__d2b+0x16c>
  80c2d4:	d8c00117 	ldw	r3,4(sp)
  80c2d8:	00800804 	movi	r2,32
  80c2dc:	1185c83a 	sub	r2,r2,r6
  80c2e0:	d9000017 	ldw	r4,0(sp)
  80c2e4:	1886983a 	sll	r3,r3,r2
  80c2e8:	1906b03a 	or	r3,r3,r4
  80c2ec:	90c00515 	stw	r3,20(r18)
  80c2f0:	d8c00117 	ldw	r3,4(sp)
  80c2f4:	1986d83a 	srl	r3,r3,r6
  80c2f8:	d8c00115 	stw	r3,4(sp)
  80c2fc:	180b003a 	cmpeq	r5,r3,zero
  80c300:	00800084 	movi	r2,2
  80c304:	114bc83a 	sub	r5,r2,r5
  80c308:	80c00115 	stw	r3,4(r16)
  80c30c:	91400415 	stw	r5,16(r18)
  80c310:	a0001a1e 	bne	r20,zero,80c37c <__d2b+0x140>
  80c314:	3545883a 	add	r2,r6,r21
  80c318:	10bef344 	addi	r2,r2,-1075
  80c31c:	00c00d44 	movi	r3,53
  80c320:	b0800015 	stw	r2,0(r22)
  80c324:	1987c83a 	sub	r3,r3,r6
  80c328:	b8c00015 	stw	r3,0(r23)
  80c32c:	9005883a 	mov	r2,r18
  80c330:	dfc00a17 	ldw	ra,40(sp)
  80c334:	ddc00917 	ldw	r23,36(sp)
  80c338:	dd800817 	ldw	r22,32(sp)
  80c33c:	dd400717 	ldw	r21,28(sp)
  80c340:	dd000617 	ldw	r20,24(sp)
  80c344:	dcc00517 	ldw	r19,20(sp)
  80c348:	dc800417 	ldw	r18,16(sp)
  80c34c:	dc400317 	ldw	r17,12(sp)
  80c350:	dc000217 	ldw	r16,8(sp)
  80c354:	dec00b04 	addi	sp,sp,44
  80c358:	f800283a 	ret
  80c35c:	d9000104 	addi	r4,sp,4
  80c360:	080bc980 	call	80bc98 <__lo0bits>
  80c364:	11800804 	addi	r6,r2,32
  80c368:	d8800117 	ldw	r2,4(sp)
  80c36c:	94c00415 	stw	r19,16(r18)
  80c370:	980b883a 	mov	r5,r19
  80c374:	90800515 	stw	r2,20(r18)
  80c378:	a03fe626 	beq	r20,zero,80c314 <__d2b+0xd8>
  80c37c:	2945883a 	add	r2,r5,r5
  80c380:	1085883a 	add	r2,r2,r2
  80c384:	1405883a 	add	r2,r2,r16
  80c388:	113fff17 	ldw	r4,-4(r2)
  80c38c:	30fef384 	addi	r3,r6,-1074
  80c390:	2820917a 	slli	r16,r5,5
  80c394:	b0c00015 	stw	r3,0(r22)
  80c398:	080bc280 	call	80bc28 <__hi0bits>
  80c39c:	80a1c83a 	sub	r16,r16,r2
  80c3a0:	bc000015 	stw	r16,0(r23)
  80c3a4:	003fe106 	br	80c32c <__d2b+0xf0>
  80c3a8:	d8800017 	ldw	r2,0(sp)
  80c3ac:	90800515 	stw	r2,20(r18)
  80c3b0:	d8c00117 	ldw	r3,4(sp)
  80c3b4:	003fd106 	br	80c2fc <__d2b+0xc0>

0080c3b8 <__mdiff>:
  80c3b8:	defffb04 	addi	sp,sp,-20
  80c3bc:	dc000015 	stw	r16,0(sp)
  80c3c0:	2821883a 	mov	r16,r5
  80c3c4:	dc800215 	stw	r18,8(sp)
  80c3c8:	300b883a 	mov	r5,r6
  80c3cc:	2025883a 	mov	r18,r4
  80c3d0:	8009883a 	mov	r4,r16
  80c3d4:	dc400115 	stw	r17,4(sp)
  80c3d8:	dfc00415 	stw	ra,16(sp)
  80c3dc:	dcc00315 	stw	r19,12(sp)
  80c3e0:	3023883a 	mov	r17,r6
  80c3e4:	080bd5c0 	call	80bd5c <__mcmp>
  80c3e8:	10004226 	beq	r2,zero,80c4f4 <__mdiff+0x13c>
  80c3ec:	10005016 	blt	r2,zero,80c530 <__mdiff+0x178>
  80c3f0:	0027883a 	mov	r19,zero
  80c3f4:	81400117 	ldw	r5,4(r16)
  80c3f8:	9009883a 	mov	r4,r18
  80c3fc:	080c1800 	call	80c180 <_Balloc>
  80c400:	1019883a 	mov	r12,r2
  80c404:	82800417 	ldw	r10,16(r16)
  80c408:	88800417 	ldw	r2,16(r17)
  80c40c:	81800504 	addi	r6,r16,20
  80c410:	5287883a 	add	r3,r10,r10
  80c414:	1085883a 	add	r2,r2,r2
  80c418:	18c7883a 	add	r3,r3,r3
  80c41c:	1085883a 	add	r2,r2,r2
  80c420:	8a000504 	addi	r8,r17,20
  80c424:	64c00315 	stw	r19,12(r12)
  80c428:	30db883a 	add	r13,r6,r3
  80c42c:	4097883a 	add	r11,r8,r2
  80c430:	61c00504 	addi	r7,r12,20
  80c434:	0013883a 	mov	r9,zero
  80c438:	31000017 	ldw	r4,0(r6)
  80c43c:	41400017 	ldw	r5,0(r8)
  80c440:	42000104 	addi	r8,r8,4
  80c444:	20bfffcc 	andi	r2,r4,65535
  80c448:	28ffffcc 	andi	r3,r5,65535
  80c44c:	10c5c83a 	sub	r2,r2,r3
  80c450:	1245883a 	add	r2,r2,r9
  80c454:	2008d43a 	srli	r4,r4,16
  80c458:	280ad43a 	srli	r5,r5,16
  80c45c:	1007d43a 	srai	r3,r2,16
  80c460:	3880000d 	sth	r2,0(r7)
  80c464:	2149c83a 	sub	r4,r4,r5
  80c468:	20c9883a 	add	r4,r4,r3
  80c46c:	3900008d 	sth	r4,2(r7)
  80c470:	31800104 	addi	r6,r6,4
  80c474:	39c00104 	addi	r7,r7,4
  80c478:	2013d43a 	srai	r9,r4,16
  80c47c:	42ffee36 	bltu	r8,r11,80c438 <__mdiff+0x80>
  80c480:	33400c2e 	bgeu	r6,r13,80c4b4 <__mdiff+0xfc>
  80c484:	30800017 	ldw	r2,0(r6)
  80c488:	31800104 	addi	r6,r6,4
  80c48c:	10ffffcc 	andi	r3,r2,65535
  80c490:	1a47883a 	add	r3,r3,r9
  80c494:	1004d43a 	srli	r2,r2,16
  80c498:	1809d43a 	srai	r4,r3,16
  80c49c:	38c0000d 	sth	r3,0(r7)
  80c4a0:	1105883a 	add	r2,r2,r4
  80c4a4:	3880008d 	sth	r2,2(r7)
  80c4a8:	1013d43a 	srai	r9,r2,16
  80c4ac:	39c00104 	addi	r7,r7,4
  80c4b0:	337ff436 	bltu	r6,r13,80c484 <__mdiff+0xcc>
  80c4b4:	38bfff17 	ldw	r2,-4(r7)
  80c4b8:	38ffff04 	addi	r3,r7,-4
  80c4bc:	1000041e 	bne	r2,zero,80c4d0 <__mdiff+0x118>
  80c4c0:	18ffff04 	addi	r3,r3,-4
  80c4c4:	18800017 	ldw	r2,0(r3)
  80c4c8:	52bfffc4 	addi	r10,r10,-1
  80c4cc:	103ffc26 	beq	r2,zero,80c4c0 <__mdiff+0x108>
  80c4d0:	6005883a 	mov	r2,r12
  80c4d4:	62800415 	stw	r10,16(r12)
  80c4d8:	dfc00417 	ldw	ra,16(sp)
  80c4dc:	dcc00317 	ldw	r19,12(sp)
  80c4e0:	dc800217 	ldw	r18,8(sp)
  80c4e4:	dc400117 	ldw	r17,4(sp)
  80c4e8:	dc000017 	ldw	r16,0(sp)
  80c4ec:	dec00504 	addi	sp,sp,20
  80c4f0:	f800283a 	ret
  80c4f4:	9009883a 	mov	r4,r18
  80c4f8:	000b883a 	mov	r5,zero
  80c4fc:	080c1800 	call	80c180 <_Balloc>
  80c500:	1019883a 	mov	r12,r2
  80c504:	00800044 	movi	r2,1
  80c508:	60800415 	stw	r2,16(r12)
  80c50c:	6005883a 	mov	r2,r12
  80c510:	60000515 	stw	zero,20(r12)
  80c514:	dfc00417 	ldw	ra,16(sp)
  80c518:	dcc00317 	ldw	r19,12(sp)
  80c51c:	dc800217 	ldw	r18,8(sp)
  80c520:	dc400117 	ldw	r17,4(sp)
  80c524:	dc000017 	ldw	r16,0(sp)
  80c528:	dec00504 	addi	sp,sp,20
  80c52c:	f800283a 	ret
  80c530:	880d883a 	mov	r6,r17
  80c534:	04c00044 	movi	r19,1
  80c538:	8023883a 	mov	r17,r16
  80c53c:	3021883a 	mov	r16,r6
  80c540:	003fac06 	br	80c3f4 <__mdiff+0x3c>

0080c544 <__lshift>:
  80c544:	defff904 	addi	sp,sp,-28
  80c548:	28800417 	ldw	r2,16(r5)
  80c54c:	dc000015 	stw	r16,0(sp)
  80c550:	3021d17a 	srai	r16,r6,5
  80c554:	28c00217 	ldw	r3,8(r5)
  80c558:	10800044 	addi	r2,r2,1
  80c55c:	dc400115 	stw	r17,4(sp)
  80c560:	80a3883a 	add	r17,r16,r2
  80c564:	dd400515 	stw	r21,20(sp)
  80c568:	dd000415 	stw	r20,16(sp)
  80c56c:	dc800215 	stw	r18,8(sp)
  80c570:	dfc00615 	stw	ra,24(sp)
  80c574:	2825883a 	mov	r18,r5
  80c578:	dcc00315 	stw	r19,12(sp)
  80c57c:	3029883a 	mov	r20,r6
  80c580:	202b883a 	mov	r21,r4
  80c584:	29400117 	ldw	r5,4(r5)
  80c588:	1c40030e 	bge	r3,r17,80c598 <__lshift+0x54>
  80c58c:	18c7883a 	add	r3,r3,r3
  80c590:	29400044 	addi	r5,r5,1
  80c594:	1c7ffd16 	blt	r3,r17,80c58c <__lshift+0x48>
  80c598:	a809883a 	mov	r4,r21
  80c59c:	080c1800 	call	80c180 <_Balloc>
  80c5a0:	1027883a 	mov	r19,r2
  80c5a4:	11400504 	addi	r5,r2,20
  80c5a8:	0400090e 	bge	zero,r16,80c5d0 <__lshift+0x8c>
  80c5ac:	2805883a 	mov	r2,r5
  80c5b0:	0007883a 	mov	r3,zero
  80c5b4:	18c00044 	addi	r3,r3,1
  80c5b8:	10000015 	stw	zero,0(r2)
  80c5bc:	10800104 	addi	r2,r2,4
  80c5c0:	80fffc1e 	bne	r16,r3,80c5b4 <__lshift+0x70>
  80c5c4:	8405883a 	add	r2,r16,r16
  80c5c8:	1085883a 	add	r2,r2,r2
  80c5cc:	288b883a 	add	r5,r5,r2
  80c5d0:	90800417 	ldw	r2,16(r18)
  80c5d4:	91000504 	addi	r4,r18,20
  80c5d8:	a18007cc 	andi	r6,r20,31
  80c5dc:	1085883a 	add	r2,r2,r2
  80c5e0:	1085883a 	add	r2,r2,r2
  80c5e4:	208f883a 	add	r7,r4,r2
  80c5e8:	30001e26 	beq	r6,zero,80c664 <__lshift+0x120>
  80c5ec:	00800804 	movi	r2,32
  80c5f0:	1191c83a 	sub	r8,r2,r6
  80c5f4:	0007883a 	mov	r3,zero
  80c5f8:	20800017 	ldw	r2,0(r4)
  80c5fc:	1184983a 	sll	r2,r2,r6
  80c600:	1884b03a 	or	r2,r3,r2
  80c604:	28800015 	stw	r2,0(r5)
  80c608:	20c00017 	ldw	r3,0(r4)
  80c60c:	21000104 	addi	r4,r4,4
  80c610:	29400104 	addi	r5,r5,4
  80c614:	1a06d83a 	srl	r3,r3,r8
  80c618:	21fff736 	bltu	r4,r7,80c5f8 <__lshift+0xb4>
  80c61c:	28c00015 	stw	r3,0(r5)
  80c620:	18000126 	beq	r3,zero,80c628 <__lshift+0xe4>
  80c624:	8c400044 	addi	r17,r17,1
  80c628:	88bfffc4 	addi	r2,r17,-1
  80c62c:	98800415 	stw	r2,16(r19)
  80c630:	a809883a 	mov	r4,r21
  80c634:	900b883a 	mov	r5,r18
  80c638:	080bc000 	call	80bc00 <_Bfree>
  80c63c:	9805883a 	mov	r2,r19
  80c640:	dfc00617 	ldw	ra,24(sp)
  80c644:	dd400517 	ldw	r21,20(sp)
  80c648:	dd000417 	ldw	r20,16(sp)
  80c64c:	dcc00317 	ldw	r19,12(sp)
  80c650:	dc800217 	ldw	r18,8(sp)
  80c654:	dc400117 	ldw	r17,4(sp)
  80c658:	dc000017 	ldw	r16,0(sp)
  80c65c:	dec00704 	addi	sp,sp,28
  80c660:	f800283a 	ret
  80c664:	20800017 	ldw	r2,0(r4)
  80c668:	21000104 	addi	r4,r4,4
  80c66c:	28800015 	stw	r2,0(r5)
  80c670:	29400104 	addi	r5,r5,4
  80c674:	21ffec2e 	bgeu	r4,r7,80c628 <__lshift+0xe4>
  80c678:	20800017 	ldw	r2,0(r4)
  80c67c:	21000104 	addi	r4,r4,4
  80c680:	28800015 	stw	r2,0(r5)
  80c684:	29400104 	addi	r5,r5,4
  80c688:	21fff636 	bltu	r4,r7,80c664 <__lshift+0x120>
  80c68c:	003fe606 	br	80c628 <__lshift+0xe4>

0080c690 <__multiply>:
  80c690:	defff004 	addi	sp,sp,-64
  80c694:	dc800815 	stw	r18,32(sp)
  80c698:	dc400715 	stw	r17,28(sp)
  80c69c:	2c800417 	ldw	r18,16(r5)
  80c6a0:	34400417 	ldw	r17,16(r6)
  80c6a4:	dcc00915 	stw	r19,36(sp)
  80c6a8:	dc000615 	stw	r16,24(sp)
  80c6ac:	dfc00f15 	stw	ra,60(sp)
  80c6b0:	df000e15 	stw	fp,56(sp)
  80c6b4:	ddc00d15 	stw	r23,52(sp)
  80c6b8:	dd800c15 	stw	r22,48(sp)
  80c6bc:	dd400b15 	stw	r21,44(sp)
  80c6c0:	dd000a15 	stw	r20,40(sp)
  80c6c4:	2821883a 	mov	r16,r5
  80c6c8:	3027883a 	mov	r19,r6
  80c6cc:	9440040e 	bge	r18,r17,80c6e0 <__multiply+0x50>
  80c6d0:	8825883a 	mov	r18,r17
  80c6d4:	2c400417 	ldw	r17,16(r5)
  80c6d8:	2827883a 	mov	r19,r5
  80c6dc:	3021883a 	mov	r16,r6
  80c6e0:	80800217 	ldw	r2,8(r16)
  80c6e4:	9447883a 	add	r3,r18,r17
  80c6e8:	d8c00415 	stw	r3,16(sp)
  80c6ec:	81400117 	ldw	r5,4(r16)
  80c6f0:	10c0010e 	bge	r2,r3,80c6f8 <__multiply+0x68>
  80c6f4:	29400044 	addi	r5,r5,1
  80c6f8:	080c1800 	call	80c180 <_Balloc>
  80c6fc:	d8800515 	stw	r2,20(sp)
  80c700:	d9000417 	ldw	r4,16(sp)
  80c704:	d8c00517 	ldw	r3,20(sp)
  80c708:	2105883a 	add	r2,r4,r4
  80c70c:	1085883a 	add	r2,r2,r2
  80c710:	19000504 	addi	r4,r3,20
  80c714:	2085883a 	add	r2,r4,r2
  80c718:	d8800315 	stw	r2,12(sp)
  80c71c:	2080052e 	bgeu	r4,r2,80c734 <__multiply+0xa4>
  80c720:	2005883a 	mov	r2,r4
  80c724:	d8c00317 	ldw	r3,12(sp)
  80c728:	10000015 	stw	zero,0(r2)
  80c72c:	10800104 	addi	r2,r2,4
  80c730:	10fffc36 	bltu	r2,r3,80c724 <__multiply+0x94>
  80c734:	8c45883a 	add	r2,r17,r17
  80c738:	9487883a 	add	r3,r18,r18
  80c73c:	9dc00504 	addi	r23,r19,20
  80c740:	1085883a 	add	r2,r2,r2
  80c744:	84000504 	addi	r16,r16,20
  80c748:	18c7883a 	add	r3,r3,r3
  80c74c:	b885883a 	add	r2,r23,r2
  80c750:	dc000015 	stw	r16,0(sp)
  80c754:	d8800215 	stw	r2,8(sp)
  80c758:	80f9883a 	add	fp,r16,r3
  80c75c:	b880432e 	bgeu	r23,r2,80c86c <__multiply+0x1dc>
  80c760:	d9000115 	stw	r4,4(sp)
  80c764:	b9000017 	ldw	r4,0(r23)
  80c768:	253fffcc 	andi	r20,r4,65535
  80c76c:	a0001a26 	beq	r20,zero,80c7d8 <__multiply+0x148>
  80c770:	dcc00017 	ldw	r19,0(sp)
  80c774:	dc800117 	ldw	r18,4(sp)
  80c778:	002b883a 	mov	r21,zero
  80c77c:	9c400017 	ldw	r17,0(r19)
  80c780:	94000017 	ldw	r16,0(r18)
  80c784:	a009883a 	mov	r4,r20
  80c788:	897fffcc 	andi	r5,r17,65535
  80c78c:	080f46c0 	call	80f46c <__mulsi3>
  80c790:	880ad43a 	srli	r5,r17,16
  80c794:	80ffffcc 	andi	r3,r16,65535
  80c798:	a8c7883a 	add	r3,r21,r3
  80c79c:	a009883a 	mov	r4,r20
  80c7a0:	10e3883a 	add	r17,r2,r3
  80c7a4:	8020d43a 	srli	r16,r16,16
  80c7a8:	080f46c0 	call	80f46c <__mulsi3>
  80c7ac:	8806d43a 	srli	r3,r17,16
  80c7b0:	1405883a 	add	r2,r2,r16
  80c7b4:	9cc00104 	addi	r19,r19,4
  80c7b8:	1887883a 	add	r3,r3,r2
  80c7bc:	90c0008d 	sth	r3,2(r18)
  80c7c0:	9440000d 	sth	r17,0(r18)
  80c7c4:	182ad43a 	srli	r21,r3,16
  80c7c8:	94800104 	addi	r18,r18,4
  80c7cc:	9f3feb36 	bltu	r19,fp,80c77c <__multiply+0xec>
  80c7d0:	95400015 	stw	r21,0(r18)
  80c7d4:	b9000017 	ldw	r4,0(r23)
  80c7d8:	202ad43a 	srli	r21,r4,16
  80c7dc:	a8001c26 	beq	r21,zero,80c850 <__multiply+0x1c0>
  80c7e0:	d9000117 	ldw	r4,4(sp)
  80c7e4:	dd000017 	ldw	r20,0(sp)
  80c7e8:	002d883a 	mov	r22,zero
  80c7ec:	24c00017 	ldw	r19,0(r4)
  80c7f0:	2025883a 	mov	r18,r4
  80c7f4:	9823883a 	mov	r17,r19
  80c7f8:	a4000017 	ldw	r16,0(r20)
  80c7fc:	a809883a 	mov	r4,r21
  80c800:	a5000104 	addi	r20,r20,4
  80c804:	817fffcc 	andi	r5,r16,65535
  80c808:	080f46c0 	call	80f46c <__mulsi3>
  80c80c:	8806d43a 	srli	r3,r17,16
  80c810:	800ad43a 	srli	r5,r16,16
  80c814:	94c0000d 	sth	r19,0(r18)
  80c818:	b0c7883a 	add	r3,r22,r3
  80c81c:	10e1883a 	add	r16,r2,r3
  80c820:	9400008d 	sth	r16,2(r18)
  80c824:	a809883a 	mov	r4,r21
  80c828:	94800104 	addi	r18,r18,4
  80c82c:	080f46c0 	call	80f46c <__mulsi3>
  80c830:	94400017 	ldw	r17,0(r18)
  80c834:	8020d43a 	srli	r16,r16,16
  80c838:	88ffffcc 	andi	r3,r17,65535
  80c83c:	10c5883a 	add	r2,r2,r3
  80c840:	80a7883a 	add	r19,r16,r2
  80c844:	982cd43a 	srli	r22,r19,16
  80c848:	a73feb36 	bltu	r20,fp,80c7f8 <__multiply+0x168>
  80c84c:	94c00015 	stw	r19,0(r18)
  80c850:	d8800217 	ldw	r2,8(sp)
  80c854:	bdc00104 	addi	r23,r23,4
  80c858:	b880042e 	bgeu	r23,r2,80c86c <__multiply+0x1dc>
  80c85c:	d8c00117 	ldw	r3,4(sp)
  80c860:	18c00104 	addi	r3,r3,4
  80c864:	d8c00115 	stw	r3,4(sp)
  80c868:	003fbe06 	br	80c764 <__multiply+0xd4>
  80c86c:	d9000417 	ldw	r4,16(sp)
  80c870:	01000c0e 	bge	zero,r4,80c8a4 <__multiply+0x214>
  80c874:	d8c00317 	ldw	r3,12(sp)
  80c878:	18bfff17 	ldw	r2,-4(r3)
  80c87c:	18ffff04 	addi	r3,r3,-4
  80c880:	10000326 	beq	r2,zero,80c890 <__multiply+0x200>
  80c884:	00000706 	br	80c8a4 <__multiply+0x214>
  80c888:	18800017 	ldw	r2,0(r3)
  80c88c:	1000051e 	bne	r2,zero,80c8a4 <__multiply+0x214>
  80c890:	d9000417 	ldw	r4,16(sp)
  80c894:	18ffff04 	addi	r3,r3,-4
  80c898:	213fffc4 	addi	r4,r4,-1
  80c89c:	d9000415 	stw	r4,16(sp)
  80c8a0:	203ff91e 	bne	r4,zero,80c888 <__multiply+0x1f8>
  80c8a4:	d8800417 	ldw	r2,16(sp)
  80c8a8:	d8c00517 	ldw	r3,20(sp)
  80c8ac:	18800415 	stw	r2,16(r3)
  80c8b0:	1805883a 	mov	r2,r3
  80c8b4:	dfc00f17 	ldw	ra,60(sp)
  80c8b8:	df000e17 	ldw	fp,56(sp)
  80c8bc:	ddc00d17 	ldw	r23,52(sp)
  80c8c0:	dd800c17 	ldw	r22,48(sp)
  80c8c4:	dd400b17 	ldw	r21,44(sp)
  80c8c8:	dd000a17 	ldw	r20,40(sp)
  80c8cc:	dcc00917 	ldw	r19,36(sp)
  80c8d0:	dc800817 	ldw	r18,32(sp)
  80c8d4:	dc400717 	ldw	r17,28(sp)
  80c8d8:	dc000617 	ldw	r16,24(sp)
  80c8dc:	dec01004 	addi	sp,sp,64
  80c8e0:	f800283a 	ret

0080c8e4 <__i2b>:
  80c8e4:	defffd04 	addi	sp,sp,-12
  80c8e8:	dc000015 	stw	r16,0(sp)
  80c8ec:	04000044 	movi	r16,1
  80c8f0:	dc800115 	stw	r18,4(sp)
  80c8f4:	2825883a 	mov	r18,r5
  80c8f8:	800b883a 	mov	r5,r16
  80c8fc:	dfc00215 	stw	ra,8(sp)
  80c900:	080c1800 	call	80c180 <_Balloc>
  80c904:	14000415 	stw	r16,16(r2)
  80c908:	14800515 	stw	r18,20(r2)
  80c90c:	dfc00217 	ldw	ra,8(sp)
  80c910:	dc800117 	ldw	r18,4(sp)
  80c914:	dc000017 	ldw	r16,0(sp)
  80c918:	dec00304 	addi	sp,sp,12
  80c91c:	f800283a 	ret

0080c920 <__multadd>:
  80c920:	defff604 	addi	sp,sp,-40
  80c924:	dd800615 	stw	r22,24(sp)
  80c928:	2d800417 	ldw	r22,16(r5)
  80c92c:	df000815 	stw	fp,32(sp)
  80c930:	ddc00715 	stw	r23,28(sp)
  80c934:	dd400515 	stw	r21,20(sp)
  80c938:	dd000415 	stw	r20,16(sp)
  80c93c:	dcc00315 	stw	r19,12(sp)
  80c940:	dc800215 	stw	r18,8(sp)
  80c944:	dfc00915 	stw	ra,36(sp)
  80c948:	dc400115 	stw	r17,4(sp)
  80c94c:	dc000015 	stw	r16,0(sp)
  80c950:	282f883a 	mov	r23,r5
  80c954:	2039883a 	mov	fp,r4
  80c958:	302b883a 	mov	r21,r6
  80c95c:	3829883a 	mov	r20,r7
  80c960:	2c800504 	addi	r18,r5,20
  80c964:	0027883a 	mov	r19,zero
  80c968:	94400017 	ldw	r17,0(r18)
  80c96c:	a80b883a 	mov	r5,r21
  80c970:	9cc00044 	addi	r19,r19,1
  80c974:	893fffcc 	andi	r4,r17,65535
  80c978:	080f46c0 	call	80f46c <__mulsi3>
  80c97c:	8808d43a 	srli	r4,r17,16
  80c980:	1521883a 	add	r16,r2,r20
  80c984:	a80b883a 	mov	r5,r21
  80c988:	080f46c0 	call	80f46c <__mulsi3>
  80c98c:	8008d43a 	srli	r4,r16,16
  80c990:	843fffcc 	andi	r16,r16,65535
  80c994:	1105883a 	add	r2,r2,r4
  80c998:	1006943a 	slli	r3,r2,16
  80c99c:	1028d43a 	srli	r20,r2,16
  80c9a0:	1c07883a 	add	r3,r3,r16
  80c9a4:	90c00015 	stw	r3,0(r18)
  80c9a8:	94800104 	addi	r18,r18,4
  80c9ac:	9dbfee16 	blt	r19,r22,80c968 <__multadd+0x48>
  80c9b0:	a0000826 	beq	r20,zero,80c9d4 <__multadd+0xb4>
  80c9b4:	b8800217 	ldw	r2,8(r23)
  80c9b8:	b080130e 	bge	r22,r2,80ca08 <__multadd+0xe8>
  80c9bc:	b585883a 	add	r2,r22,r22
  80c9c0:	1085883a 	add	r2,r2,r2
  80c9c4:	15c5883a 	add	r2,r2,r23
  80c9c8:	b0c00044 	addi	r3,r22,1
  80c9cc:	15000515 	stw	r20,20(r2)
  80c9d0:	b8c00415 	stw	r3,16(r23)
  80c9d4:	b805883a 	mov	r2,r23
  80c9d8:	dfc00917 	ldw	ra,36(sp)
  80c9dc:	df000817 	ldw	fp,32(sp)
  80c9e0:	ddc00717 	ldw	r23,28(sp)
  80c9e4:	dd800617 	ldw	r22,24(sp)
  80c9e8:	dd400517 	ldw	r21,20(sp)
  80c9ec:	dd000417 	ldw	r20,16(sp)
  80c9f0:	dcc00317 	ldw	r19,12(sp)
  80c9f4:	dc800217 	ldw	r18,8(sp)
  80c9f8:	dc400117 	ldw	r17,4(sp)
  80c9fc:	dc000017 	ldw	r16,0(sp)
  80ca00:	dec00a04 	addi	sp,sp,40
  80ca04:	f800283a 	ret
  80ca08:	b9400117 	ldw	r5,4(r23)
  80ca0c:	e009883a 	mov	r4,fp
  80ca10:	29400044 	addi	r5,r5,1
  80ca14:	080c1800 	call	80c180 <_Balloc>
  80ca18:	b9800417 	ldw	r6,16(r23)
  80ca1c:	b9400304 	addi	r5,r23,12
  80ca20:	11000304 	addi	r4,r2,12
  80ca24:	318d883a 	add	r6,r6,r6
  80ca28:	318d883a 	add	r6,r6,r6
  80ca2c:	31800204 	addi	r6,r6,8
  80ca30:	1023883a 	mov	r17,r2
  80ca34:	08063400 	call	806340 <memcpy>
  80ca38:	b80b883a 	mov	r5,r23
  80ca3c:	e009883a 	mov	r4,fp
  80ca40:	080bc000 	call	80bc00 <_Bfree>
  80ca44:	882f883a 	mov	r23,r17
  80ca48:	003fdc06 	br	80c9bc <__multadd+0x9c>

0080ca4c <__pow5mult>:
  80ca4c:	defffa04 	addi	sp,sp,-24
  80ca50:	308000cc 	andi	r2,r6,3
  80ca54:	dd000415 	stw	r20,16(sp)
  80ca58:	dcc00315 	stw	r19,12(sp)
  80ca5c:	dc000015 	stw	r16,0(sp)
  80ca60:	dfc00515 	stw	ra,20(sp)
  80ca64:	dc800215 	stw	r18,8(sp)
  80ca68:	dc400115 	stw	r17,4(sp)
  80ca6c:	3021883a 	mov	r16,r6
  80ca70:	2027883a 	mov	r19,r4
  80ca74:	2829883a 	mov	r20,r5
  80ca78:	10002b1e 	bne	r2,zero,80cb28 <__pow5mult+0xdc>
  80ca7c:	8025d0ba 	srai	r18,r16,2
  80ca80:	90001b26 	beq	r18,zero,80caf0 <__pow5mult+0xa4>
  80ca84:	9c001217 	ldw	r16,72(r19)
  80ca88:	8000081e 	bne	r16,zero,80caac <__pow5mult+0x60>
  80ca8c:	00003006 	br	80cb50 <__pow5mult+0x104>
  80ca90:	800b883a 	mov	r5,r16
  80ca94:	800d883a 	mov	r6,r16
  80ca98:	9809883a 	mov	r4,r19
  80ca9c:	90001426 	beq	r18,zero,80caf0 <__pow5mult+0xa4>
  80caa0:	80800017 	ldw	r2,0(r16)
  80caa4:	10001b26 	beq	r2,zero,80cb14 <__pow5mult+0xc8>
  80caa8:	1021883a 	mov	r16,r2
  80caac:	9080004c 	andi	r2,r18,1
  80cab0:	1005003a 	cmpeq	r2,r2,zero
  80cab4:	9025d07a 	srai	r18,r18,1
  80cab8:	800d883a 	mov	r6,r16
  80cabc:	9809883a 	mov	r4,r19
  80cac0:	a00b883a 	mov	r5,r20
  80cac4:	103ff21e 	bne	r2,zero,80ca90 <__pow5mult+0x44>
  80cac8:	080c6900 	call	80c690 <__multiply>
  80cacc:	a00b883a 	mov	r5,r20
  80cad0:	9809883a 	mov	r4,r19
  80cad4:	1023883a 	mov	r17,r2
  80cad8:	080bc000 	call	80bc00 <_Bfree>
  80cadc:	8829883a 	mov	r20,r17
  80cae0:	800b883a 	mov	r5,r16
  80cae4:	800d883a 	mov	r6,r16
  80cae8:	9809883a 	mov	r4,r19
  80caec:	903fec1e 	bne	r18,zero,80caa0 <__pow5mult+0x54>
  80caf0:	a005883a 	mov	r2,r20
  80caf4:	dfc00517 	ldw	ra,20(sp)
  80caf8:	dd000417 	ldw	r20,16(sp)
  80cafc:	dcc00317 	ldw	r19,12(sp)
  80cb00:	dc800217 	ldw	r18,8(sp)
  80cb04:	dc400117 	ldw	r17,4(sp)
  80cb08:	dc000017 	ldw	r16,0(sp)
  80cb0c:	dec00604 	addi	sp,sp,24
  80cb10:	f800283a 	ret
  80cb14:	080c6900 	call	80c690 <__multiply>
  80cb18:	80800015 	stw	r2,0(r16)
  80cb1c:	1021883a 	mov	r16,r2
  80cb20:	10000015 	stw	zero,0(r2)
  80cb24:	003fe106 	br	80caac <__pow5mult+0x60>
  80cb28:	1085883a 	add	r2,r2,r2
  80cb2c:	00c02074 	movhi	r3,129
  80cb30:	18cd5704 	addi	r3,r3,13660
  80cb34:	1085883a 	add	r2,r2,r2
  80cb38:	10c5883a 	add	r2,r2,r3
  80cb3c:	11bfff17 	ldw	r6,-4(r2)
  80cb40:	000f883a 	mov	r7,zero
  80cb44:	080c9200 	call	80c920 <__multadd>
  80cb48:	1029883a 	mov	r20,r2
  80cb4c:	003fcb06 	br	80ca7c <__pow5mult+0x30>
  80cb50:	9809883a 	mov	r4,r19
  80cb54:	01409c44 	movi	r5,625
  80cb58:	080c8e40 	call	80c8e4 <__i2b>
  80cb5c:	98801215 	stw	r2,72(r19)
  80cb60:	1021883a 	mov	r16,r2
  80cb64:	10000015 	stw	zero,0(r2)
  80cb68:	003fd006 	br	80caac <__pow5mult+0x60>

0080cb6c <__s2b>:
  80cb6c:	defff904 	addi	sp,sp,-28
  80cb70:	dcc00315 	stw	r19,12(sp)
  80cb74:	dc800215 	stw	r18,8(sp)
  80cb78:	2827883a 	mov	r19,r5
  80cb7c:	2025883a 	mov	r18,r4
  80cb80:	01400244 	movi	r5,9
  80cb84:	39000204 	addi	r4,r7,8
  80cb88:	dd000415 	stw	r20,16(sp)
  80cb8c:	dc400115 	stw	r17,4(sp)
  80cb90:	dfc00615 	stw	ra,24(sp)
  80cb94:	dd400515 	stw	r21,20(sp)
  80cb98:	dc000015 	stw	r16,0(sp)
  80cb9c:	3829883a 	mov	r20,r7
  80cba0:	3023883a 	mov	r17,r6
  80cba4:	0805d8c0 	call	805d8c <__divsi3>
  80cba8:	00c00044 	movi	r3,1
  80cbac:	1880350e 	bge	r3,r2,80cc84 <__s2b+0x118>
  80cbb0:	000b883a 	mov	r5,zero
  80cbb4:	18c7883a 	add	r3,r3,r3
  80cbb8:	29400044 	addi	r5,r5,1
  80cbbc:	18bffd16 	blt	r3,r2,80cbb4 <__s2b+0x48>
  80cbc0:	9009883a 	mov	r4,r18
  80cbc4:	080c1800 	call	80c180 <_Balloc>
  80cbc8:	1011883a 	mov	r8,r2
  80cbcc:	d8800717 	ldw	r2,28(sp)
  80cbd0:	00c00044 	movi	r3,1
  80cbd4:	01800244 	movi	r6,9
  80cbd8:	40800515 	stw	r2,20(r8)
  80cbdc:	40c00415 	stw	r3,16(r8)
  80cbe0:	3440260e 	bge	r6,r17,80cc7c <__s2b+0x110>
  80cbe4:	3021883a 	mov	r16,r6
  80cbe8:	99ab883a 	add	r21,r19,r6
  80cbec:	9c05883a 	add	r2,r19,r16
  80cbf0:	11c00007 	ldb	r7,0(r2)
  80cbf4:	400b883a 	mov	r5,r8
  80cbf8:	9009883a 	mov	r4,r18
  80cbfc:	39fff404 	addi	r7,r7,-48
  80cc00:	01800284 	movi	r6,10
  80cc04:	080c9200 	call	80c920 <__multadd>
  80cc08:	84000044 	addi	r16,r16,1
  80cc0c:	1011883a 	mov	r8,r2
  80cc10:	8c3ff61e 	bne	r17,r16,80cbec <__s2b+0x80>
  80cc14:	ac45883a 	add	r2,r21,r17
  80cc18:	117ffe04 	addi	r5,r2,-8
  80cc1c:	880d883a 	mov	r6,r17
  80cc20:	35000c0e 	bge	r6,r20,80cc54 <__s2b+0xe8>
  80cc24:	a185c83a 	sub	r2,r20,r6
  80cc28:	2821883a 	mov	r16,r5
  80cc2c:	28a3883a 	add	r17,r5,r2
  80cc30:	81c00007 	ldb	r7,0(r16)
  80cc34:	400b883a 	mov	r5,r8
  80cc38:	9009883a 	mov	r4,r18
  80cc3c:	39fff404 	addi	r7,r7,-48
  80cc40:	01800284 	movi	r6,10
  80cc44:	080c9200 	call	80c920 <__multadd>
  80cc48:	84000044 	addi	r16,r16,1
  80cc4c:	1011883a 	mov	r8,r2
  80cc50:	847ff71e 	bne	r16,r17,80cc30 <__s2b+0xc4>
  80cc54:	4005883a 	mov	r2,r8
  80cc58:	dfc00617 	ldw	ra,24(sp)
  80cc5c:	dd400517 	ldw	r21,20(sp)
  80cc60:	dd000417 	ldw	r20,16(sp)
  80cc64:	dcc00317 	ldw	r19,12(sp)
  80cc68:	dc800217 	ldw	r18,8(sp)
  80cc6c:	dc400117 	ldw	r17,4(sp)
  80cc70:	dc000017 	ldw	r16,0(sp)
  80cc74:	dec00704 	addi	sp,sp,28
  80cc78:	f800283a 	ret
  80cc7c:	99400284 	addi	r5,r19,10
  80cc80:	003fe706 	br	80cc20 <__s2b+0xb4>
  80cc84:	000b883a 	mov	r5,zero
  80cc88:	003fcd06 	br	80cbc0 <__s2b+0x54>

0080cc8c <putc>:
  80cc8c:	defffc04 	addi	sp,sp,-16
  80cc90:	dc800215 	stw	r18,8(sp)
  80cc94:	04802074 	movhi	r18,129
  80cc98:	9494d404 	addi	r18,r18,21328
  80cc9c:	90c00017 	ldw	r3,0(r18)
  80cca0:	dc400115 	stw	r17,4(sp)
  80cca4:	dc000015 	stw	r16,0(sp)
  80cca8:	dfc00315 	stw	ra,12(sp)
  80ccac:	2023883a 	mov	r17,r4
  80ccb0:	2821883a 	mov	r16,r5
  80ccb4:	18000226 	beq	r3,zero,80ccc0 <putc+0x34>
  80ccb8:	18800e17 	ldw	r2,56(r3)
  80ccbc:	10001126 	beq	r2,zero,80cd04 <putc+0x78>
  80ccc0:	80800217 	ldw	r2,8(r16)
  80ccc4:	10ffffc4 	addi	r3,r2,-1
  80ccc8:	80c00215 	stw	r3,8(r16)
  80cccc:	18001316 	blt	r3,zero,80cd1c <putc+0x90>
  80ccd0:	80800017 	ldw	r2,0(r16)
  80ccd4:	14400005 	stb	r17,0(r2)
  80ccd8:	80c00017 	ldw	r3,0(r16)
  80ccdc:	18800044 	addi	r2,r3,1
  80cce0:	18c00003 	ldbu	r3,0(r3)
  80cce4:	80800015 	stw	r2,0(r16)
  80cce8:	1805883a 	mov	r2,r3
  80ccec:	dfc00317 	ldw	ra,12(sp)
  80ccf0:	dc800217 	ldw	r18,8(sp)
  80ccf4:	dc400117 	ldw	r17,4(sp)
  80ccf8:	dc000017 	ldw	r16,0(sp)
  80ccfc:	dec00404 	addi	sp,sp,16
  80cd00:	f800283a 	ret
  80cd04:	1809883a 	mov	r4,r3
  80cd08:	080a3240 	call	80a324 <__sinit>
  80cd0c:	80800217 	ldw	r2,8(r16)
  80cd10:	10ffffc4 	addi	r3,r2,-1
  80cd14:	80c00215 	stw	r3,8(r16)
  80cd18:	183fed0e 	bge	r3,zero,80ccd0 <putc+0x44>
  80cd1c:	80800617 	ldw	r2,24(r16)
  80cd20:	18800f16 	blt	r3,r2,80cd60 <putc+0xd4>
  80cd24:	80800017 	ldw	r2,0(r16)
  80cd28:	14400005 	stb	r17,0(r2)
  80cd2c:	81000017 	ldw	r4,0(r16)
  80cd30:	00800284 	movi	r2,10
  80cd34:	20c00003 	ldbu	r3,0(r4)
  80cd38:	18801226 	beq	r3,r2,80cd84 <putc+0xf8>
  80cd3c:	20800044 	addi	r2,r4,1
  80cd40:	80800015 	stw	r2,0(r16)
  80cd44:	1805883a 	mov	r2,r3
  80cd48:	dfc00317 	ldw	ra,12(sp)
  80cd4c:	dc800217 	ldw	r18,8(sp)
  80cd50:	dc400117 	ldw	r17,4(sp)
  80cd54:	dc000017 	ldw	r16,0(sp)
  80cd58:	dec00404 	addi	sp,sp,16
  80cd5c:	f800283a 	ret
  80cd60:	91000017 	ldw	r4,0(r18)
  80cd64:	880b883a 	mov	r5,r17
  80cd68:	800d883a 	mov	r6,r16
  80cd6c:	dfc00317 	ldw	ra,12(sp)
  80cd70:	dc800217 	ldw	r18,8(sp)
  80cd74:	dc400117 	ldw	r17,4(sp)
  80cd78:	dc000017 	ldw	r16,0(sp)
  80cd7c:	dec00404 	addi	sp,sp,16
  80cd80:	080d7541 	jmpi	80d754 <__swbuf_r>
  80cd84:	91000017 	ldw	r4,0(r18)
  80cd88:	180b883a 	mov	r5,r3
  80cd8c:	003ff606 	br	80cd68 <putc+0xdc>

0080cd90 <_putc_r>:
  80cd90:	defffc04 	addi	sp,sp,-16
  80cd94:	dc400215 	stw	r17,8(sp)
  80cd98:	dc000115 	stw	r16,4(sp)
  80cd9c:	dfc00315 	stw	ra,12(sp)
  80cda0:	2021883a 	mov	r16,r4
  80cda4:	2823883a 	mov	r17,r5
  80cda8:	20000226 	beq	r4,zero,80cdb4 <_putc_r+0x24>
  80cdac:	20800e17 	ldw	r2,56(r4)
  80cdb0:	10001026 	beq	r2,zero,80cdf4 <_putc_r+0x64>
  80cdb4:	30800217 	ldw	r2,8(r6)
  80cdb8:	10ffffc4 	addi	r3,r2,-1
  80cdbc:	30c00215 	stw	r3,8(r6)
  80cdc0:	18001316 	blt	r3,zero,80ce10 <_putc_r+0x80>
  80cdc4:	30800017 	ldw	r2,0(r6)
  80cdc8:	14400005 	stb	r17,0(r2)
  80cdcc:	30c00017 	ldw	r3,0(r6)
  80cdd0:	18800044 	addi	r2,r3,1
  80cdd4:	18c00003 	ldbu	r3,0(r3)
  80cdd8:	30800015 	stw	r2,0(r6)
  80cddc:	1805883a 	mov	r2,r3
  80cde0:	dfc00317 	ldw	ra,12(sp)
  80cde4:	dc400217 	ldw	r17,8(sp)
  80cde8:	dc000117 	ldw	r16,4(sp)
  80cdec:	dec00404 	addi	sp,sp,16
  80cdf0:	f800283a 	ret
  80cdf4:	d9800015 	stw	r6,0(sp)
  80cdf8:	080a3240 	call	80a324 <__sinit>
  80cdfc:	d9800017 	ldw	r6,0(sp)
  80ce00:	30800217 	ldw	r2,8(r6)
  80ce04:	10ffffc4 	addi	r3,r2,-1
  80ce08:	30c00215 	stw	r3,8(r6)
  80ce0c:	183fed0e 	bge	r3,zero,80cdc4 <_putc_r+0x34>
  80ce10:	30800617 	ldw	r2,24(r6)
  80ce14:	18800e16 	blt	r3,r2,80ce50 <_putc_r+0xc0>
  80ce18:	30800017 	ldw	r2,0(r6)
  80ce1c:	14400005 	stb	r17,0(r2)
  80ce20:	31000017 	ldw	r4,0(r6)
  80ce24:	00800284 	movi	r2,10
  80ce28:	20c00003 	ldbu	r3,0(r4)
  80ce2c:	18800f26 	beq	r3,r2,80ce6c <_putc_r+0xdc>
  80ce30:	20800044 	addi	r2,r4,1
  80ce34:	30800015 	stw	r2,0(r6)
  80ce38:	1805883a 	mov	r2,r3
  80ce3c:	dfc00317 	ldw	ra,12(sp)
  80ce40:	dc400217 	ldw	r17,8(sp)
  80ce44:	dc000117 	ldw	r16,4(sp)
  80ce48:	dec00404 	addi	sp,sp,16
  80ce4c:	f800283a 	ret
  80ce50:	8009883a 	mov	r4,r16
  80ce54:	880b883a 	mov	r5,r17
  80ce58:	dfc00317 	ldw	ra,12(sp)
  80ce5c:	dc400217 	ldw	r17,8(sp)
  80ce60:	dc000117 	ldw	r16,4(sp)
  80ce64:	dec00404 	addi	sp,sp,16
  80ce68:	080d7541 	jmpi	80d754 <__swbuf_r>
  80ce6c:	8009883a 	mov	r4,r16
  80ce70:	180b883a 	mov	r5,r3
  80ce74:	003ff806 	br	80ce58 <_putc_r+0xc8>

0080ce78 <_realloc_r>:
  80ce78:	defff404 	addi	sp,sp,-48
  80ce7c:	dd800815 	stw	r22,32(sp)
  80ce80:	dc800415 	stw	r18,16(sp)
  80ce84:	dc400315 	stw	r17,12(sp)
  80ce88:	dfc00b15 	stw	ra,44(sp)
  80ce8c:	df000a15 	stw	fp,40(sp)
  80ce90:	ddc00915 	stw	r23,36(sp)
  80ce94:	dd400715 	stw	r21,28(sp)
  80ce98:	dd000615 	stw	r20,24(sp)
  80ce9c:	dcc00515 	stw	r19,20(sp)
  80cea0:	dc000215 	stw	r16,8(sp)
  80cea4:	2825883a 	mov	r18,r5
  80cea8:	3023883a 	mov	r17,r6
  80ceac:	202d883a 	mov	r22,r4
  80ceb0:	2800c926 	beq	r5,zero,80d1d8 <_realloc_r+0x360>
  80ceb4:	080fee40 	call	80fee4 <__malloc_lock>
  80ceb8:	943ffe04 	addi	r16,r18,-8
  80cebc:	88c002c4 	addi	r3,r17,11
  80cec0:	00800584 	movi	r2,22
  80cec4:	82000117 	ldw	r8,4(r16)
  80cec8:	10c01b2e 	bgeu	r2,r3,80cf38 <_realloc_r+0xc0>
  80cecc:	00bffe04 	movi	r2,-8
  80ced0:	188e703a 	and	r7,r3,r2
  80ced4:	3839883a 	mov	fp,r7
  80ced8:	38001a16 	blt	r7,zero,80cf44 <_realloc_r+0xcc>
  80cedc:	e4401936 	bltu	fp,r17,80cf44 <_realloc_r+0xcc>
  80cee0:	013fff04 	movi	r4,-4
  80cee4:	4126703a 	and	r19,r8,r4
  80cee8:	99c02616 	blt	r19,r7,80cf84 <_realloc_r+0x10c>
  80ceec:	802b883a 	mov	r21,r16
  80cef0:	9829883a 	mov	r20,r19
  80cef4:	84000204 	addi	r16,r16,8
  80cef8:	a80f883a 	mov	r7,r21
  80cefc:	a70dc83a 	sub	r6,r20,fp
  80cf00:	008003c4 	movi	r2,15
  80cf04:	1180c136 	bltu	r2,r6,80d20c <_realloc_r+0x394>
  80cf08:	38800117 	ldw	r2,4(r7)
  80cf0c:	a549883a 	add	r4,r20,r21
  80cf10:	1080004c 	andi	r2,r2,1
  80cf14:	a084b03a 	or	r2,r20,r2
  80cf18:	38800115 	stw	r2,4(r7)
  80cf1c:	20c00117 	ldw	r3,4(r4)
  80cf20:	18c00054 	ori	r3,r3,1
  80cf24:	20c00115 	stw	r3,4(r4)
  80cf28:	b009883a 	mov	r4,r22
  80cf2c:	080ff040 	call	80ff04 <__malloc_unlock>
  80cf30:	8023883a 	mov	r17,r16
  80cf34:	00000606 	br	80cf50 <_realloc_r+0xd8>
  80cf38:	01c00404 	movi	r7,16
  80cf3c:	3839883a 	mov	fp,r7
  80cf40:	e47fe72e 	bgeu	fp,r17,80cee0 <_realloc_r+0x68>
  80cf44:	00800304 	movi	r2,12
  80cf48:	0023883a 	mov	r17,zero
  80cf4c:	b0800015 	stw	r2,0(r22)
  80cf50:	8805883a 	mov	r2,r17
  80cf54:	dfc00b17 	ldw	ra,44(sp)
  80cf58:	df000a17 	ldw	fp,40(sp)
  80cf5c:	ddc00917 	ldw	r23,36(sp)
  80cf60:	dd800817 	ldw	r22,32(sp)
  80cf64:	dd400717 	ldw	r21,28(sp)
  80cf68:	dd000617 	ldw	r20,24(sp)
  80cf6c:	dcc00517 	ldw	r19,20(sp)
  80cf70:	dc800417 	ldw	r18,16(sp)
  80cf74:	dc400317 	ldw	r17,12(sp)
  80cf78:	dc000217 	ldw	r16,8(sp)
  80cf7c:	dec00c04 	addi	sp,sp,48
  80cf80:	f800283a 	ret
  80cf84:	00802074 	movhi	r2,129
  80cf88:	108f3304 	addi	r2,r2,15564
  80cf8c:	12400217 	ldw	r9,8(r2)
  80cf90:	84cd883a 	add	r6,r16,r19
  80cf94:	802b883a 	mov	r21,r16
  80cf98:	3240b926 	beq	r6,r9,80d280 <_realloc_r+0x408>
  80cf9c:	31400117 	ldw	r5,4(r6)
  80cfa0:	00bfff84 	movi	r2,-2
  80cfa4:	2884703a 	and	r2,r5,r2
  80cfa8:	1185883a 	add	r2,r2,r6
  80cfac:	10c00117 	ldw	r3,4(r2)
  80cfb0:	18c0004c 	andi	r3,r3,1
  80cfb4:	1807003a 	cmpeq	r3,r3,zero
  80cfb8:	1800a326 	beq	r3,zero,80d248 <_realloc_r+0x3d0>
  80cfbc:	2908703a 	and	r4,r5,r4
  80cfc0:	9929883a 	add	r20,r19,r4
  80cfc4:	a1c0a30e 	bge	r20,r7,80d254 <_realloc_r+0x3dc>
  80cfc8:	4080004c 	andi	r2,r8,1
  80cfcc:	1000551e 	bne	r2,zero,80d124 <_realloc_r+0x2ac>
  80cfd0:	80800017 	ldw	r2,0(r16)
  80cfd4:	80afc83a 	sub	r23,r16,r2
  80cfd8:	b8c00117 	ldw	r3,4(r23)
  80cfdc:	00bfff04 	movi	r2,-4
  80cfe0:	1884703a 	and	r2,r3,r2
  80cfe4:	30002e26 	beq	r6,zero,80d0a0 <_realloc_r+0x228>
  80cfe8:	3240b926 	beq	r6,r9,80d2d0 <_realloc_r+0x458>
  80cfec:	98a9883a 	add	r20,r19,r2
  80cff0:	2509883a 	add	r4,r4,r20
  80cff4:	d9000015 	stw	r4,0(sp)
  80cff8:	21c02a16 	blt	r4,r7,80d0a4 <_realloc_r+0x22c>
  80cffc:	30800317 	ldw	r2,12(r6)
  80d000:	30c00217 	ldw	r3,8(r6)
  80d004:	01400904 	movi	r5,36
  80d008:	99bfff04 	addi	r6,r19,-4
  80d00c:	18800315 	stw	r2,12(r3)
  80d010:	10c00215 	stw	r3,8(r2)
  80d014:	b9000317 	ldw	r4,12(r23)
  80d018:	b8800217 	ldw	r2,8(r23)
  80d01c:	b82b883a 	mov	r21,r23
  80d020:	bc000204 	addi	r16,r23,8
  80d024:	20800215 	stw	r2,8(r4)
  80d028:	11000315 	stw	r4,12(r2)
  80d02c:	2980e436 	bltu	r5,r6,80d3c0 <_realloc_r+0x548>
  80d030:	008004c4 	movi	r2,19
  80d034:	9009883a 	mov	r4,r18
  80d038:	8011883a 	mov	r8,r16
  80d03c:	11800f2e 	bgeu	r2,r6,80d07c <_realloc_r+0x204>
  80d040:	90800017 	ldw	r2,0(r18)
  80d044:	ba000404 	addi	r8,r23,16
  80d048:	91000204 	addi	r4,r18,8
  80d04c:	b8800215 	stw	r2,8(r23)
  80d050:	90c00117 	ldw	r3,4(r18)
  80d054:	008006c4 	movi	r2,27
  80d058:	b8c00315 	stw	r3,12(r23)
  80d05c:	1180072e 	bgeu	r2,r6,80d07c <_realloc_r+0x204>
  80d060:	90c00217 	ldw	r3,8(r18)
  80d064:	ba000604 	addi	r8,r23,24
  80d068:	91000404 	addi	r4,r18,16
  80d06c:	b8c00415 	stw	r3,16(r23)
  80d070:	90800317 	ldw	r2,12(r18)
  80d074:	b8800515 	stw	r2,20(r23)
  80d078:	3140e726 	beq	r6,r5,80d418 <_realloc_r+0x5a0>
  80d07c:	20800017 	ldw	r2,0(r4)
  80d080:	dd000017 	ldw	r20,0(sp)
  80d084:	b80f883a 	mov	r7,r23
  80d088:	40800015 	stw	r2,0(r8)
  80d08c:	20c00117 	ldw	r3,4(r4)
  80d090:	40c00115 	stw	r3,4(r8)
  80d094:	20800217 	ldw	r2,8(r4)
  80d098:	40800215 	stw	r2,8(r8)
  80d09c:	003f9706 	br	80cefc <_realloc_r+0x84>
  80d0a0:	98a9883a 	add	r20,r19,r2
  80d0a4:	a1c01f16 	blt	r20,r7,80d124 <_realloc_r+0x2ac>
  80d0a8:	b8c00317 	ldw	r3,12(r23)
  80d0ac:	b8800217 	ldw	r2,8(r23)
  80d0b0:	99bfff04 	addi	r6,r19,-4
  80d0b4:	01400904 	movi	r5,36
  80d0b8:	b82b883a 	mov	r21,r23
  80d0bc:	18800215 	stw	r2,8(r3)
  80d0c0:	10c00315 	stw	r3,12(r2)
  80d0c4:	bc000204 	addi	r16,r23,8
  80d0c8:	2980c336 	bltu	r5,r6,80d3d8 <_realloc_r+0x560>
  80d0cc:	008004c4 	movi	r2,19
  80d0d0:	9009883a 	mov	r4,r18
  80d0d4:	8011883a 	mov	r8,r16
  80d0d8:	11800f2e 	bgeu	r2,r6,80d118 <_realloc_r+0x2a0>
  80d0dc:	90800017 	ldw	r2,0(r18)
  80d0e0:	ba000404 	addi	r8,r23,16
  80d0e4:	91000204 	addi	r4,r18,8
  80d0e8:	b8800215 	stw	r2,8(r23)
  80d0ec:	90c00117 	ldw	r3,4(r18)
  80d0f0:	008006c4 	movi	r2,27
  80d0f4:	b8c00315 	stw	r3,12(r23)
  80d0f8:	1180072e 	bgeu	r2,r6,80d118 <_realloc_r+0x2a0>
  80d0fc:	90c00217 	ldw	r3,8(r18)
  80d100:	ba000604 	addi	r8,r23,24
  80d104:	91000404 	addi	r4,r18,16
  80d108:	b8c00415 	stw	r3,16(r23)
  80d10c:	90800317 	ldw	r2,12(r18)
  80d110:	b8800515 	stw	r2,20(r23)
  80d114:	3140c726 	beq	r6,r5,80d434 <_realloc_r+0x5bc>
  80d118:	20800017 	ldw	r2,0(r4)
  80d11c:	b80f883a 	mov	r7,r23
  80d120:	003fd906 	br	80d088 <_realloc_r+0x210>
  80d124:	880b883a 	mov	r5,r17
  80d128:	b009883a 	mov	r4,r22
  80d12c:	080b2640 	call	80b264 <_malloc_r>
  80d130:	1023883a 	mov	r17,r2
  80d134:	10002526 	beq	r2,zero,80d1cc <_realloc_r+0x354>
  80d138:	80800117 	ldw	r2,4(r16)
  80d13c:	00ffff84 	movi	r3,-2
  80d140:	893ffe04 	addi	r4,r17,-8
  80d144:	10c4703a 	and	r2,r2,r3
  80d148:	8085883a 	add	r2,r16,r2
  80d14c:	20809526 	beq	r4,r2,80d3a4 <_realloc_r+0x52c>
  80d150:	99bfff04 	addi	r6,r19,-4
  80d154:	01c00904 	movi	r7,36
  80d158:	39804536 	bltu	r7,r6,80d270 <_realloc_r+0x3f8>
  80d15c:	008004c4 	movi	r2,19
  80d160:	9009883a 	mov	r4,r18
  80d164:	880b883a 	mov	r5,r17
  80d168:	11800f2e 	bgeu	r2,r6,80d1a8 <_realloc_r+0x330>
  80d16c:	90800017 	ldw	r2,0(r18)
  80d170:	89400204 	addi	r5,r17,8
  80d174:	91000204 	addi	r4,r18,8
  80d178:	88800015 	stw	r2,0(r17)
  80d17c:	90c00117 	ldw	r3,4(r18)
  80d180:	008006c4 	movi	r2,27
  80d184:	88c00115 	stw	r3,4(r17)
  80d188:	1180072e 	bgeu	r2,r6,80d1a8 <_realloc_r+0x330>
  80d18c:	90c00217 	ldw	r3,8(r18)
  80d190:	89400404 	addi	r5,r17,16
  80d194:	91000404 	addi	r4,r18,16
  80d198:	88c00215 	stw	r3,8(r17)
  80d19c:	90800317 	ldw	r2,12(r18)
  80d1a0:	88800315 	stw	r2,12(r17)
  80d1a4:	31c09126 	beq	r6,r7,80d3ec <_realloc_r+0x574>
  80d1a8:	20800017 	ldw	r2,0(r4)
  80d1ac:	28800015 	stw	r2,0(r5)
  80d1b0:	20c00117 	ldw	r3,4(r4)
  80d1b4:	28c00115 	stw	r3,4(r5)
  80d1b8:	20800217 	ldw	r2,8(r4)
  80d1bc:	28800215 	stw	r2,8(r5)
  80d1c0:	900b883a 	mov	r5,r18
  80d1c4:	b009883a 	mov	r4,r22
  80d1c8:	080a6dc0 	call	80a6dc <_free_r>
  80d1cc:	b009883a 	mov	r4,r22
  80d1d0:	080ff040 	call	80ff04 <__malloc_unlock>
  80d1d4:	003f5e06 	br	80cf50 <_realloc_r+0xd8>
  80d1d8:	300b883a 	mov	r5,r6
  80d1dc:	dfc00b17 	ldw	ra,44(sp)
  80d1e0:	df000a17 	ldw	fp,40(sp)
  80d1e4:	ddc00917 	ldw	r23,36(sp)
  80d1e8:	dd800817 	ldw	r22,32(sp)
  80d1ec:	dd400717 	ldw	r21,28(sp)
  80d1f0:	dd000617 	ldw	r20,24(sp)
  80d1f4:	dcc00517 	ldw	r19,20(sp)
  80d1f8:	dc800417 	ldw	r18,16(sp)
  80d1fc:	dc400317 	ldw	r17,12(sp)
  80d200:	dc000217 	ldw	r16,8(sp)
  80d204:	dec00c04 	addi	sp,sp,48
  80d208:	080b2641 	jmpi	80b264 <_malloc_r>
  80d20c:	38800117 	ldw	r2,4(r7)
  80d210:	e54b883a 	add	r5,fp,r21
  80d214:	31000054 	ori	r4,r6,1
  80d218:	1080004c 	andi	r2,r2,1
  80d21c:	1704b03a 	or	r2,r2,fp
  80d220:	38800115 	stw	r2,4(r7)
  80d224:	29000115 	stw	r4,4(r5)
  80d228:	2987883a 	add	r3,r5,r6
  80d22c:	18800117 	ldw	r2,4(r3)
  80d230:	29400204 	addi	r5,r5,8
  80d234:	b009883a 	mov	r4,r22
  80d238:	10800054 	ori	r2,r2,1
  80d23c:	18800115 	stw	r2,4(r3)
  80d240:	080a6dc0 	call	80a6dc <_free_r>
  80d244:	003f3806 	br	80cf28 <_realloc_r+0xb0>
  80d248:	000d883a 	mov	r6,zero
  80d24c:	0009883a 	mov	r4,zero
  80d250:	003f5d06 	br	80cfc8 <_realloc_r+0x150>
  80d254:	30c00217 	ldw	r3,8(r6)
  80d258:	30800317 	ldw	r2,12(r6)
  80d25c:	800f883a 	mov	r7,r16
  80d260:	84000204 	addi	r16,r16,8
  80d264:	10c00215 	stw	r3,8(r2)
  80d268:	18800315 	stw	r2,12(r3)
  80d26c:	003f2306 	br	80cefc <_realloc_r+0x84>
  80d270:	8809883a 	mov	r4,r17
  80d274:	900b883a 	mov	r5,r18
  80d278:	080ba880 	call	80ba88 <memmove>
  80d27c:	003fd006 	br	80d1c0 <_realloc_r+0x348>
  80d280:	30800117 	ldw	r2,4(r6)
  80d284:	e0c00404 	addi	r3,fp,16
  80d288:	1108703a 	and	r4,r2,r4
  80d28c:	9905883a 	add	r2,r19,r4
  80d290:	10ff4d16 	blt	r2,r3,80cfc8 <_realloc_r+0x150>
  80d294:	1705c83a 	sub	r2,r2,fp
  80d298:	870b883a 	add	r5,r16,fp
  80d29c:	10800054 	ori	r2,r2,1
  80d2a0:	28800115 	stw	r2,4(r5)
  80d2a4:	80c00117 	ldw	r3,4(r16)
  80d2a8:	00802074 	movhi	r2,129
  80d2ac:	108f3304 	addi	r2,r2,15564
  80d2b0:	b009883a 	mov	r4,r22
  80d2b4:	18c0004c 	andi	r3,r3,1
  80d2b8:	e0c6b03a 	or	r3,fp,r3
  80d2bc:	11400215 	stw	r5,8(r2)
  80d2c0:	80c00115 	stw	r3,4(r16)
  80d2c4:	080ff040 	call	80ff04 <__malloc_unlock>
  80d2c8:	84400204 	addi	r17,r16,8
  80d2cc:	003f2006 	br	80cf50 <_realloc_r+0xd8>
  80d2d0:	98a9883a 	add	r20,r19,r2
  80d2d4:	2509883a 	add	r4,r4,r20
  80d2d8:	e0800404 	addi	r2,fp,16
  80d2dc:	d9000115 	stw	r4,4(sp)
  80d2e0:	20bf7016 	blt	r4,r2,80d0a4 <_realloc_r+0x22c>
  80d2e4:	b8c00317 	ldw	r3,12(r23)
  80d2e8:	b8800217 	ldw	r2,8(r23)
  80d2ec:	99bfff04 	addi	r6,r19,-4
  80d2f0:	01400904 	movi	r5,36
  80d2f4:	18800215 	stw	r2,8(r3)
  80d2f8:	10c00315 	stw	r3,12(r2)
  80d2fc:	bc400204 	addi	r17,r23,8
  80d300:	29804136 	bltu	r5,r6,80d408 <_realloc_r+0x590>
  80d304:	008004c4 	movi	r2,19
  80d308:	9009883a 	mov	r4,r18
  80d30c:	880f883a 	mov	r7,r17
  80d310:	11800f2e 	bgeu	r2,r6,80d350 <_realloc_r+0x4d8>
  80d314:	90800017 	ldw	r2,0(r18)
  80d318:	b9c00404 	addi	r7,r23,16
  80d31c:	91000204 	addi	r4,r18,8
  80d320:	b8800215 	stw	r2,8(r23)
  80d324:	90c00117 	ldw	r3,4(r18)
  80d328:	008006c4 	movi	r2,27
  80d32c:	b8c00315 	stw	r3,12(r23)
  80d330:	1180072e 	bgeu	r2,r6,80d350 <_realloc_r+0x4d8>
  80d334:	90c00217 	ldw	r3,8(r18)
  80d338:	b9c00604 	addi	r7,r23,24
  80d33c:	91000404 	addi	r4,r18,16
  80d340:	b8c00415 	stw	r3,16(r23)
  80d344:	90800317 	ldw	r2,12(r18)
  80d348:	b8800515 	stw	r2,20(r23)
  80d34c:	31404026 	beq	r6,r5,80d450 <_realloc_r+0x5d8>
  80d350:	20800017 	ldw	r2,0(r4)
  80d354:	38800015 	stw	r2,0(r7)
  80d358:	20c00117 	ldw	r3,4(r4)
  80d35c:	38c00115 	stw	r3,4(r7)
  80d360:	20800217 	ldw	r2,8(r4)
  80d364:	38800215 	stw	r2,8(r7)
  80d368:	d8c00117 	ldw	r3,4(sp)
  80d36c:	bf0b883a 	add	r5,r23,fp
  80d370:	b009883a 	mov	r4,r22
  80d374:	1f05c83a 	sub	r2,r3,fp
  80d378:	10800054 	ori	r2,r2,1
  80d37c:	28800115 	stw	r2,4(r5)
  80d380:	b8c00117 	ldw	r3,4(r23)
  80d384:	00802074 	movhi	r2,129
  80d388:	108f3304 	addi	r2,r2,15564
  80d38c:	11400215 	stw	r5,8(r2)
  80d390:	18c0004c 	andi	r3,r3,1
  80d394:	e0c6b03a 	or	r3,fp,r3
  80d398:	b8c00115 	stw	r3,4(r23)
  80d39c:	080ff040 	call	80ff04 <__malloc_unlock>
  80d3a0:	003eeb06 	br	80cf50 <_realloc_r+0xd8>
  80d3a4:	20800117 	ldw	r2,4(r4)
  80d3a8:	00ffff04 	movi	r3,-4
  80d3ac:	800f883a 	mov	r7,r16
  80d3b0:	10c4703a 	and	r2,r2,r3
  80d3b4:	98a9883a 	add	r20,r19,r2
  80d3b8:	84000204 	addi	r16,r16,8
  80d3bc:	003ecf06 	br	80cefc <_realloc_r+0x84>
  80d3c0:	900b883a 	mov	r5,r18
  80d3c4:	8009883a 	mov	r4,r16
  80d3c8:	080ba880 	call	80ba88 <memmove>
  80d3cc:	dd000017 	ldw	r20,0(sp)
  80d3d0:	b80f883a 	mov	r7,r23
  80d3d4:	003ec906 	br	80cefc <_realloc_r+0x84>
  80d3d8:	900b883a 	mov	r5,r18
  80d3dc:	8009883a 	mov	r4,r16
  80d3e0:	080ba880 	call	80ba88 <memmove>
  80d3e4:	b80f883a 	mov	r7,r23
  80d3e8:	003ec406 	br	80cefc <_realloc_r+0x84>
  80d3ec:	90c00417 	ldw	r3,16(r18)
  80d3f0:	89400604 	addi	r5,r17,24
  80d3f4:	91000604 	addi	r4,r18,24
  80d3f8:	88c00415 	stw	r3,16(r17)
  80d3fc:	90800517 	ldw	r2,20(r18)
  80d400:	88800515 	stw	r2,20(r17)
  80d404:	003f6806 	br	80d1a8 <_realloc_r+0x330>
  80d408:	900b883a 	mov	r5,r18
  80d40c:	8809883a 	mov	r4,r17
  80d410:	080ba880 	call	80ba88 <memmove>
  80d414:	003fd406 	br	80d368 <_realloc_r+0x4f0>
  80d418:	90c00417 	ldw	r3,16(r18)
  80d41c:	91000604 	addi	r4,r18,24
  80d420:	ba000804 	addi	r8,r23,32
  80d424:	b8c00615 	stw	r3,24(r23)
  80d428:	90800517 	ldw	r2,20(r18)
  80d42c:	b8800715 	stw	r2,28(r23)
  80d430:	003f1206 	br	80d07c <_realloc_r+0x204>
  80d434:	90c00417 	ldw	r3,16(r18)
  80d438:	91000604 	addi	r4,r18,24
  80d43c:	ba000804 	addi	r8,r23,32
  80d440:	b8c00615 	stw	r3,24(r23)
  80d444:	90800517 	ldw	r2,20(r18)
  80d448:	b8800715 	stw	r2,28(r23)
  80d44c:	003f3206 	br	80d118 <_realloc_r+0x2a0>
  80d450:	90c00417 	ldw	r3,16(r18)
  80d454:	91000604 	addi	r4,r18,24
  80d458:	b9c00804 	addi	r7,r23,32
  80d45c:	b8c00615 	stw	r3,24(r23)
  80d460:	90800517 	ldw	r2,20(r18)
  80d464:	b8800715 	stw	r2,28(r23)
  80d468:	003fb906 	br	80d350 <_realloc_r+0x4d8>

0080d46c <__isinfd>:
  80d46c:	200d883a 	mov	r6,r4
  80d470:	0109c83a 	sub	r4,zero,r4
  80d474:	2188b03a 	or	r4,r4,r6
  80d478:	2008d7fa 	srli	r4,r4,31
  80d47c:	00a00034 	movhi	r2,32768
  80d480:	10bfffc4 	addi	r2,r2,-1
  80d484:	1144703a 	and	r2,r2,r5
  80d488:	2088b03a 	or	r4,r4,r2
  80d48c:	009ffc34 	movhi	r2,32752
  80d490:	1105c83a 	sub	r2,r2,r4
  80d494:	0087c83a 	sub	r3,zero,r2
  80d498:	10c4b03a 	or	r2,r2,r3
  80d49c:	1004d7fa 	srli	r2,r2,31
  80d4a0:	00c00044 	movi	r3,1
  80d4a4:	1885c83a 	sub	r2,r3,r2
  80d4a8:	f800283a 	ret

0080d4ac <__isnand>:
  80d4ac:	200d883a 	mov	r6,r4
  80d4b0:	0109c83a 	sub	r4,zero,r4
  80d4b4:	2188b03a 	or	r4,r4,r6
  80d4b8:	2008d7fa 	srli	r4,r4,31
  80d4bc:	00a00034 	movhi	r2,32768
  80d4c0:	10bfffc4 	addi	r2,r2,-1
  80d4c4:	1144703a 	and	r2,r2,r5
  80d4c8:	2088b03a 	or	r4,r4,r2
  80d4cc:	009ffc34 	movhi	r2,32752
  80d4d0:	1105c83a 	sub	r2,r2,r4
  80d4d4:	1004d7fa 	srli	r2,r2,31
  80d4d8:	f800283a 	ret

0080d4dc <_sbrk_r>:
  80d4dc:	defffd04 	addi	sp,sp,-12
  80d4e0:	dc000015 	stw	r16,0(sp)
  80d4e4:	04002074 	movhi	r16,129
  80d4e8:	841c6c04 	addi	r16,r16,29104
  80d4ec:	dc400115 	stw	r17,4(sp)
  80d4f0:	80000015 	stw	zero,0(r16)
  80d4f4:	2023883a 	mov	r17,r4
  80d4f8:	2809883a 	mov	r4,r5
  80d4fc:	dfc00215 	stw	ra,8(sp)
  80d500:	08103b80 	call	8103b8 <sbrk>
  80d504:	1007883a 	mov	r3,r2
  80d508:	00bfffc4 	movi	r2,-1
  80d50c:	18800626 	beq	r3,r2,80d528 <_sbrk_r+0x4c>
  80d510:	1805883a 	mov	r2,r3
  80d514:	dfc00217 	ldw	ra,8(sp)
  80d518:	dc400117 	ldw	r17,4(sp)
  80d51c:	dc000017 	ldw	r16,0(sp)
  80d520:	dec00304 	addi	sp,sp,12
  80d524:	f800283a 	ret
  80d528:	80800017 	ldw	r2,0(r16)
  80d52c:	103ff826 	beq	r2,zero,80d510 <_sbrk_r+0x34>
  80d530:	88800015 	stw	r2,0(r17)
  80d534:	1805883a 	mov	r2,r3
  80d538:	dfc00217 	ldw	ra,8(sp)
  80d53c:	dc400117 	ldw	r17,4(sp)
  80d540:	dc000017 	ldw	r16,0(sp)
  80d544:	dec00304 	addi	sp,sp,12
  80d548:	f800283a 	ret

0080d54c <__sclose>:
  80d54c:	2940038f 	ldh	r5,14(r5)
  80d550:	080d9e01 	jmpi	80d9e0 <_close_r>

0080d554 <__sseek>:
  80d554:	defffe04 	addi	sp,sp,-8
  80d558:	dc000015 	stw	r16,0(sp)
  80d55c:	2821883a 	mov	r16,r5
  80d560:	2940038f 	ldh	r5,14(r5)
  80d564:	dfc00115 	stw	ra,4(sp)
  80d568:	080dc580 	call	80dc58 <_lseek_r>
  80d56c:	1007883a 	mov	r3,r2
  80d570:	00bfffc4 	movi	r2,-1
  80d574:	18800926 	beq	r3,r2,80d59c <__sseek+0x48>
  80d578:	8080030b 	ldhu	r2,12(r16)
  80d57c:	80c01415 	stw	r3,80(r16)
  80d580:	10840014 	ori	r2,r2,4096
  80d584:	8080030d 	sth	r2,12(r16)
  80d588:	1805883a 	mov	r2,r3
  80d58c:	dfc00117 	ldw	ra,4(sp)
  80d590:	dc000017 	ldw	r16,0(sp)
  80d594:	dec00204 	addi	sp,sp,8
  80d598:	f800283a 	ret
  80d59c:	8080030b 	ldhu	r2,12(r16)
  80d5a0:	10bbffcc 	andi	r2,r2,61439
  80d5a4:	8080030d 	sth	r2,12(r16)
  80d5a8:	1805883a 	mov	r2,r3
  80d5ac:	dfc00117 	ldw	ra,4(sp)
  80d5b0:	dc000017 	ldw	r16,0(sp)
  80d5b4:	dec00204 	addi	sp,sp,8
  80d5b8:	f800283a 	ret

0080d5bc <__swrite>:
  80d5bc:	2880030b 	ldhu	r2,12(r5)
  80d5c0:	defffb04 	addi	sp,sp,-20
  80d5c4:	dcc00315 	stw	r19,12(sp)
  80d5c8:	1080400c 	andi	r2,r2,256
  80d5cc:	dc800215 	stw	r18,8(sp)
  80d5d0:	dc400115 	stw	r17,4(sp)
  80d5d4:	dc000015 	stw	r16,0(sp)
  80d5d8:	3027883a 	mov	r19,r6
  80d5dc:	3825883a 	mov	r18,r7
  80d5e0:	dfc00415 	stw	ra,16(sp)
  80d5e4:	2821883a 	mov	r16,r5
  80d5e8:	000d883a 	mov	r6,zero
  80d5ec:	01c00084 	movi	r7,2
  80d5f0:	2023883a 	mov	r17,r4
  80d5f4:	10000226 	beq	r2,zero,80d600 <__swrite+0x44>
  80d5f8:	2940038f 	ldh	r5,14(r5)
  80d5fc:	080dc580 	call	80dc58 <_lseek_r>
  80d600:	8080030b 	ldhu	r2,12(r16)
  80d604:	8140038f 	ldh	r5,14(r16)
  80d608:	8809883a 	mov	r4,r17
  80d60c:	10bbffcc 	andi	r2,r2,61439
  80d610:	980d883a 	mov	r6,r19
  80d614:	900f883a 	mov	r7,r18
  80d618:	8080030d 	sth	r2,12(r16)
  80d61c:	dfc00417 	ldw	ra,16(sp)
  80d620:	dcc00317 	ldw	r19,12(sp)
  80d624:	dc800217 	ldw	r18,8(sp)
  80d628:	dc400117 	ldw	r17,4(sp)
  80d62c:	dc000017 	ldw	r16,0(sp)
  80d630:	dec00504 	addi	sp,sp,20
  80d634:	080d8a01 	jmpi	80d8a0 <_write_r>

0080d638 <__sread>:
  80d638:	defffe04 	addi	sp,sp,-8
  80d63c:	dc000015 	stw	r16,0(sp)
  80d640:	2821883a 	mov	r16,r5
  80d644:	2940038f 	ldh	r5,14(r5)
  80d648:	dfc00115 	stw	ra,4(sp)
  80d64c:	080dcd00 	call	80dcd0 <_read_r>
  80d650:	1007883a 	mov	r3,r2
  80d654:	10000816 	blt	r2,zero,80d678 <__sread+0x40>
  80d658:	80801417 	ldw	r2,80(r16)
  80d65c:	10c5883a 	add	r2,r2,r3
  80d660:	80801415 	stw	r2,80(r16)
  80d664:	1805883a 	mov	r2,r3
  80d668:	dfc00117 	ldw	ra,4(sp)
  80d66c:	dc000017 	ldw	r16,0(sp)
  80d670:	dec00204 	addi	sp,sp,8
  80d674:	f800283a 	ret
  80d678:	8080030b 	ldhu	r2,12(r16)
  80d67c:	10bbffcc 	andi	r2,r2,61439
  80d680:	8080030d 	sth	r2,12(r16)
  80d684:	1805883a 	mov	r2,r3
  80d688:	dfc00117 	ldw	ra,4(sp)
  80d68c:	dc000017 	ldw	r16,0(sp)
  80d690:	dec00204 	addi	sp,sp,8
  80d694:	f800283a 	ret

0080d698 <strcmp>:
  80d698:	2144b03a 	or	r2,r4,r5
  80d69c:	108000cc 	andi	r2,r2,3
  80d6a0:	10001d1e 	bne	r2,zero,80d718 <strcmp+0x80>
  80d6a4:	200f883a 	mov	r7,r4
  80d6a8:	28800017 	ldw	r2,0(r5)
  80d6ac:	21000017 	ldw	r4,0(r4)
  80d6b0:	280d883a 	mov	r6,r5
  80d6b4:	2080161e 	bne	r4,r2,80d710 <strcmp+0x78>
  80d6b8:	023fbff4 	movhi	r8,65279
  80d6bc:	423fbfc4 	addi	r8,r8,-257
  80d6c0:	2207883a 	add	r3,r4,r8
  80d6c4:	01602074 	movhi	r5,32897
  80d6c8:	29602004 	addi	r5,r5,-32640
  80d6cc:	1946703a 	and	r3,r3,r5
  80d6d0:	0104303a 	nor	r2,zero,r4
  80d6d4:	10c4703a 	and	r2,r2,r3
  80d6d8:	10001c1e 	bne	r2,zero,80d74c <strcmp+0xb4>
  80d6dc:	4013883a 	mov	r9,r8
  80d6e0:	2811883a 	mov	r8,r5
  80d6e4:	00000106 	br	80d6ec <strcmp+0x54>
  80d6e8:	1800181e 	bne	r3,zero,80d74c <strcmp+0xb4>
  80d6ec:	39c00104 	addi	r7,r7,4
  80d6f0:	39000017 	ldw	r4,0(r7)
  80d6f4:	31800104 	addi	r6,r6,4
  80d6f8:	31400017 	ldw	r5,0(r6)
  80d6fc:	2245883a 	add	r2,r4,r9
  80d700:	1204703a 	and	r2,r2,r8
  80d704:	0106303a 	nor	r3,zero,r4
  80d708:	1886703a 	and	r3,r3,r2
  80d70c:	217ff626 	beq	r4,r5,80d6e8 <strcmp+0x50>
  80d710:	3809883a 	mov	r4,r7
  80d714:	300b883a 	mov	r5,r6
  80d718:	20c00007 	ldb	r3,0(r4)
  80d71c:	1800051e 	bne	r3,zero,80d734 <strcmp+0x9c>
  80d720:	00000606 	br	80d73c <strcmp+0xa4>
  80d724:	21000044 	addi	r4,r4,1
  80d728:	20c00007 	ldb	r3,0(r4)
  80d72c:	29400044 	addi	r5,r5,1
  80d730:	18000226 	beq	r3,zero,80d73c <strcmp+0xa4>
  80d734:	28800007 	ldb	r2,0(r5)
  80d738:	18bffa26 	beq	r3,r2,80d724 <strcmp+0x8c>
  80d73c:	20c00003 	ldbu	r3,0(r4)
  80d740:	28800003 	ldbu	r2,0(r5)
  80d744:	1885c83a 	sub	r2,r3,r2
  80d748:	f800283a 	ret
  80d74c:	0005883a 	mov	r2,zero
  80d750:	f800283a 	ret

0080d754 <__swbuf_r>:
  80d754:	defffc04 	addi	sp,sp,-16
  80d758:	dc400215 	stw	r17,8(sp)
  80d75c:	dc000115 	stw	r16,4(sp)
  80d760:	dfc00315 	stw	ra,12(sp)
  80d764:	2023883a 	mov	r17,r4
  80d768:	2821883a 	mov	r16,r5
  80d76c:	20000226 	beq	r4,zero,80d778 <__swbuf_r+0x24>
  80d770:	20800e17 	ldw	r2,56(r4)
  80d774:	10002f26 	beq	r2,zero,80d834 <__swbuf_r+0xe0>
  80d778:	3080030b 	ldhu	r2,12(r6)
  80d77c:	30c00617 	ldw	r3,24(r6)
  80d780:	1080020c 	andi	r2,r2,8
  80d784:	30c00215 	stw	r3,8(r6)
  80d788:	10002226 	beq	r2,zero,80d814 <__swbuf_r+0xc0>
  80d78c:	30c00417 	ldw	r3,16(r6)
  80d790:	18002026 	beq	r3,zero,80d814 <__swbuf_r+0xc0>
  80d794:	31000017 	ldw	r4,0(r6)
  80d798:	30800517 	ldw	r2,20(r6)
  80d79c:	20c7c83a 	sub	r3,r4,r3
  80d7a0:	18802f0e 	bge	r3,r2,80d860 <__swbuf_r+0x10c>
  80d7a4:	19400044 	addi	r5,r3,1
  80d7a8:	30800217 	ldw	r2,8(r6)
  80d7ac:	84003fcc 	andi	r16,r16,255
  80d7b0:	20c00044 	addi	r3,r4,1
  80d7b4:	10bfffc4 	addi	r2,r2,-1
  80d7b8:	30800215 	stw	r2,8(r6)
  80d7bc:	24000005 	stb	r16,0(r4)
  80d7c0:	30800517 	ldw	r2,20(r6)
  80d7c4:	30c00015 	stw	r3,0(r6)
  80d7c8:	11400c26 	beq	r2,r5,80d7fc <__swbuf_r+0xa8>
  80d7cc:	3080030b 	ldhu	r2,12(r6)
  80d7d0:	1080004c 	andi	r2,r2,1
  80d7d4:	1005003a 	cmpeq	r2,r2,zero
  80d7d8:	10000626 	beq	r2,zero,80d7f4 <__swbuf_r+0xa0>
  80d7dc:	8005883a 	mov	r2,r16
  80d7e0:	dfc00317 	ldw	ra,12(sp)
  80d7e4:	dc400217 	ldw	r17,8(sp)
  80d7e8:	dc000117 	ldw	r16,4(sp)
  80d7ec:	dec00404 	addi	sp,sp,16
  80d7f0:	f800283a 	ret
  80d7f4:	00800284 	movi	r2,10
  80d7f8:	80bff81e 	bne	r16,r2,80d7dc <__swbuf_r+0x88>
  80d7fc:	8809883a 	mov	r4,r17
  80d800:	300b883a 	mov	r5,r6
  80d804:	080a08c0 	call	80a08c <_fflush_r>
  80d808:	103ff426 	beq	r2,zero,80d7dc <__swbuf_r+0x88>
  80d80c:	043fffc4 	movi	r16,-1
  80d810:	003ff206 	br	80d7dc <__swbuf_r+0x88>
  80d814:	300b883a 	mov	r5,r6
  80d818:	8809883a 	mov	r4,r17
  80d81c:	d9800015 	stw	r6,0(sp)
  80d820:	08087580 	call	808758 <__swsetup_r>
  80d824:	d9800017 	ldw	r6,0(sp)
  80d828:	1000061e 	bne	r2,zero,80d844 <__swbuf_r+0xf0>
  80d82c:	30c00417 	ldw	r3,16(r6)
  80d830:	003fd806 	br	80d794 <__swbuf_r+0x40>
  80d834:	d9800015 	stw	r6,0(sp)
  80d838:	080a3240 	call	80a324 <__sinit>
  80d83c:	d9800017 	ldw	r6,0(sp)
  80d840:	003fcd06 	br	80d778 <__swbuf_r+0x24>
  80d844:	3080030b 	ldhu	r2,12(r6)
  80d848:	00c00244 	movi	r3,9
  80d84c:	043fffc4 	movi	r16,-1
  80d850:	10801014 	ori	r2,r2,64
  80d854:	3080030d 	sth	r2,12(r6)
  80d858:	88c00015 	stw	r3,0(r17)
  80d85c:	003fdf06 	br	80d7dc <__swbuf_r+0x88>
  80d860:	300b883a 	mov	r5,r6
  80d864:	8809883a 	mov	r4,r17
  80d868:	d9800015 	stw	r6,0(sp)
  80d86c:	080a08c0 	call	80a08c <_fflush_r>
  80d870:	d9800017 	ldw	r6,0(sp)
  80d874:	103fe51e 	bne	r2,zero,80d80c <__swbuf_r+0xb8>
  80d878:	31000017 	ldw	r4,0(r6)
  80d87c:	01400044 	movi	r5,1
  80d880:	003fc906 	br	80d7a8 <__swbuf_r+0x54>

0080d884 <__swbuf>:
  80d884:	01802074 	movhi	r6,129
  80d888:	3194d404 	addi	r6,r6,21328
  80d88c:	2007883a 	mov	r3,r4
  80d890:	31000017 	ldw	r4,0(r6)
  80d894:	280d883a 	mov	r6,r5
  80d898:	180b883a 	mov	r5,r3
  80d89c:	080d7541 	jmpi	80d754 <__swbuf_r>

0080d8a0 <_write_r>:
  80d8a0:	defffd04 	addi	sp,sp,-12
  80d8a4:	dc000015 	stw	r16,0(sp)
  80d8a8:	04002074 	movhi	r16,129
  80d8ac:	841c6c04 	addi	r16,r16,29104
  80d8b0:	dc400115 	stw	r17,4(sp)
  80d8b4:	80000015 	stw	zero,0(r16)
  80d8b8:	2023883a 	mov	r17,r4
  80d8bc:	2809883a 	mov	r4,r5
  80d8c0:	300b883a 	mov	r5,r6
  80d8c4:	380d883a 	mov	r6,r7
  80d8c8:	dfc00215 	stw	ra,8(sp)
  80d8cc:	08104a40 	call	8104a4 <write>
  80d8d0:	1007883a 	mov	r3,r2
  80d8d4:	00bfffc4 	movi	r2,-1
  80d8d8:	18800626 	beq	r3,r2,80d8f4 <_write_r+0x54>
  80d8dc:	1805883a 	mov	r2,r3
  80d8e0:	dfc00217 	ldw	ra,8(sp)
  80d8e4:	dc400117 	ldw	r17,4(sp)
  80d8e8:	dc000017 	ldw	r16,0(sp)
  80d8ec:	dec00304 	addi	sp,sp,12
  80d8f0:	f800283a 	ret
  80d8f4:	80800017 	ldw	r2,0(r16)
  80d8f8:	103ff826 	beq	r2,zero,80d8dc <_write_r+0x3c>
  80d8fc:	88800015 	stw	r2,0(r17)
  80d900:	1805883a 	mov	r2,r3
  80d904:	dfc00217 	ldw	ra,8(sp)
  80d908:	dc400117 	ldw	r17,4(sp)
  80d90c:	dc000017 	ldw	r16,0(sp)
  80d910:	dec00304 	addi	sp,sp,12
  80d914:	f800283a 	ret

0080d918 <_calloc_r>:
  80d918:	defffe04 	addi	sp,sp,-8
  80d91c:	dc400015 	stw	r17,0(sp)
  80d920:	2023883a 	mov	r17,r4
  80d924:	2809883a 	mov	r4,r5
  80d928:	300b883a 	mov	r5,r6
  80d92c:	dfc00115 	stw	ra,4(sp)
  80d930:	080f46c0 	call	80f46c <__mulsi3>
  80d934:	100b883a 	mov	r5,r2
  80d938:	8809883a 	mov	r4,r17
  80d93c:	080b2640 	call	80b264 <_malloc_r>
  80d940:	1023883a 	mov	r17,r2
  80d944:	01c00904 	movi	r7,36
  80d948:	10000d26 	beq	r2,zero,80d980 <_calloc_r+0x68>
  80d94c:	10ffff17 	ldw	r3,-4(r2)
  80d950:	1009883a 	mov	r4,r2
  80d954:	00bfff04 	movi	r2,-4
  80d958:	1886703a 	and	r3,r3,r2
  80d95c:	1887883a 	add	r3,r3,r2
  80d960:	180d883a 	mov	r6,r3
  80d964:	000b883a 	mov	r5,zero
  80d968:	38c01736 	bltu	r7,r3,80d9c8 <_calloc_r+0xb0>
  80d96c:	008004c4 	movi	r2,19
  80d970:	10c00836 	bltu	r2,r3,80d994 <_calloc_r+0x7c>
  80d974:	20000215 	stw	zero,8(r4)
  80d978:	20000015 	stw	zero,0(r4)
  80d97c:	20000115 	stw	zero,4(r4)
  80d980:	8805883a 	mov	r2,r17
  80d984:	dfc00117 	ldw	ra,4(sp)
  80d988:	dc400017 	ldw	r17,0(sp)
  80d98c:	dec00204 	addi	sp,sp,8
  80d990:	f800283a 	ret
  80d994:	008006c4 	movi	r2,27
  80d998:	88000015 	stw	zero,0(r17)
  80d99c:	88000115 	stw	zero,4(r17)
  80d9a0:	89000204 	addi	r4,r17,8
  80d9a4:	10fff32e 	bgeu	r2,r3,80d974 <_calloc_r+0x5c>
  80d9a8:	88000215 	stw	zero,8(r17)
  80d9ac:	88000315 	stw	zero,12(r17)
  80d9b0:	89000404 	addi	r4,r17,16
  80d9b4:	19ffef1e 	bne	r3,r7,80d974 <_calloc_r+0x5c>
  80d9b8:	89000604 	addi	r4,r17,24
  80d9bc:	88000415 	stw	zero,16(r17)
  80d9c0:	88000515 	stw	zero,20(r17)
  80d9c4:	003feb06 	br	80d974 <_calloc_r+0x5c>
  80d9c8:	080bb680 	call	80bb68 <memset>
  80d9cc:	8805883a 	mov	r2,r17
  80d9d0:	dfc00117 	ldw	ra,4(sp)
  80d9d4:	dc400017 	ldw	r17,0(sp)
  80d9d8:	dec00204 	addi	sp,sp,8
  80d9dc:	f800283a 	ret

0080d9e0 <_close_r>:
  80d9e0:	defffd04 	addi	sp,sp,-12
  80d9e4:	dc000015 	stw	r16,0(sp)
  80d9e8:	04002074 	movhi	r16,129
  80d9ec:	841c6c04 	addi	r16,r16,29104
  80d9f0:	dc400115 	stw	r17,4(sp)
  80d9f4:	80000015 	stw	zero,0(r16)
  80d9f8:	2023883a 	mov	r17,r4
  80d9fc:	2809883a 	mov	r4,r5
  80da00:	dfc00215 	stw	ra,8(sp)
  80da04:	080f6900 	call	80f690 <close>
  80da08:	1007883a 	mov	r3,r2
  80da0c:	00bfffc4 	movi	r2,-1
  80da10:	18800626 	beq	r3,r2,80da2c <_close_r+0x4c>
  80da14:	1805883a 	mov	r2,r3
  80da18:	dfc00217 	ldw	ra,8(sp)
  80da1c:	dc400117 	ldw	r17,4(sp)
  80da20:	dc000017 	ldw	r16,0(sp)
  80da24:	dec00304 	addi	sp,sp,12
  80da28:	f800283a 	ret
  80da2c:	80800017 	ldw	r2,0(r16)
  80da30:	103ff826 	beq	r2,zero,80da14 <_close_r+0x34>
  80da34:	88800015 	stw	r2,0(r17)
  80da38:	1805883a 	mov	r2,r3
  80da3c:	dfc00217 	ldw	ra,8(sp)
  80da40:	dc400117 	ldw	r17,4(sp)
  80da44:	dc000017 	ldw	r16,0(sp)
  80da48:	dec00304 	addi	sp,sp,12
  80da4c:	f800283a 	ret

0080da50 <_fclose_r>:
  80da50:	defffc04 	addi	sp,sp,-16
  80da54:	dc400115 	stw	r17,4(sp)
  80da58:	dc000015 	stw	r16,0(sp)
  80da5c:	dfc00315 	stw	ra,12(sp)
  80da60:	dc800215 	stw	r18,8(sp)
  80da64:	2821883a 	mov	r16,r5
  80da68:	2023883a 	mov	r17,r4
  80da6c:	28002926 	beq	r5,zero,80db14 <_fclose_r+0xc4>
  80da70:	080a3140 	call	80a314 <__sfp_lock_acquire>
  80da74:	88000226 	beq	r17,zero,80da80 <_fclose_r+0x30>
  80da78:	88800e17 	ldw	r2,56(r17)
  80da7c:	10002d26 	beq	r2,zero,80db34 <_fclose_r+0xe4>
  80da80:	8080030f 	ldh	r2,12(r16)
  80da84:	10002226 	beq	r2,zero,80db10 <_fclose_r+0xc0>
  80da88:	8809883a 	mov	r4,r17
  80da8c:	800b883a 	mov	r5,r16
  80da90:	080a08c0 	call	80a08c <_fflush_r>
  80da94:	1025883a 	mov	r18,r2
  80da98:	80800b17 	ldw	r2,44(r16)
  80da9c:	10000426 	beq	r2,zero,80dab0 <_fclose_r+0x60>
  80daa0:	81400717 	ldw	r5,28(r16)
  80daa4:	8809883a 	mov	r4,r17
  80daa8:	103ee83a 	callr	r2
  80daac:	10002a16 	blt	r2,zero,80db58 <_fclose_r+0x108>
  80dab0:	8080030b 	ldhu	r2,12(r16)
  80dab4:	1080200c 	andi	r2,r2,128
  80dab8:	1000231e 	bne	r2,zero,80db48 <_fclose_r+0xf8>
  80dabc:	81400c17 	ldw	r5,48(r16)
  80dac0:	28000526 	beq	r5,zero,80dad8 <_fclose_r+0x88>
  80dac4:	80801004 	addi	r2,r16,64
  80dac8:	28800226 	beq	r5,r2,80dad4 <_fclose_r+0x84>
  80dacc:	8809883a 	mov	r4,r17
  80dad0:	080a6dc0 	call	80a6dc <_free_r>
  80dad4:	80000c15 	stw	zero,48(r16)
  80dad8:	81401117 	ldw	r5,68(r16)
  80dadc:	28000326 	beq	r5,zero,80daec <_fclose_r+0x9c>
  80dae0:	8809883a 	mov	r4,r17
  80dae4:	080a6dc0 	call	80a6dc <_free_r>
  80dae8:	80001115 	stw	zero,68(r16)
  80daec:	8000030d 	sth	zero,12(r16)
  80daf0:	080a3180 	call	80a318 <__sfp_lock_release>
  80daf4:	9005883a 	mov	r2,r18
  80daf8:	dfc00317 	ldw	ra,12(sp)
  80dafc:	dc800217 	ldw	r18,8(sp)
  80db00:	dc400117 	ldw	r17,4(sp)
  80db04:	dc000017 	ldw	r16,0(sp)
  80db08:	dec00404 	addi	sp,sp,16
  80db0c:	f800283a 	ret
  80db10:	080a3180 	call	80a318 <__sfp_lock_release>
  80db14:	0025883a 	mov	r18,zero
  80db18:	9005883a 	mov	r2,r18
  80db1c:	dfc00317 	ldw	ra,12(sp)
  80db20:	dc800217 	ldw	r18,8(sp)
  80db24:	dc400117 	ldw	r17,4(sp)
  80db28:	dc000017 	ldw	r16,0(sp)
  80db2c:	dec00404 	addi	sp,sp,16
  80db30:	f800283a 	ret
  80db34:	8809883a 	mov	r4,r17
  80db38:	080a3240 	call	80a324 <__sinit>
  80db3c:	8080030f 	ldh	r2,12(r16)
  80db40:	103fd11e 	bne	r2,zero,80da88 <_fclose_r+0x38>
  80db44:	003ff206 	br	80db10 <_fclose_r+0xc0>
  80db48:	81400417 	ldw	r5,16(r16)
  80db4c:	8809883a 	mov	r4,r17
  80db50:	080a6dc0 	call	80a6dc <_free_r>
  80db54:	003fd906 	br	80dabc <_fclose_r+0x6c>
  80db58:	04bfffc4 	movi	r18,-1
  80db5c:	003fd406 	br	80dab0 <_fclose_r+0x60>

0080db60 <fclose>:
  80db60:	00802074 	movhi	r2,129
  80db64:	1094d404 	addi	r2,r2,21328
  80db68:	200b883a 	mov	r5,r4
  80db6c:	11000017 	ldw	r4,0(r2)
  80db70:	080da501 	jmpi	80da50 <_fclose_r>

0080db74 <_fstat_r>:
  80db74:	defffd04 	addi	sp,sp,-12
  80db78:	dc000015 	stw	r16,0(sp)
  80db7c:	04002074 	movhi	r16,129
  80db80:	841c6c04 	addi	r16,r16,29104
  80db84:	dc400115 	stw	r17,4(sp)
  80db88:	80000015 	stw	zero,0(r16)
  80db8c:	2023883a 	mov	r17,r4
  80db90:	2809883a 	mov	r4,r5
  80db94:	300b883a 	mov	r5,r6
  80db98:	dfc00215 	stw	ra,8(sp)
  80db9c:	080f81c0 	call	80f81c <fstat>
  80dba0:	1007883a 	mov	r3,r2
  80dba4:	00bfffc4 	movi	r2,-1
  80dba8:	18800626 	beq	r3,r2,80dbc4 <_fstat_r+0x50>
  80dbac:	1805883a 	mov	r2,r3
  80dbb0:	dfc00217 	ldw	ra,8(sp)
  80dbb4:	dc400117 	ldw	r17,4(sp)
  80dbb8:	dc000017 	ldw	r16,0(sp)
  80dbbc:	dec00304 	addi	sp,sp,12
  80dbc0:	f800283a 	ret
  80dbc4:	80800017 	ldw	r2,0(r16)
  80dbc8:	103ff826 	beq	r2,zero,80dbac <_fstat_r+0x38>
  80dbcc:	88800015 	stw	r2,0(r17)
  80dbd0:	1805883a 	mov	r2,r3
  80dbd4:	dfc00217 	ldw	ra,8(sp)
  80dbd8:	dc400117 	ldw	r17,4(sp)
  80dbdc:	dc000017 	ldw	r16,0(sp)
  80dbe0:	dec00304 	addi	sp,sp,12
  80dbe4:	f800283a 	ret

0080dbe8 <_isatty_r>:
  80dbe8:	defffd04 	addi	sp,sp,-12
  80dbec:	dc000015 	stw	r16,0(sp)
  80dbf0:	04002074 	movhi	r16,129
  80dbf4:	841c6c04 	addi	r16,r16,29104
  80dbf8:	dc400115 	stw	r17,4(sp)
  80dbfc:	80000015 	stw	zero,0(r16)
  80dc00:	2023883a 	mov	r17,r4
  80dc04:	2809883a 	mov	r4,r5
  80dc08:	dfc00215 	stw	ra,8(sp)
  80dc0c:	080fb140 	call	80fb14 <isatty>
  80dc10:	1007883a 	mov	r3,r2
  80dc14:	00bfffc4 	movi	r2,-1
  80dc18:	18800626 	beq	r3,r2,80dc34 <_isatty_r+0x4c>
  80dc1c:	1805883a 	mov	r2,r3
  80dc20:	dfc00217 	ldw	ra,8(sp)
  80dc24:	dc400117 	ldw	r17,4(sp)
  80dc28:	dc000017 	ldw	r16,0(sp)
  80dc2c:	dec00304 	addi	sp,sp,12
  80dc30:	f800283a 	ret
  80dc34:	80800017 	ldw	r2,0(r16)
  80dc38:	103ff826 	beq	r2,zero,80dc1c <_isatty_r+0x34>
  80dc3c:	88800015 	stw	r2,0(r17)
  80dc40:	1805883a 	mov	r2,r3
  80dc44:	dfc00217 	ldw	ra,8(sp)
  80dc48:	dc400117 	ldw	r17,4(sp)
  80dc4c:	dc000017 	ldw	r16,0(sp)
  80dc50:	dec00304 	addi	sp,sp,12
  80dc54:	f800283a 	ret

0080dc58 <_lseek_r>:
  80dc58:	defffd04 	addi	sp,sp,-12
  80dc5c:	dc000015 	stw	r16,0(sp)
  80dc60:	04002074 	movhi	r16,129
  80dc64:	841c6c04 	addi	r16,r16,29104
  80dc68:	dc400115 	stw	r17,4(sp)
  80dc6c:	80000015 	stw	zero,0(r16)
  80dc70:	2023883a 	mov	r17,r4
  80dc74:	2809883a 	mov	r4,r5
  80dc78:	300b883a 	mov	r5,r6
  80dc7c:	380d883a 	mov	r6,r7
  80dc80:	dfc00215 	stw	ra,8(sp)
  80dc84:	080fd240 	call	80fd24 <lseek>
  80dc88:	1007883a 	mov	r3,r2
  80dc8c:	00bfffc4 	movi	r2,-1
  80dc90:	18800626 	beq	r3,r2,80dcac <_lseek_r+0x54>
  80dc94:	1805883a 	mov	r2,r3
  80dc98:	dfc00217 	ldw	ra,8(sp)
  80dc9c:	dc400117 	ldw	r17,4(sp)
  80dca0:	dc000017 	ldw	r16,0(sp)
  80dca4:	dec00304 	addi	sp,sp,12
  80dca8:	f800283a 	ret
  80dcac:	80800017 	ldw	r2,0(r16)
  80dcb0:	103ff826 	beq	r2,zero,80dc94 <_lseek_r+0x3c>
  80dcb4:	88800015 	stw	r2,0(r17)
  80dcb8:	1805883a 	mov	r2,r3
  80dcbc:	dfc00217 	ldw	ra,8(sp)
  80dcc0:	dc400117 	ldw	r17,4(sp)
  80dcc4:	dc000017 	ldw	r16,0(sp)
  80dcc8:	dec00304 	addi	sp,sp,12
  80dccc:	f800283a 	ret

0080dcd0 <_read_r>:
  80dcd0:	defffd04 	addi	sp,sp,-12
  80dcd4:	dc000015 	stw	r16,0(sp)
  80dcd8:	04002074 	movhi	r16,129
  80dcdc:	841c6c04 	addi	r16,r16,29104
  80dce0:	dc400115 	stw	r17,4(sp)
  80dce4:	80000015 	stw	zero,0(r16)
  80dce8:	2023883a 	mov	r17,r4
  80dcec:	2809883a 	mov	r4,r5
  80dcf0:	300b883a 	mov	r5,r6
  80dcf4:	380d883a 	mov	r6,r7
  80dcf8:	dfc00215 	stw	ra,8(sp)
  80dcfc:	08101bc0 	call	8101bc <read>
  80dd00:	1007883a 	mov	r3,r2
  80dd04:	00bfffc4 	movi	r2,-1
  80dd08:	18800626 	beq	r3,r2,80dd24 <_read_r+0x54>
  80dd0c:	1805883a 	mov	r2,r3
  80dd10:	dfc00217 	ldw	ra,8(sp)
  80dd14:	dc400117 	ldw	r17,4(sp)
  80dd18:	dc000017 	ldw	r16,0(sp)
  80dd1c:	dec00304 	addi	sp,sp,12
  80dd20:	f800283a 	ret
  80dd24:	80800017 	ldw	r2,0(r16)
  80dd28:	103ff826 	beq	r2,zero,80dd0c <_read_r+0x3c>
  80dd2c:	88800015 	stw	r2,0(r17)
  80dd30:	1805883a 	mov	r2,r3
  80dd34:	dfc00217 	ldw	ra,8(sp)
  80dd38:	dc400117 	ldw	r17,4(sp)
  80dd3c:	dc000017 	ldw	r16,0(sp)
  80dd40:	dec00304 	addi	sp,sp,12
  80dd44:	f800283a 	ret

0080dd48 <__udivdi3>:
  80dd48:	defff104 	addi	sp,sp,-60
  80dd4c:	0015883a 	mov	r10,zero
  80dd50:	2005883a 	mov	r2,r4
  80dd54:	3011883a 	mov	r8,r6
  80dd58:	df000d15 	stw	fp,52(sp)
  80dd5c:	dd400a15 	stw	r21,40(sp)
  80dd60:	dcc00815 	stw	r19,32(sp)
  80dd64:	dfc00e15 	stw	ra,56(sp)
  80dd68:	ddc00c15 	stw	r23,48(sp)
  80dd6c:	dd800b15 	stw	r22,44(sp)
  80dd70:	dd000915 	stw	r20,36(sp)
  80dd74:	dc800715 	stw	r18,28(sp)
  80dd78:	dc400615 	stw	r17,24(sp)
  80dd7c:	dc000515 	stw	r16,20(sp)
  80dd80:	da800315 	stw	r10,12(sp)
  80dd84:	4027883a 	mov	r19,r8
  80dd88:	1039883a 	mov	fp,r2
  80dd8c:	282b883a 	mov	r21,r5
  80dd90:	da800415 	stw	r10,16(sp)
  80dd94:	3800401e 	bne	r7,zero,80de98 <__udivdi3+0x150>
  80dd98:	2a006536 	bltu	r5,r8,80df30 <__udivdi3+0x1e8>
  80dd9c:	4000b526 	beq	r8,zero,80e074 <__udivdi3+0x32c>
  80dda0:	00bfffd4 	movui	r2,65535
  80dda4:	14c0ad36 	bltu	r2,r19,80e05c <__udivdi3+0x314>
  80dda8:	00803fc4 	movi	r2,255
  80ddac:	14c15e36 	bltu	r2,r19,80e328 <__udivdi3+0x5e0>
  80ddb0:	000b883a 	mov	r5,zero
  80ddb4:	0005883a 	mov	r2,zero
  80ddb8:	9884d83a 	srl	r2,r19,r2
  80ddbc:	01002074 	movhi	r4,129
  80ddc0:	210bfb04 	addi	r4,r4,12268
  80ddc4:	01800804 	movi	r6,32
  80ddc8:	1105883a 	add	r2,r2,r4
  80ddcc:	10c00003 	ldbu	r3,0(r2)
  80ddd0:	28c7883a 	add	r3,r5,r3
  80ddd4:	30e9c83a 	sub	r20,r6,r3
  80ddd8:	a0010a1e 	bne	r20,zero,80e204 <__udivdi3+0x4bc>
  80dddc:	982ed43a 	srli	r23,r19,16
  80dde0:	acebc83a 	sub	r21,r21,r19
  80dde4:	9dbfffcc 	andi	r22,r19,65535
  80dde8:	05000044 	movi	r20,1
  80ddec:	a809883a 	mov	r4,r21
  80ddf0:	b80b883a 	mov	r5,r23
  80ddf4:	0805e4c0 	call	805e4c <__udivsi3>
  80ddf8:	100b883a 	mov	r5,r2
  80ddfc:	b009883a 	mov	r4,r22
  80de00:	1021883a 	mov	r16,r2
  80de04:	080f46c0 	call	80f46c <__mulsi3>
  80de08:	a809883a 	mov	r4,r21
  80de0c:	b80b883a 	mov	r5,r23
  80de10:	1023883a 	mov	r17,r2
  80de14:	0805e540 	call	805e54 <__umodsi3>
  80de18:	1004943a 	slli	r2,r2,16
  80de1c:	e006d43a 	srli	r3,fp,16
  80de20:	10c4b03a 	or	r2,r2,r3
  80de24:	1440042e 	bgeu	r2,r17,80de38 <__udivdi3+0xf0>
  80de28:	14c5883a 	add	r2,r2,r19
  80de2c:	843fffc4 	addi	r16,r16,-1
  80de30:	14c00136 	bltu	r2,r19,80de38 <__udivdi3+0xf0>
  80de34:	14415c36 	bltu	r2,r17,80e3a8 <__udivdi3+0x660>
  80de38:	1463c83a 	sub	r17,r2,r17
  80de3c:	8809883a 	mov	r4,r17
  80de40:	b80b883a 	mov	r5,r23
  80de44:	0805e4c0 	call	805e4c <__udivsi3>
  80de48:	100b883a 	mov	r5,r2
  80de4c:	b009883a 	mov	r4,r22
  80de50:	102b883a 	mov	r21,r2
  80de54:	080f46c0 	call	80f46c <__mulsi3>
  80de58:	8809883a 	mov	r4,r17
  80de5c:	b80b883a 	mov	r5,r23
  80de60:	1025883a 	mov	r18,r2
  80de64:	0805e540 	call	805e54 <__umodsi3>
  80de68:	1004943a 	slli	r2,r2,16
  80de6c:	e0ffffcc 	andi	r3,fp,65535
  80de70:	10c4b03a 	or	r2,r2,r3
  80de74:	1480042e 	bgeu	r2,r18,80de88 <__udivdi3+0x140>
  80de78:	9885883a 	add	r2,r19,r2
  80de7c:	ad7fffc4 	addi	r21,r21,-1
  80de80:	14c00136 	bltu	r2,r19,80de88 <__udivdi3+0x140>
  80de84:	14813c36 	bltu	r2,r18,80e378 <__udivdi3+0x630>
  80de88:	8004943a 	slli	r2,r16,16
  80de8c:	a009883a 	mov	r4,r20
  80de90:	a884b03a 	or	r2,r21,r2
  80de94:	00001506 	br	80deec <__udivdi3+0x1a4>
  80de98:	380d883a 	mov	r6,r7
  80de9c:	29c06c36 	bltu	r5,r7,80e050 <__udivdi3+0x308>
  80dea0:	00bfffd4 	movui	r2,65535
  80dea4:	11c06436 	bltu	r2,r7,80e038 <__udivdi3+0x2f0>
  80dea8:	00803fc4 	movi	r2,255
  80deac:	11c11836 	bltu	r2,r7,80e310 <__udivdi3+0x5c8>
  80deb0:	000b883a 	mov	r5,zero
  80deb4:	0005883a 	mov	r2,zero
  80deb8:	3084d83a 	srl	r2,r6,r2
  80debc:	01002074 	movhi	r4,129
  80dec0:	210bfb04 	addi	r4,r4,12268
  80dec4:	01c00804 	movi	r7,32
  80dec8:	1105883a 	add	r2,r2,r4
  80decc:	10c00003 	ldbu	r3,0(r2)
  80ded0:	28c7883a 	add	r3,r5,r3
  80ded4:	38edc83a 	sub	r22,r7,r3
  80ded8:	b000731e 	bne	r22,zero,80e0a8 <__udivdi3+0x360>
  80dedc:	35400136 	bltu	r6,r21,80dee4 <__udivdi3+0x19c>
  80dee0:	e4c05b36 	bltu	fp,r19,80e050 <__udivdi3+0x308>
  80dee4:	00800044 	movi	r2,1
  80dee8:	0009883a 	mov	r4,zero
  80deec:	d8800315 	stw	r2,12(sp)
  80def0:	d9400317 	ldw	r5,12(sp)
  80def4:	2007883a 	mov	r3,r4
  80def8:	d9000415 	stw	r4,16(sp)
  80defc:	2805883a 	mov	r2,r5
  80df00:	dfc00e17 	ldw	ra,56(sp)
  80df04:	df000d17 	ldw	fp,52(sp)
  80df08:	ddc00c17 	ldw	r23,48(sp)
  80df0c:	dd800b17 	ldw	r22,44(sp)
  80df10:	dd400a17 	ldw	r21,40(sp)
  80df14:	dd000917 	ldw	r20,36(sp)
  80df18:	dcc00817 	ldw	r19,32(sp)
  80df1c:	dc800717 	ldw	r18,28(sp)
  80df20:	dc400617 	ldw	r17,24(sp)
  80df24:	dc000517 	ldw	r16,20(sp)
  80df28:	dec00f04 	addi	sp,sp,60
  80df2c:	f800283a 	ret
  80df30:	00bfffd4 	movui	r2,65535
  80df34:	12005636 	bltu	r2,r8,80e090 <__udivdi3+0x348>
  80df38:	00803fc4 	movi	r2,255
  80df3c:	12010036 	bltu	r2,r8,80e340 <__udivdi3+0x5f8>
  80df40:	000b883a 	mov	r5,zero
  80df44:	0005883a 	mov	r2,zero
  80df48:	9884d83a 	srl	r2,r19,r2
  80df4c:	01002074 	movhi	r4,129
  80df50:	210bfb04 	addi	r4,r4,12268
  80df54:	01800804 	movi	r6,32
  80df58:	1105883a 	add	r2,r2,r4
  80df5c:	10c00003 	ldbu	r3,0(r2)
  80df60:	28c7883a 	add	r3,r5,r3
  80df64:	30cbc83a 	sub	r5,r6,r3
  80df68:	28000626 	beq	r5,zero,80df84 <__udivdi3+0x23c>
  80df6c:	3145c83a 	sub	r2,r6,r5
  80df70:	e084d83a 	srl	r2,fp,r2
  80df74:	a946983a 	sll	r3,r21,r5
  80df78:	e178983a 	sll	fp,fp,r5
  80df7c:	9966983a 	sll	r19,r19,r5
  80df80:	18aab03a 	or	r21,r3,r2
  80df84:	982ed43a 	srli	r23,r19,16
  80df88:	a809883a 	mov	r4,r21
  80df8c:	9cbfffcc 	andi	r18,r19,65535
  80df90:	b80b883a 	mov	r5,r23
  80df94:	0805e4c0 	call	805e4c <__udivsi3>
  80df98:	100b883a 	mov	r5,r2
  80df9c:	9009883a 	mov	r4,r18
  80dfa0:	1021883a 	mov	r16,r2
  80dfa4:	080f46c0 	call	80f46c <__mulsi3>
  80dfa8:	a809883a 	mov	r4,r21
  80dfac:	b80b883a 	mov	r5,r23
  80dfb0:	1023883a 	mov	r17,r2
  80dfb4:	0805e540 	call	805e54 <__umodsi3>
  80dfb8:	1004943a 	slli	r2,r2,16
  80dfbc:	e006d43a 	srli	r3,fp,16
  80dfc0:	10c4b03a 	or	r2,r2,r3
  80dfc4:	1440042e 	bgeu	r2,r17,80dfd8 <__udivdi3+0x290>
  80dfc8:	14c5883a 	add	r2,r2,r19
  80dfcc:	843fffc4 	addi	r16,r16,-1
  80dfd0:	14c00136 	bltu	r2,r19,80dfd8 <__udivdi3+0x290>
  80dfd4:	1440ea36 	bltu	r2,r17,80e380 <__udivdi3+0x638>
  80dfd8:	1463c83a 	sub	r17,r2,r17
  80dfdc:	8809883a 	mov	r4,r17
  80dfe0:	b80b883a 	mov	r5,r23
  80dfe4:	0805e4c0 	call	805e4c <__udivsi3>
  80dfe8:	100b883a 	mov	r5,r2
  80dfec:	9009883a 	mov	r4,r18
  80dff0:	102b883a 	mov	r21,r2
  80dff4:	080f46c0 	call	80f46c <__mulsi3>
  80dff8:	8809883a 	mov	r4,r17
  80dffc:	b80b883a 	mov	r5,r23
  80e000:	1025883a 	mov	r18,r2
  80e004:	0805e540 	call	805e54 <__umodsi3>
  80e008:	1004943a 	slli	r2,r2,16
  80e00c:	e0ffffcc 	andi	r3,fp,65535
  80e010:	10c4b03a 	or	r2,r2,r3
  80e014:	1480042e 	bgeu	r2,r18,80e028 <__udivdi3+0x2e0>
  80e018:	9885883a 	add	r2,r19,r2
  80e01c:	ad7fffc4 	addi	r21,r21,-1
  80e020:	14c00136 	bltu	r2,r19,80e028 <__udivdi3+0x2e0>
  80e024:	1480d936 	bltu	r2,r18,80e38c <__udivdi3+0x644>
  80e028:	8004943a 	slli	r2,r16,16
  80e02c:	0009883a 	mov	r4,zero
  80e030:	a884b03a 	or	r2,r21,r2
  80e034:	003fad06 	br	80deec <__udivdi3+0x1a4>
  80e038:	00804034 	movhi	r2,256
  80e03c:	10bfffc4 	addi	r2,r2,-1
  80e040:	11c0b636 	bltu	r2,r7,80e31c <__udivdi3+0x5d4>
  80e044:	01400404 	movi	r5,16
  80e048:	2805883a 	mov	r2,r5
  80e04c:	003f9a06 	br	80deb8 <__udivdi3+0x170>
  80e050:	0005883a 	mov	r2,zero
  80e054:	0009883a 	mov	r4,zero
  80e058:	003fa406 	br	80deec <__udivdi3+0x1a4>
  80e05c:	00804034 	movhi	r2,256
  80e060:	10bfffc4 	addi	r2,r2,-1
  80e064:	14c0b336 	bltu	r2,r19,80e334 <__udivdi3+0x5ec>
  80e068:	01400404 	movi	r5,16
  80e06c:	2805883a 	mov	r2,r5
  80e070:	003f5106 	br	80ddb8 <__udivdi3+0x70>
  80e074:	01000044 	movi	r4,1
  80e078:	000b883a 	mov	r5,zero
  80e07c:	0805e4c0 	call	805e4c <__udivsi3>
  80e080:	1027883a 	mov	r19,r2
  80e084:	00bfffd4 	movui	r2,65535
  80e088:	14fff436 	bltu	r2,r19,80e05c <__udivdi3+0x314>
  80e08c:	003f4606 	br	80dda8 <__udivdi3+0x60>
  80e090:	00804034 	movhi	r2,256
  80e094:	10bfffc4 	addi	r2,r2,-1
  80e098:	1200ac36 	bltu	r2,r8,80e34c <__udivdi3+0x604>
  80e09c:	01400404 	movi	r5,16
  80e0a0:	2805883a 	mov	r2,r5
  80e0a4:	003fa806 	br	80df48 <__udivdi3+0x200>
  80e0a8:	3d85c83a 	sub	r2,r7,r22
  80e0ac:	3588983a 	sll	r4,r6,r22
  80e0b0:	9886d83a 	srl	r3,r19,r2
  80e0b4:	a8a2d83a 	srl	r17,r21,r2
  80e0b8:	e084d83a 	srl	r2,fp,r2
  80e0bc:	20eeb03a 	or	r23,r4,r3
  80e0c0:	b824d43a 	srli	r18,r23,16
  80e0c4:	ad86983a 	sll	r3,r21,r22
  80e0c8:	8809883a 	mov	r4,r17
  80e0cc:	900b883a 	mov	r5,r18
  80e0d0:	1886b03a 	or	r3,r3,r2
  80e0d4:	d8c00115 	stw	r3,4(sp)
  80e0d8:	bc3fffcc 	andi	r16,r23,65535
  80e0dc:	0805e4c0 	call	805e4c <__udivsi3>
  80e0e0:	100b883a 	mov	r5,r2
  80e0e4:	8009883a 	mov	r4,r16
  80e0e8:	1029883a 	mov	r20,r2
  80e0ec:	080f46c0 	call	80f46c <__mulsi3>
  80e0f0:	900b883a 	mov	r5,r18
  80e0f4:	8809883a 	mov	r4,r17
  80e0f8:	102b883a 	mov	r21,r2
  80e0fc:	0805e540 	call	805e54 <__umodsi3>
  80e100:	d9400117 	ldw	r5,4(sp)
  80e104:	1004943a 	slli	r2,r2,16
  80e108:	9da6983a 	sll	r19,r19,r22
  80e10c:	2806d43a 	srli	r3,r5,16
  80e110:	10c4b03a 	or	r2,r2,r3
  80e114:	1540032e 	bgeu	r2,r21,80e124 <__udivdi3+0x3dc>
  80e118:	15c5883a 	add	r2,r2,r23
  80e11c:	a53fffc4 	addi	r20,r20,-1
  80e120:	15c0912e 	bgeu	r2,r23,80e368 <__udivdi3+0x620>
  80e124:	1563c83a 	sub	r17,r2,r21
  80e128:	8809883a 	mov	r4,r17
  80e12c:	900b883a 	mov	r5,r18
  80e130:	0805e4c0 	call	805e4c <__udivsi3>
  80e134:	100b883a 	mov	r5,r2
  80e138:	8009883a 	mov	r4,r16
  80e13c:	102b883a 	mov	r21,r2
  80e140:	080f46c0 	call	80f46c <__mulsi3>
  80e144:	8809883a 	mov	r4,r17
  80e148:	900b883a 	mov	r5,r18
  80e14c:	1021883a 	mov	r16,r2
  80e150:	0805e540 	call	805e54 <__umodsi3>
  80e154:	da800117 	ldw	r10,4(sp)
  80e158:	1004943a 	slli	r2,r2,16
  80e15c:	50ffffcc 	andi	r3,r10,65535
  80e160:	10c6b03a 	or	r3,r2,r3
  80e164:	1c00032e 	bgeu	r3,r16,80e174 <__udivdi3+0x42c>
  80e168:	1dc7883a 	add	r3,r3,r23
  80e16c:	ad7fffc4 	addi	r21,r21,-1
  80e170:	1dc0792e 	bgeu	r3,r23,80e358 <__udivdi3+0x610>
  80e174:	a004943a 	slli	r2,r20,16
  80e178:	982ed43a 	srli	r23,r19,16
  80e17c:	9cffffcc 	andi	r19,r19,65535
  80e180:	a8a4b03a 	or	r18,r21,r2
  80e184:	947fffcc 	andi	r17,r18,65535
  80e188:	902ad43a 	srli	r21,r18,16
  80e18c:	8809883a 	mov	r4,r17
  80e190:	980b883a 	mov	r5,r19
  80e194:	1c21c83a 	sub	r16,r3,r16
  80e198:	080f46c0 	call	80f46c <__mulsi3>
  80e19c:	8809883a 	mov	r4,r17
  80e1a0:	b80b883a 	mov	r5,r23
  80e1a4:	1029883a 	mov	r20,r2
  80e1a8:	080f46c0 	call	80f46c <__mulsi3>
  80e1ac:	980b883a 	mov	r5,r19
  80e1b0:	a809883a 	mov	r4,r21
  80e1b4:	1023883a 	mov	r17,r2
  80e1b8:	080f46c0 	call	80f46c <__mulsi3>
  80e1bc:	a809883a 	mov	r4,r21
  80e1c0:	b80b883a 	mov	r5,r23
  80e1c4:	1027883a 	mov	r19,r2
  80e1c8:	080f46c0 	call	80f46c <__mulsi3>
  80e1cc:	1009883a 	mov	r4,r2
  80e1d0:	a004d43a 	srli	r2,r20,16
  80e1d4:	8ce3883a 	add	r17,r17,r19
  80e1d8:	1447883a 	add	r3,r2,r17
  80e1dc:	1cc0022e 	bgeu	r3,r19,80e1e8 <__udivdi3+0x4a0>
  80e1e0:	00800074 	movhi	r2,1
  80e1e4:	2089883a 	add	r4,r4,r2
  80e1e8:	1804d43a 	srli	r2,r3,16
  80e1ec:	2085883a 	add	r2,r4,r2
  80e1f0:	80804436 	bltu	r16,r2,80e304 <__udivdi3+0x5bc>
  80e1f4:	80803e26 	beq	r16,r2,80e2f0 <__udivdi3+0x5a8>
  80e1f8:	9005883a 	mov	r2,r18
  80e1fc:	0009883a 	mov	r4,zero
  80e200:	003f3a06 	br	80deec <__udivdi3+0x1a4>
  80e204:	9d26983a 	sll	r19,r19,r20
  80e208:	3505c83a 	sub	r2,r6,r20
  80e20c:	a8a2d83a 	srl	r17,r21,r2
  80e210:	982ed43a 	srli	r23,r19,16
  80e214:	e084d83a 	srl	r2,fp,r2
  80e218:	ad06983a 	sll	r3,r21,r20
  80e21c:	8809883a 	mov	r4,r17
  80e220:	b80b883a 	mov	r5,r23
  80e224:	1886b03a 	or	r3,r3,r2
  80e228:	d8c00015 	stw	r3,0(sp)
  80e22c:	9dbfffcc 	andi	r22,r19,65535
  80e230:	0805e4c0 	call	805e4c <__udivsi3>
  80e234:	100b883a 	mov	r5,r2
  80e238:	b009883a 	mov	r4,r22
  80e23c:	d8800215 	stw	r2,8(sp)
  80e240:	080f46c0 	call	80f46c <__mulsi3>
  80e244:	8809883a 	mov	r4,r17
  80e248:	b80b883a 	mov	r5,r23
  80e24c:	102b883a 	mov	r21,r2
  80e250:	0805e540 	call	805e54 <__umodsi3>
  80e254:	d9000017 	ldw	r4,0(sp)
  80e258:	1004943a 	slli	r2,r2,16
  80e25c:	2006d43a 	srli	r3,r4,16
  80e260:	10c4b03a 	or	r2,r2,r3
  80e264:	1540052e 	bgeu	r2,r21,80e27c <__udivdi3+0x534>
  80e268:	d9400217 	ldw	r5,8(sp)
  80e26c:	14c5883a 	add	r2,r2,r19
  80e270:	297fffc4 	addi	r5,r5,-1
  80e274:	d9400215 	stw	r5,8(sp)
  80e278:	14c0462e 	bgeu	r2,r19,80e394 <__udivdi3+0x64c>
  80e27c:	1563c83a 	sub	r17,r2,r21
  80e280:	8809883a 	mov	r4,r17
  80e284:	b80b883a 	mov	r5,r23
  80e288:	0805e4c0 	call	805e4c <__udivsi3>
  80e28c:	100b883a 	mov	r5,r2
  80e290:	b009883a 	mov	r4,r22
  80e294:	1025883a 	mov	r18,r2
  80e298:	080f46c0 	call	80f46c <__mulsi3>
  80e29c:	8809883a 	mov	r4,r17
  80e2a0:	b80b883a 	mov	r5,r23
  80e2a4:	1021883a 	mov	r16,r2
  80e2a8:	0805e540 	call	805e54 <__umodsi3>
  80e2ac:	da800017 	ldw	r10,0(sp)
  80e2b0:	1004943a 	slli	r2,r2,16
  80e2b4:	50ffffcc 	andi	r3,r10,65535
  80e2b8:	10c6b03a 	or	r3,r2,r3
  80e2bc:	1c00062e 	bgeu	r3,r16,80e2d8 <__udivdi3+0x590>
  80e2c0:	1cc7883a 	add	r3,r3,r19
  80e2c4:	94bfffc4 	addi	r18,r18,-1
  80e2c8:	1cc00336 	bltu	r3,r19,80e2d8 <__udivdi3+0x590>
  80e2cc:	1c00022e 	bgeu	r3,r16,80e2d8 <__udivdi3+0x590>
  80e2d0:	94bfffc4 	addi	r18,r18,-1
  80e2d4:	1cc7883a 	add	r3,r3,r19
  80e2d8:	d9000217 	ldw	r4,8(sp)
  80e2dc:	e538983a 	sll	fp,fp,r20
  80e2e0:	1c2bc83a 	sub	r21,r3,r16
  80e2e4:	2004943a 	slli	r2,r4,16
  80e2e8:	90a8b03a 	or	r20,r18,r2
  80e2ec:	003ebf06 	br	80ddec <__udivdi3+0xa4>
  80e2f0:	1804943a 	slli	r2,r3,16
  80e2f4:	e588983a 	sll	r4,fp,r22
  80e2f8:	a0ffffcc 	andi	r3,r20,65535
  80e2fc:	10c5883a 	add	r2,r2,r3
  80e300:	20bfbd2e 	bgeu	r4,r2,80e1f8 <__udivdi3+0x4b0>
  80e304:	90bfffc4 	addi	r2,r18,-1
  80e308:	0009883a 	mov	r4,zero
  80e30c:	003ef706 	br	80deec <__udivdi3+0x1a4>
  80e310:	01400204 	movi	r5,8
  80e314:	2805883a 	mov	r2,r5
  80e318:	003ee706 	br	80deb8 <__udivdi3+0x170>
  80e31c:	01400604 	movi	r5,24
  80e320:	2805883a 	mov	r2,r5
  80e324:	003ee406 	br	80deb8 <__udivdi3+0x170>
  80e328:	01400204 	movi	r5,8
  80e32c:	2805883a 	mov	r2,r5
  80e330:	003ea106 	br	80ddb8 <__udivdi3+0x70>
  80e334:	01400604 	movi	r5,24
  80e338:	2805883a 	mov	r2,r5
  80e33c:	003e9e06 	br	80ddb8 <__udivdi3+0x70>
  80e340:	01400204 	movi	r5,8
  80e344:	2805883a 	mov	r2,r5
  80e348:	003eff06 	br	80df48 <__udivdi3+0x200>
  80e34c:	01400604 	movi	r5,24
  80e350:	2805883a 	mov	r2,r5
  80e354:	003efc06 	br	80df48 <__udivdi3+0x200>
  80e358:	1c3f862e 	bgeu	r3,r16,80e174 <__udivdi3+0x42c>
  80e35c:	1dc7883a 	add	r3,r3,r23
  80e360:	ad7fffc4 	addi	r21,r21,-1
  80e364:	003f8306 	br	80e174 <__udivdi3+0x42c>
  80e368:	157f6e2e 	bgeu	r2,r21,80e124 <__udivdi3+0x3dc>
  80e36c:	a53fffc4 	addi	r20,r20,-1
  80e370:	15c5883a 	add	r2,r2,r23
  80e374:	003f6b06 	br	80e124 <__udivdi3+0x3dc>
  80e378:	ad7fffc4 	addi	r21,r21,-1
  80e37c:	003ec206 	br	80de88 <__udivdi3+0x140>
  80e380:	843fffc4 	addi	r16,r16,-1
  80e384:	14c5883a 	add	r2,r2,r19
  80e388:	003f1306 	br	80dfd8 <__udivdi3+0x290>
  80e38c:	ad7fffc4 	addi	r21,r21,-1
  80e390:	003f2506 	br	80e028 <__udivdi3+0x2e0>
  80e394:	157fb92e 	bgeu	r2,r21,80e27c <__udivdi3+0x534>
  80e398:	297fffc4 	addi	r5,r5,-1
  80e39c:	14c5883a 	add	r2,r2,r19
  80e3a0:	d9400215 	stw	r5,8(sp)
  80e3a4:	003fb506 	br	80e27c <__udivdi3+0x534>
  80e3a8:	843fffc4 	addi	r16,r16,-1
  80e3ac:	14c5883a 	add	r2,r2,r19
  80e3b0:	003ea106 	br	80de38 <__udivdi3+0xf0>

0080e3b4 <__umoddi3>:
  80e3b4:	defff004 	addi	sp,sp,-64
  80e3b8:	3011883a 	mov	r8,r6
  80e3bc:	000d883a 	mov	r6,zero
  80e3c0:	dd400b15 	stw	r21,44(sp)
  80e3c4:	dcc00915 	stw	r19,36(sp)
  80e3c8:	dc000615 	stw	r16,24(sp)
  80e3cc:	dfc00f15 	stw	ra,60(sp)
  80e3d0:	df000e15 	stw	fp,56(sp)
  80e3d4:	ddc00d15 	stw	r23,52(sp)
  80e3d8:	dd800c15 	stw	r22,48(sp)
  80e3dc:	dd000a15 	stw	r20,40(sp)
  80e3e0:	dc800815 	stw	r18,32(sp)
  80e3e4:	dc400715 	stw	r17,28(sp)
  80e3e8:	2817883a 	mov	r11,r5
  80e3ec:	d9800415 	stw	r6,16(sp)
  80e3f0:	4027883a 	mov	r19,r8
  80e3f4:	d9800515 	stw	r6,20(sp)
  80e3f8:	2021883a 	mov	r16,r4
  80e3fc:	282b883a 	mov	r21,r5
  80e400:	38002c1e 	bne	r7,zero,80e4b4 <__umoddi3+0x100>
  80e404:	2a005636 	bltu	r5,r8,80e560 <__umoddi3+0x1ac>
  80e408:	40009a26 	beq	r8,zero,80e674 <__umoddi3+0x2c0>
  80e40c:	00bfffd4 	movui	r2,65535
  80e410:	14c09236 	bltu	r2,r19,80e65c <__umoddi3+0x2a8>
  80e414:	00803fc4 	movi	r2,255
  80e418:	14c15c36 	bltu	r2,r19,80e98c <__umoddi3+0x5d8>
  80e41c:	000b883a 	mov	r5,zero
  80e420:	0005883a 	mov	r2,zero
  80e424:	9884d83a 	srl	r2,r19,r2
  80e428:	01002074 	movhi	r4,129
  80e42c:	210bfb04 	addi	r4,r4,12268
  80e430:	01800804 	movi	r6,32
  80e434:	1105883a 	add	r2,r2,r4
  80e438:	10c00003 	ldbu	r3,0(r2)
  80e43c:	28c7883a 	add	r3,r5,r3
  80e440:	30e5c83a 	sub	r18,r6,r3
  80e444:	9000a41e 	bne	r18,zero,80e6d8 <__umoddi3+0x324>
  80e448:	982ed43a 	srli	r23,r19,16
  80e44c:	acebc83a 	sub	r21,r21,r19
  80e450:	9d3fffcc 	andi	r20,r19,65535
  80e454:	002d883a 	mov	r22,zero
  80e458:	a809883a 	mov	r4,r21
  80e45c:	b80b883a 	mov	r5,r23
  80e460:	0805e4c0 	call	805e4c <__udivsi3>
  80e464:	100b883a 	mov	r5,r2
  80e468:	a009883a 	mov	r4,r20
  80e46c:	080f46c0 	call	80f46c <__mulsi3>
  80e470:	a809883a 	mov	r4,r21
  80e474:	b80b883a 	mov	r5,r23
  80e478:	1023883a 	mov	r17,r2
  80e47c:	0805e540 	call	805e54 <__umodsi3>
  80e480:	1004943a 	slli	r2,r2,16
  80e484:	8006d43a 	srli	r3,r16,16
  80e488:	10c4b03a 	or	r2,r2,r3
  80e48c:	1440032e 	bgeu	r2,r17,80e49c <__umoddi3+0xe8>
  80e490:	14c5883a 	add	r2,r2,r19
  80e494:	14c00136 	bltu	r2,r19,80e49c <__umoddi3+0xe8>
  80e498:	14415836 	bltu	r2,r17,80e9fc <__umoddi3+0x648>
  80e49c:	1463c83a 	sub	r17,r2,r17
  80e4a0:	8809883a 	mov	r4,r17
  80e4a4:	b80b883a 	mov	r5,r23
  80e4a8:	0805e4c0 	call	805e4c <__udivsi3>
  80e4ac:	a009883a 	mov	r4,r20
  80e4b0:	00005306 	br	80e600 <__umoddi3+0x24c>
  80e4b4:	380d883a 	mov	r6,r7
  80e4b8:	29c0132e 	bgeu	r5,r7,80e508 <__umoddi3+0x154>
  80e4bc:	d9000415 	stw	r4,16(sp)
  80e4c0:	d9400515 	stw	r5,20(sp)
  80e4c4:	d9400417 	ldw	r5,16(sp)
  80e4c8:	5813883a 	mov	r9,r11
  80e4cc:	2811883a 	mov	r8,r5
  80e4d0:	4005883a 	mov	r2,r8
  80e4d4:	4807883a 	mov	r3,r9
  80e4d8:	dfc00f17 	ldw	ra,60(sp)
  80e4dc:	df000e17 	ldw	fp,56(sp)
  80e4e0:	ddc00d17 	ldw	r23,52(sp)
  80e4e4:	dd800c17 	ldw	r22,48(sp)
  80e4e8:	dd400b17 	ldw	r21,44(sp)
  80e4ec:	dd000a17 	ldw	r20,40(sp)
  80e4f0:	dcc00917 	ldw	r19,36(sp)
  80e4f4:	dc800817 	ldw	r18,32(sp)
  80e4f8:	dc400717 	ldw	r17,28(sp)
  80e4fc:	dc000617 	ldw	r16,24(sp)
  80e500:	dec01004 	addi	sp,sp,64
  80e504:	f800283a 	ret
  80e508:	00bfffd4 	movui	r2,65535
  80e50c:	11c06636 	bltu	r2,r7,80e6a8 <__umoddi3+0x2f4>
  80e510:	00803fc4 	movi	r2,255
  80e514:	11c12036 	bltu	r2,r7,80e998 <__umoddi3+0x5e4>
  80e518:	000b883a 	mov	r5,zero
  80e51c:	0005883a 	mov	r2,zero
  80e520:	3084d83a 	srl	r2,r6,r2
  80e524:	01002074 	movhi	r4,129
  80e528:	210bfb04 	addi	r4,r4,12268
  80e52c:	01c00804 	movi	r7,32
  80e530:	1105883a 	add	r2,r2,r4
  80e534:	10c00003 	ldbu	r3,0(r2)
  80e538:	28c7883a 	add	r3,r5,r3
  80e53c:	38e5c83a 	sub	r18,r7,r3
  80e540:	9000941e 	bne	r18,zero,80e794 <__umoddi3+0x3e0>
  80e544:	35405e36 	bltu	r6,r21,80e6c0 <__umoddi3+0x30c>
  80e548:	84c05d2e 	bgeu	r16,r19,80e6c0 <__umoddi3+0x30c>
  80e54c:	8011883a 	mov	r8,r16
  80e550:	a813883a 	mov	r9,r21
  80e554:	dc000415 	stw	r16,16(sp)
  80e558:	dd400515 	stw	r21,20(sp)
  80e55c:	003fdc06 	br	80e4d0 <__umoddi3+0x11c>
  80e560:	00bfffd4 	movui	r2,65535
  80e564:	12004a36 	bltu	r2,r8,80e690 <__umoddi3+0x2dc>
  80e568:	00803fc4 	movi	r2,255
  80e56c:	12010d36 	bltu	r2,r8,80e9a4 <__umoddi3+0x5f0>
  80e570:	000b883a 	mov	r5,zero
  80e574:	0005883a 	mov	r2,zero
  80e578:	9884d83a 	srl	r2,r19,r2
  80e57c:	01002074 	movhi	r4,129
  80e580:	210bfb04 	addi	r4,r4,12268
  80e584:	01800804 	movi	r6,32
  80e588:	1105883a 	add	r2,r2,r4
  80e58c:	10c00003 	ldbu	r3,0(r2)
  80e590:	28c7883a 	add	r3,r5,r3
  80e594:	30c7c83a 	sub	r3,r6,r3
  80e598:	1800dc1e 	bne	r3,zero,80e90c <__umoddi3+0x558>
  80e59c:	002d883a 	mov	r22,zero
  80e5a0:	982ed43a 	srli	r23,r19,16
  80e5a4:	a809883a 	mov	r4,r21
  80e5a8:	9cbfffcc 	andi	r18,r19,65535
  80e5ac:	b80b883a 	mov	r5,r23
  80e5b0:	0805e4c0 	call	805e4c <__udivsi3>
  80e5b4:	100b883a 	mov	r5,r2
  80e5b8:	9009883a 	mov	r4,r18
  80e5bc:	080f46c0 	call	80f46c <__mulsi3>
  80e5c0:	a809883a 	mov	r4,r21
  80e5c4:	b80b883a 	mov	r5,r23
  80e5c8:	1023883a 	mov	r17,r2
  80e5cc:	0805e540 	call	805e54 <__umodsi3>
  80e5d0:	1004943a 	slli	r2,r2,16
  80e5d4:	8006d43a 	srli	r3,r16,16
  80e5d8:	10c4b03a 	or	r2,r2,r3
  80e5dc:	1440032e 	bgeu	r2,r17,80e5ec <__umoddi3+0x238>
  80e5e0:	14c5883a 	add	r2,r2,r19
  80e5e4:	14c00136 	bltu	r2,r19,80e5ec <__umoddi3+0x238>
  80e5e8:	14410236 	bltu	r2,r17,80e9f4 <__umoddi3+0x640>
  80e5ec:	1463c83a 	sub	r17,r2,r17
  80e5f0:	8809883a 	mov	r4,r17
  80e5f4:	b80b883a 	mov	r5,r23
  80e5f8:	0805e4c0 	call	805e4c <__udivsi3>
  80e5fc:	9009883a 	mov	r4,r18
  80e600:	100b883a 	mov	r5,r2
  80e604:	080f46c0 	call	80f46c <__mulsi3>
  80e608:	8809883a 	mov	r4,r17
  80e60c:	b80b883a 	mov	r5,r23
  80e610:	102b883a 	mov	r21,r2
  80e614:	0805e540 	call	805e54 <__umodsi3>
  80e618:	1004943a 	slli	r2,r2,16
  80e61c:	80ffffcc 	andi	r3,r16,65535
  80e620:	10c4b03a 	or	r2,r2,r3
  80e624:	1540042e 	bgeu	r2,r21,80e638 <__umoddi3+0x284>
  80e628:	14c5883a 	add	r2,r2,r19
  80e62c:	14c00236 	bltu	r2,r19,80e638 <__umoddi3+0x284>
  80e630:	1540012e 	bgeu	r2,r21,80e638 <__umoddi3+0x284>
  80e634:	14c5883a 	add	r2,r2,r19
  80e638:	1545c83a 	sub	r2,r2,r21
  80e63c:	1584d83a 	srl	r2,r2,r22
  80e640:	0013883a 	mov	r9,zero
  80e644:	d8800415 	stw	r2,16(sp)
  80e648:	d8c00417 	ldw	r3,16(sp)
  80e64c:	0005883a 	mov	r2,zero
  80e650:	d8800515 	stw	r2,20(sp)
  80e654:	1811883a 	mov	r8,r3
  80e658:	003f9d06 	br	80e4d0 <__umoddi3+0x11c>
  80e65c:	00804034 	movhi	r2,256
  80e660:	10bfffc4 	addi	r2,r2,-1
  80e664:	14c0c636 	bltu	r2,r19,80e980 <__umoddi3+0x5cc>
  80e668:	01400404 	movi	r5,16
  80e66c:	2805883a 	mov	r2,r5
  80e670:	003f6c06 	br	80e424 <__umoddi3+0x70>
  80e674:	01000044 	movi	r4,1
  80e678:	000b883a 	mov	r5,zero
  80e67c:	0805e4c0 	call	805e4c <__udivsi3>
  80e680:	1027883a 	mov	r19,r2
  80e684:	00bfffd4 	movui	r2,65535
  80e688:	14fff436 	bltu	r2,r19,80e65c <__umoddi3+0x2a8>
  80e68c:	003f6106 	br	80e414 <__umoddi3+0x60>
  80e690:	00804034 	movhi	r2,256
  80e694:	10bfffc4 	addi	r2,r2,-1
  80e698:	1200c536 	bltu	r2,r8,80e9b0 <__umoddi3+0x5fc>
  80e69c:	01400404 	movi	r5,16
  80e6a0:	2805883a 	mov	r2,r5
  80e6a4:	003fb406 	br	80e578 <__umoddi3+0x1c4>
  80e6a8:	00804034 	movhi	r2,256
  80e6ac:	10bfffc4 	addi	r2,r2,-1
  80e6b0:	11c0c236 	bltu	r2,r7,80e9bc <__umoddi3+0x608>
  80e6b4:	01400404 	movi	r5,16
  80e6b8:	2805883a 	mov	r2,r5
  80e6bc:	003f9806 	br	80e520 <__umoddi3+0x16c>
  80e6c0:	84c9c83a 	sub	r4,r16,r19
  80e6c4:	8105803a 	cmpltu	r2,r16,r4
  80e6c8:	a987c83a 	sub	r3,r21,r6
  80e6cc:	18abc83a 	sub	r21,r3,r2
  80e6d0:	2021883a 	mov	r16,r4
  80e6d4:	003f9d06 	br	80e54c <__umoddi3+0x198>
  80e6d8:	9ca6983a 	sll	r19,r19,r18
  80e6dc:	3485c83a 	sub	r2,r6,r18
  80e6e0:	a8a2d83a 	srl	r17,r21,r2
  80e6e4:	982ed43a 	srli	r23,r19,16
  80e6e8:	ac86983a 	sll	r3,r21,r18
  80e6ec:	8084d83a 	srl	r2,r16,r2
  80e6f0:	8809883a 	mov	r4,r17
  80e6f4:	b80b883a 	mov	r5,r23
  80e6f8:	18b8b03a 	or	fp,r3,r2
  80e6fc:	9d3fffcc 	andi	r20,r19,65535
  80e700:	0805e4c0 	call	805e4c <__udivsi3>
  80e704:	100b883a 	mov	r5,r2
  80e708:	a009883a 	mov	r4,r20
  80e70c:	080f46c0 	call	80f46c <__mulsi3>
  80e710:	8809883a 	mov	r4,r17
  80e714:	b80b883a 	mov	r5,r23
  80e718:	102b883a 	mov	r21,r2
  80e71c:	0805e540 	call	805e54 <__umodsi3>
  80e720:	1004943a 	slli	r2,r2,16
  80e724:	e006d43a 	srli	r3,fp,16
  80e728:	902d883a 	mov	r22,r18
  80e72c:	10c4b03a 	or	r2,r2,r3
  80e730:	1540022e 	bgeu	r2,r21,80e73c <__umoddi3+0x388>
  80e734:	14c5883a 	add	r2,r2,r19
  80e738:	14c0ab2e 	bgeu	r2,r19,80e9e8 <__umoddi3+0x634>
  80e73c:	1563c83a 	sub	r17,r2,r21
  80e740:	8809883a 	mov	r4,r17
  80e744:	b80b883a 	mov	r5,r23
  80e748:	0805e4c0 	call	805e4c <__udivsi3>
  80e74c:	100b883a 	mov	r5,r2
  80e750:	a009883a 	mov	r4,r20
  80e754:	080f46c0 	call	80f46c <__mulsi3>
  80e758:	8809883a 	mov	r4,r17
  80e75c:	b80b883a 	mov	r5,r23
  80e760:	102b883a 	mov	r21,r2
  80e764:	0805e540 	call	805e54 <__umodsi3>
  80e768:	1004943a 	slli	r2,r2,16
  80e76c:	e0ffffcc 	andi	r3,fp,65535
  80e770:	10c4b03a 	or	r2,r2,r3
  80e774:	1540042e 	bgeu	r2,r21,80e788 <__umoddi3+0x3d4>
  80e778:	14c5883a 	add	r2,r2,r19
  80e77c:	14c00236 	bltu	r2,r19,80e788 <__umoddi3+0x3d4>
  80e780:	1540012e 	bgeu	r2,r21,80e788 <__umoddi3+0x3d4>
  80e784:	14c5883a 	add	r2,r2,r19
  80e788:	84a0983a 	sll	r16,r16,r18
  80e78c:	156bc83a 	sub	r21,r2,r21
  80e790:	003f3106 	br	80e458 <__umoddi3+0xa4>
  80e794:	3c8fc83a 	sub	r7,r7,r18
  80e798:	3486983a 	sll	r3,r6,r18
  80e79c:	99c4d83a 	srl	r2,r19,r7
  80e7a0:	a9e2d83a 	srl	r17,r21,r7
  80e7a4:	ac8c983a 	sll	r6,r21,r18
  80e7a8:	18acb03a 	or	r22,r3,r2
  80e7ac:	b02ed43a 	srli	r23,r22,16
  80e7b0:	81c4d83a 	srl	r2,r16,r7
  80e7b4:	8809883a 	mov	r4,r17
  80e7b8:	b80b883a 	mov	r5,r23
  80e7bc:	308cb03a 	or	r6,r6,r2
  80e7c0:	d9c00315 	stw	r7,12(sp)
  80e7c4:	d9800215 	stw	r6,8(sp)
  80e7c8:	b53fffcc 	andi	r20,r22,65535
  80e7cc:	0805e4c0 	call	805e4c <__udivsi3>
  80e7d0:	100b883a 	mov	r5,r2
  80e7d4:	a009883a 	mov	r4,r20
  80e7d8:	1039883a 	mov	fp,r2
  80e7dc:	080f46c0 	call	80f46c <__mulsi3>
  80e7e0:	8809883a 	mov	r4,r17
  80e7e4:	b80b883a 	mov	r5,r23
  80e7e8:	102b883a 	mov	r21,r2
  80e7ec:	0805e540 	call	805e54 <__umodsi3>
  80e7f0:	d9000217 	ldw	r4,8(sp)
  80e7f4:	1004943a 	slli	r2,r2,16
  80e7f8:	9ca6983a 	sll	r19,r19,r18
  80e7fc:	2006d43a 	srli	r3,r4,16
  80e800:	84a0983a 	sll	r16,r16,r18
  80e804:	dcc00015 	stw	r19,0(sp)
  80e808:	10c4b03a 	or	r2,r2,r3
  80e80c:	dc000115 	stw	r16,4(sp)
  80e810:	1540032e 	bgeu	r2,r21,80e820 <__umoddi3+0x46c>
  80e814:	1585883a 	add	r2,r2,r22
  80e818:	e73fffc4 	addi	fp,fp,-1
  80e81c:	15806e2e 	bgeu	r2,r22,80e9d8 <__umoddi3+0x624>
  80e820:	1563c83a 	sub	r17,r2,r21
  80e824:	8809883a 	mov	r4,r17
  80e828:	b80b883a 	mov	r5,r23
  80e82c:	0805e4c0 	call	805e4c <__udivsi3>
  80e830:	100b883a 	mov	r5,r2
  80e834:	a009883a 	mov	r4,r20
  80e838:	1021883a 	mov	r16,r2
  80e83c:	080f46c0 	call	80f46c <__mulsi3>
  80e840:	b80b883a 	mov	r5,r23
  80e844:	8809883a 	mov	r4,r17
  80e848:	1029883a 	mov	r20,r2
  80e84c:	0805e540 	call	805e54 <__umodsi3>
  80e850:	d9400217 	ldw	r5,8(sp)
  80e854:	1004943a 	slli	r2,r2,16
  80e858:	28ffffcc 	andi	r3,r5,65535
  80e85c:	10c4b03a 	or	r2,r2,r3
  80e860:	1500032e 	bgeu	r2,r20,80e870 <__umoddi3+0x4bc>
  80e864:	1585883a 	add	r2,r2,r22
  80e868:	843fffc4 	addi	r16,r16,-1
  80e86c:	1580562e 	bgeu	r2,r22,80e9c8 <__umoddi3+0x614>
  80e870:	d9800017 	ldw	r6,0(sp)
  80e874:	e022943a 	slli	r17,fp,16
  80e878:	302ed43a 	srli	r23,r6,16
  80e87c:	8462b03a 	or	r17,r16,r17
  80e880:	34ffffcc 	andi	r19,r6,65535
  80e884:	882ad43a 	srli	r21,r17,16
  80e888:	8c7fffcc 	andi	r17,r17,65535
  80e88c:	8809883a 	mov	r4,r17
  80e890:	980b883a 	mov	r5,r19
  80e894:	1521c83a 	sub	r16,r2,r20
  80e898:	080f46c0 	call	80f46c <__mulsi3>
  80e89c:	8809883a 	mov	r4,r17
  80e8a0:	b80b883a 	mov	r5,r23
  80e8a4:	1029883a 	mov	r20,r2
  80e8a8:	080f46c0 	call	80f46c <__mulsi3>
  80e8ac:	980b883a 	mov	r5,r19
  80e8b0:	a809883a 	mov	r4,r21
  80e8b4:	1023883a 	mov	r17,r2
  80e8b8:	080f46c0 	call	80f46c <__mulsi3>
  80e8bc:	a809883a 	mov	r4,r21
  80e8c0:	b80b883a 	mov	r5,r23
  80e8c4:	1027883a 	mov	r19,r2
  80e8c8:	080f46c0 	call	80f46c <__mulsi3>
  80e8cc:	100b883a 	mov	r5,r2
  80e8d0:	a004d43a 	srli	r2,r20,16
  80e8d4:	8ce3883a 	add	r17,r17,r19
  80e8d8:	1449883a 	add	r4,r2,r17
  80e8dc:	24c0022e 	bgeu	r4,r19,80e8e8 <__umoddi3+0x534>
  80e8e0:	00800074 	movhi	r2,1
  80e8e4:	288b883a 	add	r5,r5,r2
  80e8e8:	2004d43a 	srli	r2,r4,16
  80e8ec:	2008943a 	slli	r4,r4,16
  80e8f0:	a0ffffcc 	andi	r3,r20,65535
  80e8f4:	288d883a 	add	r6,r5,r2
  80e8f8:	20c9883a 	add	r4,r4,r3
  80e8fc:	81800b36 	bltu	r16,r6,80e92c <__umoddi3+0x578>
  80e900:	81804026 	beq	r16,r6,80ea04 <__umoddi3+0x650>
  80e904:	818dc83a 	sub	r6,r16,r6
  80e908:	00000f06 	br	80e948 <__umoddi3+0x594>
  80e90c:	30c5c83a 	sub	r2,r6,r3
  80e910:	182d883a 	mov	r22,r3
  80e914:	8084d83a 	srl	r2,r16,r2
  80e918:	a8c6983a 	sll	r3,r21,r3
  80e91c:	9da6983a 	sll	r19,r19,r22
  80e920:	85a0983a 	sll	r16,r16,r22
  80e924:	18aab03a 	or	r21,r3,r2
  80e928:	003f1d06 	br	80e5a0 <__umoddi3+0x1ec>
  80e92c:	d8c00017 	ldw	r3,0(sp)
  80e930:	20c5c83a 	sub	r2,r4,r3
  80e934:	2089803a 	cmpltu	r4,r4,r2
  80e938:	3587c83a 	sub	r3,r6,r22
  80e93c:	1907c83a 	sub	r3,r3,r4
  80e940:	80cdc83a 	sub	r6,r16,r3
  80e944:	1009883a 	mov	r4,r2
  80e948:	d9400117 	ldw	r5,4(sp)
  80e94c:	2905c83a 	sub	r2,r5,r4
  80e950:	2887803a 	cmpltu	r3,r5,r2
  80e954:	30c7c83a 	sub	r3,r6,r3
  80e958:	d9800317 	ldw	r6,12(sp)
  80e95c:	1484d83a 	srl	r2,r2,r18
  80e960:	1988983a 	sll	r4,r3,r6
  80e964:	1c86d83a 	srl	r3,r3,r18
  80e968:	2088b03a 	or	r4,r4,r2
  80e96c:	2011883a 	mov	r8,r4
  80e970:	1813883a 	mov	r9,r3
  80e974:	d9000415 	stw	r4,16(sp)
  80e978:	d8c00515 	stw	r3,20(sp)
  80e97c:	003ed406 	br	80e4d0 <__umoddi3+0x11c>
  80e980:	01400604 	movi	r5,24
  80e984:	2805883a 	mov	r2,r5
  80e988:	003ea606 	br	80e424 <__umoddi3+0x70>
  80e98c:	01400204 	movi	r5,8
  80e990:	2805883a 	mov	r2,r5
  80e994:	003ea306 	br	80e424 <__umoddi3+0x70>
  80e998:	01400204 	movi	r5,8
  80e99c:	2805883a 	mov	r2,r5
  80e9a0:	003edf06 	br	80e520 <__umoddi3+0x16c>
  80e9a4:	01400204 	movi	r5,8
  80e9a8:	2805883a 	mov	r2,r5
  80e9ac:	003ef206 	br	80e578 <__umoddi3+0x1c4>
  80e9b0:	01400604 	movi	r5,24
  80e9b4:	2805883a 	mov	r2,r5
  80e9b8:	003eef06 	br	80e578 <__umoddi3+0x1c4>
  80e9bc:	01400604 	movi	r5,24
  80e9c0:	2805883a 	mov	r2,r5
  80e9c4:	003ed606 	br	80e520 <__umoddi3+0x16c>
  80e9c8:	153fa92e 	bgeu	r2,r20,80e870 <__umoddi3+0x4bc>
  80e9cc:	843fffc4 	addi	r16,r16,-1
  80e9d0:	1585883a 	add	r2,r2,r22
  80e9d4:	003fa606 	br	80e870 <__umoddi3+0x4bc>
  80e9d8:	157f912e 	bgeu	r2,r21,80e820 <__umoddi3+0x46c>
  80e9dc:	e73fffc4 	addi	fp,fp,-1
  80e9e0:	1585883a 	add	r2,r2,r22
  80e9e4:	003f8e06 	br	80e820 <__umoddi3+0x46c>
  80e9e8:	157f542e 	bgeu	r2,r21,80e73c <__umoddi3+0x388>
  80e9ec:	14c5883a 	add	r2,r2,r19
  80e9f0:	003f5206 	br	80e73c <__umoddi3+0x388>
  80e9f4:	14c5883a 	add	r2,r2,r19
  80e9f8:	003efc06 	br	80e5ec <__umoddi3+0x238>
  80e9fc:	14c5883a 	add	r2,r2,r19
  80ea00:	003ea606 	br	80e49c <__umoddi3+0xe8>
  80ea04:	d8800117 	ldw	r2,4(sp)
  80ea08:	113fc836 	bltu	r2,r4,80e92c <__umoddi3+0x578>
  80ea0c:	000d883a 	mov	r6,zero
  80ea10:	003fcd06 	br	80e948 <__umoddi3+0x594>

0080ea14 <__muldf3>:
  80ea14:	deffe004 	addi	sp,sp,-128
  80ea18:	dc401815 	stw	r17,96(sp)
  80ea1c:	dc400404 	addi	r17,sp,16
  80ea20:	2011883a 	mov	r8,r4
  80ea24:	2813883a 	mov	r9,r5
  80ea28:	dc001715 	stw	r16,92(sp)
  80ea2c:	d809883a 	mov	r4,sp
  80ea30:	880b883a 	mov	r5,r17
  80ea34:	dc000904 	addi	r16,sp,36
  80ea38:	dfc01f15 	stw	ra,124(sp)
  80ea3c:	da400115 	stw	r9,4(sp)
  80ea40:	d9c00315 	stw	r7,12(sp)
  80ea44:	da000015 	stw	r8,0(sp)
  80ea48:	d9800215 	stw	r6,8(sp)
  80ea4c:	ddc01e15 	stw	r23,120(sp)
  80ea50:	dd801d15 	stw	r22,116(sp)
  80ea54:	dd401c15 	stw	r21,112(sp)
  80ea58:	dd001b15 	stw	r20,108(sp)
  80ea5c:	dcc01a15 	stw	r19,104(sp)
  80ea60:	dc801915 	stw	r18,100(sp)
  80ea64:	08061f00 	call	8061f0 <__unpack_d>
  80ea68:	d9000204 	addi	r4,sp,8
  80ea6c:	800b883a 	mov	r5,r16
  80ea70:	08061f00 	call	8061f0 <__unpack_d>
  80ea74:	d9000417 	ldw	r4,16(sp)
  80ea78:	00800044 	movi	r2,1
  80ea7c:	1100102e 	bgeu	r2,r4,80eac0 <__muldf3+0xac>
  80ea80:	d8c00917 	ldw	r3,36(sp)
  80ea84:	10c0062e 	bgeu	r2,r3,80eaa0 <__muldf3+0x8c>
  80ea88:	00800104 	movi	r2,4
  80ea8c:	20800a26 	beq	r4,r2,80eab8 <__muldf3+0xa4>
  80ea90:	1880cc26 	beq	r3,r2,80edc4 <__muldf3+0x3b0>
  80ea94:	00800084 	movi	r2,2
  80ea98:	20800926 	beq	r4,r2,80eac0 <__muldf3+0xac>
  80ea9c:	1880191e 	bne	r3,r2,80eb04 <__muldf3+0xf0>
  80eaa0:	d8c00a17 	ldw	r3,40(sp)
  80eaa4:	d8800517 	ldw	r2,20(sp)
  80eaa8:	8009883a 	mov	r4,r16
  80eaac:	10c4c03a 	cmpne	r2,r2,r3
  80eab0:	d8800a15 	stw	r2,40(sp)
  80eab4:	00000706 	br	80ead4 <__muldf3+0xc0>
  80eab8:	00800084 	movi	r2,2
  80eabc:	1880c326 	beq	r3,r2,80edcc <__muldf3+0x3b8>
  80eac0:	d8800517 	ldw	r2,20(sp)
  80eac4:	d8c00a17 	ldw	r3,40(sp)
  80eac8:	8809883a 	mov	r4,r17
  80eacc:	10c4c03a 	cmpne	r2,r2,r3
  80ead0:	d8800515 	stw	r2,20(sp)
  80ead4:	0805edc0 	call	805edc <__pack_d>
  80ead8:	dfc01f17 	ldw	ra,124(sp)
  80eadc:	ddc01e17 	ldw	r23,120(sp)
  80eae0:	dd801d17 	ldw	r22,116(sp)
  80eae4:	dd401c17 	ldw	r21,112(sp)
  80eae8:	dd001b17 	ldw	r20,108(sp)
  80eaec:	dcc01a17 	ldw	r19,104(sp)
  80eaf0:	dc801917 	ldw	r18,100(sp)
  80eaf4:	dc401817 	ldw	r17,96(sp)
  80eaf8:	dc001717 	ldw	r16,92(sp)
  80eafc:	dec02004 	addi	sp,sp,128
  80eb00:	f800283a 	ret
  80eb04:	dd800717 	ldw	r22,28(sp)
  80eb08:	dc800c17 	ldw	r18,48(sp)
  80eb0c:	002b883a 	mov	r21,zero
  80eb10:	0023883a 	mov	r17,zero
  80eb14:	a80b883a 	mov	r5,r21
  80eb18:	b00d883a 	mov	r6,r22
  80eb1c:	880f883a 	mov	r7,r17
  80eb20:	ddc00817 	ldw	r23,32(sp)
  80eb24:	dcc00d17 	ldw	r19,52(sp)
  80eb28:	9009883a 	mov	r4,r18
  80eb2c:	080f4a40 	call	80f4a4 <__muldi3>
  80eb30:	001b883a 	mov	r13,zero
  80eb34:	680f883a 	mov	r7,r13
  80eb38:	b009883a 	mov	r4,r22
  80eb3c:	000b883a 	mov	r5,zero
  80eb40:	980d883a 	mov	r6,r19
  80eb44:	b82d883a 	mov	r22,r23
  80eb48:	002f883a 	mov	r23,zero
  80eb4c:	db401615 	stw	r13,88(sp)
  80eb50:	d8801315 	stw	r2,76(sp)
  80eb54:	d8c01415 	stw	r3,80(sp)
  80eb58:	dcc01515 	stw	r19,84(sp)
  80eb5c:	080f4a40 	call	80f4a4 <__muldi3>
  80eb60:	b00d883a 	mov	r6,r22
  80eb64:	000b883a 	mov	r5,zero
  80eb68:	9009883a 	mov	r4,r18
  80eb6c:	b80f883a 	mov	r7,r23
  80eb70:	1021883a 	mov	r16,r2
  80eb74:	1823883a 	mov	r17,r3
  80eb78:	080f4a40 	call	80f4a4 <__muldi3>
  80eb7c:	8085883a 	add	r2,r16,r2
  80eb80:	140d803a 	cmpltu	r6,r2,r16
  80eb84:	88c7883a 	add	r3,r17,r3
  80eb88:	30cd883a 	add	r6,r6,r3
  80eb8c:	1029883a 	mov	r20,r2
  80eb90:	302b883a 	mov	r21,r6
  80eb94:	da801317 	ldw	r10,76(sp)
  80eb98:	dac01417 	ldw	r11,80(sp)
  80eb9c:	db001517 	ldw	r12,84(sp)
  80eba0:	db401617 	ldw	r13,88(sp)
  80eba4:	3440612e 	bgeu	r6,r17,80ed2c <__muldf3+0x318>
  80eba8:	0009883a 	mov	r4,zero
  80ebac:	5105883a 	add	r2,r10,r4
  80ebb0:	128d803a 	cmpltu	r6,r2,r10
  80ebb4:	5d07883a 	add	r3,r11,r20
  80ebb8:	30cd883a 	add	r6,r6,r3
  80ebbc:	0021883a 	mov	r16,zero
  80ebc0:	04400044 	movi	r17,1
  80ebc4:	1025883a 	mov	r18,r2
  80ebc8:	3027883a 	mov	r19,r6
  80ebcc:	32c06236 	bltu	r6,r11,80ed58 <__muldf3+0x344>
  80ebd0:	59807a26 	beq	r11,r6,80edbc <__muldf3+0x3a8>
  80ebd4:	680b883a 	mov	r5,r13
  80ebd8:	b80f883a 	mov	r7,r23
  80ebdc:	6009883a 	mov	r4,r12
  80ebe0:	b00d883a 	mov	r6,r22
  80ebe4:	080f4a40 	call	80f4a4 <__muldi3>
  80ebe8:	1009883a 	mov	r4,r2
  80ebec:	000f883a 	mov	r7,zero
  80ebf0:	1545883a 	add	r2,r2,r21
  80ebf4:	1111803a 	cmpltu	r8,r2,r4
  80ebf8:	19c7883a 	add	r3,r3,r7
  80ebfc:	40c7883a 	add	r3,r8,r3
  80ec00:	88cb883a 	add	r5,r17,r3
  80ec04:	d8c00617 	ldw	r3,24(sp)
  80ec08:	8089883a 	add	r4,r16,r2
  80ec0c:	d8800b17 	ldw	r2,44(sp)
  80ec10:	18c00104 	addi	r3,r3,4
  80ec14:	240d803a 	cmpltu	r6,r4,r16
  80ec18:	10c7883a 	add	r3,r2,r3
  80ec1c:	2013883a 	mov	r9,r4
  80ec20:	d8800a17 	ldw	r2,40(sp)
  80ec24:	d9000517 	ldw	r4,20(sp)
  80ec28:	314d883a 	add	r6,r6,r5
  80ec2c:	3015883a 	mov	r10,r6
  80ec30:	2088c03a 	cmpne	r4,r4,r2
  80ec34:	00880034 	movhi	r2,8192
  80ec38:	10bfffc4 	addi	r2,r2,-1
  80ec3c:	d9000f15 	stw	r4,60(sp)
  80ec40:	d8c01015 	stw	r3,64(sp)
  80ec44:	1180162e 	bgeu	r2,r6,80eca0 <__muldf3+0x28c>
  80ec48:	1811883a 	mov	r8,r3
  80ec4c:	101f883a 	mov	r15,r2
  80ec50:	980497fa 	slli	r2,r19,31
  80ec54:	9016d07a 	srli	r11,r18,1
  80ec58:	500697fa 	slli	r3,r10,31
  80ec5c:	480cd07a 	srli	r6,r9,1
  80ec60:	500ed07a 	srli	r7,r10,1
  80ec64:	12d6b03a 	or	r11,r2,r11
  80ec68:	00800044 	movi	r2,1
  80ec6c:	198cb03a 	or	r6,r3,r6
  80ec70:	4888703a 	and	r4,r9,r2
  80ec74:	9818d07a 	srli	r12,r19,1
  80ec78:	001b883a 	mov	r13,zero
  80ec7c:	03a00034 	movhi	r14,32768
  80ec80:	3013883a 	mov	r9,r6
  80ec84:	3815883a 	mov	r10,r7
  80ec88:	4091883a 	add	r8,r8,r2
  80ec8c:	20000226 	beq	r4,zero,80ec98 <__muldf3+0x284>
  80ec90:	5b64b03a 	or	r18,r11,r13
  80ec94:	63a6b03a 	or	r19,r12,r14
  80ec98:	7abfed36 	bltu	r15,r10,80ec50 <__muldf3+0x23c>
  80ec9c:	da001015 	stw	r8,64(sp)
  80eca0:	00840034 	movhi	r2,4096
  80eca4:	10bfffc4 	addi	r2,r2,-1
  80eca8:	12801436 	bltu	r2,r10,80ecfc <__muldf3+0x2e8>
  80ecac:	da001017 	ldw	r8,64(sp)
  80ecb0:	101f883a 	mov	r15,r2
  80ecb4:	4a45883a 	add	r2,r9,r9
  80ecb8:	124d803a 	cmpltu	r6,r2,r9
  80ecbc:	5287883a 	add	r3,r10,r10
  80ecc0:	9497883a 	add	r11,r18,r18
  80ecc4:	5c8f803a 	cmpltu	r7,r11,r18
  80ecc8:	9cd9883a 	add	r12,r19,r19
  80eccc:	01000044 	movi	r4,1
  80ecd0:	30cd883a 	add	r6,r6,r3
  80ecd4:	3b0f883a 	add	r7,r7,r12
  80ecd8:	423fffc4 	addi	r8,r8,-1
  80ecdc:	1013883a 	mov	r9,r2
  80ece0:	3015883a 	mov	r10,r6
  80ece4:	111ab03a 	or	r13,r2,r4
  80ece8:	98003016 	blt	r19,zero,80edac <__muldf3+0x398>
  80ecec:	5825883a 	mov	r18,r11
  80ecf0:	3827883a 	mov	r19,r7
  80ecf4:	7abfef2e 	bgeu	r15,r10,80ecb4 <__muldf3+0x2a0>
  80ecf8:	da001015 	stw	r8,64(sp)
  80ecfc:	00803fc4 	movi	r2,255
  80ed00:	488e703a 	and	r7,r9,r2
  80ed04:	00802004 	movi	r2,128
  80ed08:	0007883a 	mov	r3,zero
  80ed0c:	0011883a 	mov	r8,zero
  80ed10:	38801826 	beq	r7,r2,80ed74 <__muldf3+0x360>
  80ed14:	008000c4 	movi	r2,3
  80ed18:	d9000e04 	addi	r4,sp,56
  80ed1c:	da801215 	stw	r10,72(sp)
  80ed20:	d8800e15 	stw	r2,56(sp)
  80ed24:	da401115 	stw	r9,68(sp)
  80ed28:	003f6a06 	br	80ead4 <__muldf3+0xc0>
  80ed2c:	89802126 	beq	r17,r6,80edb4 <__muldf3+0x3a0>
  80ed30:	0009883a 	mov	r4,zero
  80ed34:	5105883a 	add	r2,r10,r4
  80ed38:	128d803a 	cmpltu	r6,r2,r10
  80ed3c:	5d07883a 	add	r3,r11,r20
  80ed40:	30cd883a 	add	r6,r6,r3
  80ed44:	0021883a 	mov	r16,zero
  80ed48:	0023883a 	mov	r17,zero
  80ed4c:	1025883a 	mov	r18,r2
  80ed50:	3027883a 	mov	r19,r6
  80ed54:	32ff9e2e 	bgeu	r6,r11,80ebd0 <__muldf3+0x1bc>
  80ed58:	00800044 	movi	r2,1
  80ed5c:	8089883a 	add	r4,r16,r2
  80ed60:	240d803a 	cmpltu	r6,r4,r16
  80ed64:	344d883a 	add	r6,r6,r17
  80ed68:	2021883a 	mov	r16,r4
  80ed6c:	3023883a 	mov	r17,r6
  80ed70:	003f9806 	br	80ebd4 <__muldf3+0x1c0>
  80ed74:	403fe71e 	bne	r8,zero,80ed14 <__muldf3+0x300>
  80ed78:	01004004 	movi	r4,256
  80ed7c:	4904703a 	and	r2,r9,r4
  80ed80:	10c4b03a 	or	r2,r2,r3
  80ed84:	103fe31e 	bne	r2,zero,80ed14 <__muldf3+0x300>
  80ed88:	94c4b03a 	or	r2,r18,r19
  80ed8c:	103fe126 	beq	r2,zero,80ed14 <__muldf3+0x300>
  80ed90:	49c5883a 	add	r2,r9,r7
  80ed94:	1251803a 	cmpltu	r8,r2,r9
  80ed98:	4291883a 	add	r8,r8,r10
  80ed9c:	013fc004 	movi	r4,-256
  80eda0:	1112703a 	and	r9,r2,r4
  80eda4:	4015883a 	mov	r10,r8
  80eda8:	003fda06 	br	80ed14 <__muldf3+0x300>
  80edac:	6813883a 	mov	r9,r13
  80edb0:	003fce06 	br	80ecec <__muldf3+0x2d8>
  80edb4:	143f7c36 	bltu	r2,r16,80eba8 <__muldf3+0x194>
  80edb8:	003fdd06 	br	80ed30 <__muldf3+0x31c>
  80edbc:	12bf852e 	bgeu	r2,r10,80ebd4 <__muldf3+0x1c0>
  80edc0:	003fe506 	br	80ed58 <__muldf3+0x344>
  80edc4:	00800084 	movi	r2,2
  80edc8:	20bf351e 	bne	r4,r2,80eaa0 <__muldf3+0x8c>
  80edcc:	01002074 	movhi	r4,129
  80edd0:	210bf604 	addi	r4,r4,12248
  80edd4:	003f3f06 	br	80ead4 <__muldf3+0xc0>

0080edd8 <__divdf3>:
  80edd8:	deffed04 	addi	sp,sp,-76
  80eddc:	dcc01115 	stw	r19,68(sp)
  80ede0:	dcc00404 	addi	r19,sp,16
  80ede4:	2011883a 	mov	r8,r4
  80ede8:	2813883a 	mov	r9,r5
  80edec:	dc000e15 	stw	r16,56(sp)
  80edf0:	d809883a 	mov	r4,sp
  80edf4:	980b883a 	mov	r5,r19
  80edf8:	dc000904 	addi	r16,sp,36
  80edfc:	dfc01215 	stw	ra,72(sp)
  80ee00:	da400115 	stw	r9,4(sp)
  80ee04:	d9c00315 	stw	r7,12(sp)
  80ee08:	da000015 	stw	r8,0(sp)
  80ee0c:	d9800215 	stw	r6,8(sp)
  80ee10:	dc801015 	stw	r18,64(sp)
  80ee14:	dc400f15 	stw	r17,60(sp)
  80ee18:	08061f00 	call	8061f0 <__unpack_d>
  80ee1c:	d9000204 	addi	r4,sp,8
  80ee20:	800b883a 	mov	r5,r16
  80ee24:	08061f00 	call	8061f0 <__unpack_d>
  80ee28:	d9000417 	ldw	r4,16(sp)
  80ee2c:	00800044 	movi	r2,1
  80ee30:	11000b2e 	bgeu	r2,r4,80ee60 <__divdf3+0x88>
  80ee34:	d9400917 	ldw	r5,36(sp)
  80ee38:	1140762e 	bgeu	r2,r5,80f014 <__divdf3+0x23c>
  80ee3c:	d8800517 	ldw	r2,20(sp)
  80ee40:	d8c00a17 	ldw	r3,40(sp)
  80ee44:	01800104 	movi	r6,4
  80ee48:	10c4f03a 	xor	r2,r2,r3
  80ee4c:	d8800515 	stw	r2,20(sp)
  80ee50:	21800226 	beq	r4,r6,80ee5c <__divdf3+0x84>
  80ee54:	00800084 	movi	r2,2
  80ee58:	2080141e 	bne	r4,r2,80eeac <__divdf3+0xd4>
  80ee5c:	29000926 	beq	r5,r4,80ee84 <__divdf3+0xac>
  80ee60:	9809883a 	mov	r4,r19
  80ee64:	0805edc0 	call	805edc <__pack_d>
  80ee68:	dfc01217 	ldw	ra,72(sp)
  80ee6c:	dcc01117 	ldw	r19,68(sp)
  80ee70:	dc801017 	ldw	r18,64(sp)
  80ee74:	dc400f17 	ldw	r17,60(sp)
  80ee78:	dc000e17 	ldw	r16,56(sp)
  80ee7c:	dec01304 	addi	sp,sp,76
  80ee80:	f800283a 	ret
  80ee84:	01002074 	movhi	r4,129
  80ee88:	210bf604 	addi	r4,r4,12248
  80ee8c:	0805edc0 	call	805edc <__pack_d>
  80ee90:	dfc01217 	ldw	ra,72(sp)
  80ee94:	dcc01117 	ldw	r19,68(sp)
  80ee98:	dc801017 	ldw	r18,64(sp)
  80ee9c:	dc400f17 	ldw	r17,60(sp)
  80eea0:	dc000e17 	ldw	r16,56(sp)
  80eea4:	dec01304 	addi	sp,sp,76
  80eea8:	f800283a 	ret
  80eeac:	29805b26 	beq	r5,r6,80f01c <__divdf3+0x244>
  80eeb0:	28802d26 	beq	r5,r2,80ef68 <__divdf3+0x190>
  80eeb4:	d8c00617 	ldw	r3,24(sp)
  80eeb8:	d8800b17 	ldw	r2,44(sp)
  80eebc:	d9c00817 	ldw	r7,32(sp)
  80eec0:	dc400d17 	ldw	r17,52(sp)
  80eec4:	188bc83a 	sub	r5,r3,r2
  80eec8:	d9800717 	ldw	r6,28(sp)
  80eecc:	dc000c17 	ldw	r16,48(sp)
  80eed0:	d9400615 	stw	r5,24(sp)
  80eed4:	3c403836 	bltu	r7,r17,80efb8 <__divdf3+0x1e0>
  80eed8:	89c03626 	beq	r17,r7,80efb4 <__divdf3+0x1dc>
  80eedc:	0015883a 	mov	r10,zero
  80eee0:	001d883a 	mov	r14,zero
  80eee4:	02c40034 	movhi	r11,4096
  80eee8:	001f883a 	mov	r15,zero
  80eeec:	003f883a 	mov	ra,zero
  80eef0:	04800f44 	movi	r18,61
  80eef4:	00000f06 	br	80ef34 <__divdf3+0x15c>
  80eef8:	601d883a 	mov	r14,r12
  80eefc:	681f883a 	mov	r15,r13
  80ef00:	400d883a 	mov	r6,r8
  80ef04:	100f883a 	mov	r7,r2
  80ef08:	3191883a 	add	r8,r6,r6
  80ef0c:	5808d07a 	srli	r4,r11,1
  80ef10:	4185803a 	cmpltu	r2,r8,r6
  80ef14:	39d3883a 	add	r9,r7,r7
  80ef18:	28c6b03a 	or	r3,r5,r3
  80ef1c:	1245883a 	add	r2,r2,r9
  80ef20:	1815883a 	mov	r10,r3
  80ef24:	2017883a 	mov	r11,r4
  80ef28:	400d883a 	mov	r6,r8
  80ef2c:	100f883a 	mov	r7,r2
  80ef30:	fc801726 	beq	ra,r18,80ef90 <__divdf3+0x1b8>
  80ef34:	580a97fa 	slli	r5,r11,31
  80ef38:	5006d07a 	srli	r3,r10,1
  80ef3c:	ffc00044 	addi	ra,ra,1
  80ef40:	3c7ff136 	bltu	r7,r17,80ef08 <__divdf3+0x130>
  80ef44:	3411c83a 	sub	r8,r6,r16
  80ef48:	3205803a 	cmpltu	r2,r6,r8
  80ef4c:	3c53c83a 	sub	r9,r7,r17
  80ef50:	7298b03a 	or	r12,r14,r10
  80ef54:	7adab03a 	or	r13,r15,r11
  80ef58:	4885c83a 	sub	r2,r9,r2
  80ef5c:	89ffe61e 	bne	r17,r7,80eef8 <__divdf3+0x120>
  80ef60:	343fe936 	bltu	r6,r16,80ef08 <__divdf3+0x130>
  80ef64:	003fe406 	br	80eef8 <__divdf3+0x120>
  80ef68:	9809883a 	mov	r4,r19
  80ef6c:	d9800415 	stw	r6,16(sp)
  80ef70:	0805edc0 	call	805edc <__pack_d>
  80ef74:	dfc01217 	ldw	ra,72(sp)
  80ef78:	dcc01117 	ldw	r19,68(sp)
  80ef7c:	dc801017 	ldw	r18,64(sp)
  80ef80:	dc400f17 	ldw	r17,60(sp)
  80ef84:	dc000e17 	ldw	r16,56(sp)
  80ef88:	dec01304 	addi	sp,sp,76
  80ef8c:	f800283a 	ret
  80ef90:	00803fc4 	movi	r2,255
  80ef94:	7090703a 	and	r8,r14,r2
  80ef98:	00802004 	movi	r2,128
  80ef9c:	0007883a 	mov	r3,zero
  80efa0:	0013883a 	mov	r9,zero
  80efa4:	40800d26 	beq	r8,r2,80efdc <__divdf3+0x204>
  80efa8:	dbc00815 	stw	r15,32(sp)
  80efac:	db800715 	stw	r14,28(sp)
  80efb0:	003fab06 	br	80ee60 <__divdf3+0x88>
  80efb4:	343fc92e 	bgeu	r6,r16,80eedc <__divdf3+0x104>
  80efb8:	3185883a 	add	r2,r6,r6
  80efbc:	1189803a 	cmpltu	r4,r2,r6
  80efc0:	39c7883a 	add	r3,r7,r7
  80efc4:	20c9883a 	add	r4,r4,r3
  80efc8:	297fffc4 	addi	r5,r5,-1
  80efcc:	100d883a 	mov	r6,r2
  80efd0:	200f883a 	mov	r7,r4
  80efd4:	d9400615 	stw	r5,24(sp)
  80efd8:	003fc006 	br	80eedc <__divdf3+0x104>
  80efdc:	483ff21e 	bne	r9,zero,80efa8 <__divdf3+0x1d0>
  80efe0:	01004004 	movi	r4,256
  80efe4:	7104703a 	and	r2,r14,r4
  80efe8:	10c4b03a 	or	r2,r2,r3
  80efec:	103fee1e 	bne	r2,zero,80efa8 <__divdf3+0x1d0>
  80eff0:	31c4b03a 	or	r2,r6,r7
  80eff4:	103fec26 	beq	r2,zero,80efa8 <__divdf3+0x1d0>
  80eff8:	7205883a 	add	r2,r14,r8
  80effc:	1391803a 	cmpltu	r8,r2,r14
  80f000:	43d1883a 	add	r8,r8,r15
  80f004:	013fc004 	movi	r4,-256
  80f008:	111c703a 	and	r14,r2,r4
  80f00c:	401f883a 	mov	r15,r8
  80f010:	003fe506 	br	80efa8 <__divdf3+0x1d0>
  80f014:	8009883a 	mov	r4,r16
  80f018:	003f9206 	br	80ee64 <__divdf3+0x8c>
  80f01c:	9809883a 	mov	r4,r19
  80f020:	d8000715 	stw	zero,28(sp)
  80f024:	d8000815 	stw	zero,32(sp)
  80f028:	d8000615 	stw	zero,24(sp)
  80f02c:	003f8d06 	br	80ee64 <__divdf3+0x8c>

0080f030 <__eqdf2>:
  80f030:	deffef04 	addi	sp,sp,-68
  80f034:	dc400f15 	stw	r17,60(sp)
  80f038:	dc400404 	addi	r17,sp,16
  80f03c:	2005883a 	mov	r2,r4
  80f040:	2807883a 	mov	r3,r5
  80f044:	dc000e15 	stw	r16,56(sp)
  80f048:	d809883a 	mov	r4,sp
  80f04c:	880b883a 	mov	r5,r17
  80f050:	dc000904 	addi	r16,sp,36
  80f054:	d8c00115 	stw	r3,4(sp)
  80f058:	d8800015 	stw	r2,0(sp)
  80f05c:	d9800215 	stw	r6,8(sp)
  80f060:	dfc01015 	stw	ra,64(sp)
  80f064:	d9c00315 	stw	r7,12(sp)
  80f068:	08061f00 	call	8061f0 <__unpack_d>
  80f06c:	d9000204 	addi	r4,sp,8
  80f070:	800b883a 	mov	r5,r16
  80f074:	08061f00 	call	8061f0 <__unpack_d>
  80f078:	d8800417 	ldw	r2,16(sp)
  80f07c:	00c00044 	movi	r3,1
  80f080:	180d883a 	mov	r6,r3
  80f084:	1880062e 	bgeu	r3,r2,80f0a0 <__eqdf2+0x70>
  80f088:	d8800917 	ldw	r2,36(sp)
  80f08c:	8809883a 	mov	r4,r17
  80f090:	800b883a 	mov	r5,r16
  80f094:	1880022e 	bgeu	r3,r2,80f0a0 <__eqdf2+0x70>
  80f098:	080f5c80 	call	80f5c8 <__fpcmp_parts_d>
  80f09c:	100d883a 	mov	r6,r2
  80f0a0:	3005883a 	mov	r2,r6
  80f0a4:	dfc01017 	ldw	ra,64(sp)
  80f0a8:	dc400f17 	ldw	r17,60(sp)
  80f0ac:	dc000e17 	ldw	r16,56(sp)
  80f0b0:	dec01104 	addi	sp,sp,68
  80f0b4:	f800283a 	ret

0080f0b8 <__nedf2>:
  80f0b8:	deffef04 	addi	sp,sp,-68
  80f0bc:	dc400f15 	stw	r17,60(sp)
  80f0c0:	dc400404 	addi	r17,sp,16
  80f0c4:	2005883a 	mov	r2,r4
  80f0c8:	2807883a 	mov	r3,r5
  80f0cc:	dc000e15 	stw	r16,56(sp)
  80f0d0:	d809883a 	mov	r4,sp
  80f0d4:	880b883a 	mov	r5,r17
  80f0d8:	dc000904 	addi	r16,sp,36
  80f0dc:	d8c00115 	stw	r3,4(sp)
  80f0e0:	d8800015 	stw	r2,0(sp)
  80f0e4:	d9800215 	stw	r6,8(sp)
  80f0e8:	dfc01015 	stw	ra,64(sp)
  80f0ec:	d9c00315 	stw	r7,12(sp)
  80f0f0:	08061f00 	call	8061f0 <__unpack_d>
  80f0f4:	d9000204 	addi	r4,sp,8
  80f0f8:	800b883a 	mov	r5,r16
  80f0fc:	08061f00 	call	8061f0 <__unpack_d>
  80f100:	d8800417 	ldw	r2,16(sp)
  80f104:	00c00044 	movi	r3,1
  80f108:	180d883a 	mov	r6,r3
  80f10c:	1880062e 	bgeu	r3,r2,80f128 <__nedf2+0x70>
  80f110:	d8800917 	ldw	r2,36(sp)
  80f114:	8809883a 	mov	r4,r17
  80f118:	800b883a 	mov	r5,r16
  80f11c:	1880022e 	bgeu	r3,r2,80f128 <__nedf2+0x70>
  80f120:	080f5c80 	call	80f5c8 <__fpcmp_parts_d>
  80f124:	100d883a 	mov	r6,r2
  80f128:	3005883a 	mov	r2,r6
  80f12c:	dfc01017 	ldw	ra,64(sp)
  80f130:	dc400f17 	ldw	r17,60(sp)
  80f134:	dc000e17 	ldw	r16,56(sp)
  80f138:	dec01104 	addi	sp,sp,68
  80f13c:	f800283a 	ret

0080f140 <__gtdf2>:
  80f140:	deffef04 	addi	sp,sp,-68
  80f144:	dc400f15 	stw	r17,60(sp)
  80f148:	dc400404 	addi	r17,sp,16
  80f14c:	2005883a 	mov	r2,r4
  80f150:	2807883a 	mov	r3,r5
  80f154:	dc000e15 	stw	r16,56(sp)
  80f158:	d809883a 	mov	r4,sp
  80f15c:	880b883a 	mov	r5,r17
  80f160:	dc000904 	addi	r16,sp,36
  80f164:	d8c00115 	stw	r3,4(sp)
  80f168:	d8800015 	stw	r2,0(sp)
  80f16c:	d9800215 	stw	r6,8(sp)
  80f170:	dfc01015 	stw	ra,64(sp)
  80f174:	d9c00315 	stw	r7,12(sp)
  80f178:	08061f00 	call	8061f0 <__unpack_d>
  80f17c:	d9000204 	addi	r4,sp,8
  80f180:	800b883a 	mov	r5,r16
  80f184:	08061f00 	call	8061f0 <__unpack_d>
  80f188:	d8800417 	ldw	r2,16(sp)
  80f18c:	00c00044 	movi	r3,1
  80f190:	01bfffc4 	movi	r6,-1
  80f194:	1880062e 	bgeu	r3,r2,80f1b0 <__gtdf2+0x70>
  80f198:	d8800917 	ldw	r2,36(sp)
  80f19c:	8809883a 	mov	r4,r17
  80f1a0:	800b883a 	mov	r5,r16
  80f1a4:	1880022e 	bgeu	r3,r2,80f1b0 <__gtdf2+0x70>
  80f1a8:	080f5c80 	call	80f5c8 <__fpcmp_parts_d>
  80f1ac:	100d883a 	mov	r6,r2
  80f1b0:	3005883a 	mov	r2,r6
  80f1b4:	dfc01017 	ldw	ra,64(sp)
  80f1b8:	dc400f17 	ldw	r17,60(sp)
  80f1bc:	dc000e17 	ldw	r16,56(sp)
  80f1c0:	dec01104 	addi	sp,sp,68
  80f1c4:	f800283a 	ret

0080f1c8 <__gedf2>:
  80f1c8:	deffef04 	addi	sp,sp,-68
  80f1cc:	dc400f15 	stw	r17,60(sp)
  80f1d0:	dc400404 	addi	r17,sp,16
  80f1d4:	2005883a 	mov	r2,r4
  80f1d8:	2807883a 	mov	r3,r5
  80f1dc:	dc000e15 	stw	r16,56(sp)
  80f1e0:	d809883a 	mov	r4,sp
  80f1e4:	880b883a 	mov	r5,r17
  80f1e8:	dc000904 	addi	r16,sp,36
  80f1ec:	d8c00115 	stw	r3,4(sp)
  80f1f0:	d8800015 	stw	r2,0(sp)
  80f1f4:	d9800215 	stw	r6,8(sp)
  80f1f8:	dfc01015 	stw	ra,64(sp)
  80f1fc:	d9c00315 	stw	r7,12(sp)
  80f200:	08061f00 	call	8061f0 <__unpack_d>
  80f204:	d9000204 	addi	r4,sp,8
  80f208:	800b883a 	mov	r5,r16
  80f20c:	08061f00 	call	8061f0 <__unpack_d>
  80f210:	d8800417 	ldw	r2,16(sp)
  80f214:	00c00044 	movi	r3,1
  80f218:	01bfffc4 	movi	r6,-1
  80f21c:	1880062e 	bgeu	r3,r2,80f238 <__gedf2+0x70>
  80f220:	d8800917 	ldw	r2,36(sp)
  80f224:	8809883a 	mov	r4,r17
  80f228:	800b883a 	mov	r5,r16
  80f22c:	1880022e 	bgeu	r3,r2,80f238 <__gedf2+0x70>
  80f230:	080f5c80 	call	80f5c8 <__fpcmp_parts_d>
  80f234:	100d883a 	mov	r6,r2
  80f238:	3005883a 	mov	r2,r6
  80f23c:	dfc01017 	ldw	ra,64(sp)
  80f240:	dc400f17 	ldw	r17,60(sp)
  80f244:	dc000e17 	ldw	r16,56(sp)
  80f248:	dec01104 	addi	sp,sp,68
  80f24c:	f800283a 	ret

0080f250 <__ltdf2>:
  80f250:	deffef04 	addi	sp,sp,-68
  80f254:	dc400f15 	stw	r17,60(sp)
  80f258:	dc400404 	addi	r17,sp,16
  80f25c:	2005883a 	mov	r2,r4
  80f260:	2807883a 	mov	r3,r5
  80f264:	dc000e15 	stw	r16,56(sp)
  80f268:	d809883a 	mov	r4,sp
  80f26c:	880b883a 	mov	r5,r17
  80f270:	dc000904 	addi	r16,sp,36
  80f274:	d8c00115 	stw	r3,4(sp)
  80f278:	d8800015 	stw	r2,0(sp)
  80f27c:	d9800215 	stw	r6,8(sp)
  80f280:	dfc01015 	stw	ra,64(sp)
  80f284:	d9c00315 	stw	r7,12(sp)
  80f288:	08061f00 	call	8061f0 <__unpack_d>
  80f28c:	d9000204 	addi	r4,sp,8
  80f290:	800b883a 	mov	r5,r16
  80f294:	08061f00 	call	8061f0 <__unpack_d>
  80f298:	d8800417 	ldw	r2,16(sp)
  80f29c:	00c00044 	movi	r3,1
  80f2a0:	180d883a 	mov	r6,r3
  80f2a4:	1880062e 	bgeu	r3,r2,80f2c0 <__ltdf2+0x70>
  80f2a8:	d8800917 	ldw	r2,36(sp)
  80f2ac:	8809883a 	mov	r4,r17
  80f2b0:	800b883a 	mov	r5,r16
  80f2b4:	1880022e 	bgeu	r3,r2,80f2c0 <__ltdf2+0x70>
  80f2b8:	080f5c80 	call	80f5c8 <__fpcmp_parts_d>
  80f2bc:	100d883a 	mov	r6,r2
  80f2c0:	3005883a 	mov	r2,r6
  80f2c4:	dfc01017 	ldw	ra,64(sp)
  80f2c8:	dc400f17 	ldw	r17,60(sp)
  80f2cc:	dc000e17 	ldw	r16,56(sp)
  80f2d0:	dec01104 	addi	sp,sp,68
  80f2d4:	f800283a 	ret

0080f2d8 <__floatunsidf>:
  80f2d8:	defff204 	addi	sp,sp,-56
  80f2dc:	dfc00d15 	stw	ra,52(sp)
  80f2e0:	ddc00c15 	stw	r23,48(sp)
  80f2e4:	dd800b15 	stw	r22,44(sp)
  80f2e8:	dd400a15 	stw	r21,40(sp)
  80f2ec:	dd000915 	stw	r20,36(sp)
  80f2f0:	dcc00815 	stw	r19,32(sp)
  80f2f4:	dc800715 	stw	r18,28(sp)
  80f2f8:	dc400615 	stw	r17,24(sp)
  80f2fc:	dc000515 	stw	r16,20(sp)
  80f300:	d8000115 	stw	zero,4(sp)
  80f304:	20000f1e 	bne	r4,zero,80f344 <__floatunsidf+0x6c>
  80f308:	00800084 	movi	r2,2
  80f30c:	d8800015 	stw	r2,0(sp)
  80f310:	d809883a 	mov	r4,sp
  80f314:	0805edc0 	call	805edc <__pack_d>
  80f318:	dfc00d17 	ldw	ra,52(sp)
  80f31c:	ddc00c17 	ldw	r23,48(sp)
  80f320:	dd800b17 	ldw	r22,44(sp)
  80f324:	dd400a17 	ldw	r21,40(sp)
  80f328:	dd000917 	ldw	r20,36(sp)
  80f32c:	dcc00817 	ldw	r19,32(sp)
  80f330:	dc800717 	ldw	r18,28(sp)
  80f334:	dc400617 	ldw	r17,24(sp)
  80f338:	dc000517 	ldw	r16,20(sp)
  80f33c:	dec00e04 	addi	sp,sp,56
  80f340:	f800283a 	ret
  80f344:	008000c4 	movi	r2,3
  80f348:	00c00f04 	movi	r3,60
  80f34c:	002f883a 	mov	r23,zero
  80f350:	202d883a 	mov	r22,r4
  80f354:	d8800015 	stw	r2,0(sp)
  80f358:	d8c00215 	stw	r3,8(sp)
  80f35c:	d9000315 	stw	r4,12(sp)
  80f360:	ddc00415 	stw	r23,16(sp)
  80f364:	0805e5c0 	call	805e5c <__clzsi2>
  80f368:	12400744 	addi	r9,r2,29
  80f36c:	48000b16 	blt	r9,zero,80f39c <__floatunsidf+0xc4>
  80f370:	483fe726 	beq	r9,zero,80f310 <__floatunsidf+0x38>
  80f374:	10bfff44 	addi	r2,r2,-3
  80f378:	10002e16 	blt	r2,zero,80f434 <__floatunsidf+0x15c>
  80f37c:	b0a2983a 	sll	r17,r22,r2
  80f380:	0021883a 	mov	r16,zero
  80f384:	d8800217 	ldw	r2,8(sp)
  80f388:	dc400415 	stw	r17,16(sp)
  80f38c:	dc000315 	stw	r16,12(sp)
  80f390:	1245c83a 	sub	r2,r2,r9
  80f394:	d8800215 	stw	r2,8(sp)
  80f398:	003fdd06 	br	80f310 <__floatunsidf+0x38>
  80f39c:	0255c83a 	sub	r10,zero,r9
  80f3a0:	51bff804 	addi	r6,r10,-32
  80f3a4:	30001b16 	blt	r6,zero,80f414 <__floatunsidf+0x13c>
  80f3a8:	b9a8d83a 	srl	r20,r23,r6
  80f3ac:	002b883a 	mov	r21,zero
  80f3b0:	000f883a 	mov	r7,zero
  80f3b4:	01000044 	movi	r4,1
  80f3b8:	0011883a 	mov	r8,zero
  80f3bc:	30002516 	blt	r6,zero,80f454 <__floatunsidf+0x17c>
  80f3c0:	21a6983a 	sll	r19,r4,r6
  80f3c4:	0025883a 	mov	r18,zero
  80f3c8:	00bfffc4 	movi	r2,-1
  80f3cc:	9089883a 	add	r4,r18,r2
  80f3d0:	988b883a 	add	r5,r19,r2
  80f3d4:	248d803a 	cmpltu	r6,r4,r18
  80f3d8:	314b883a 	add	r5,r6,r5
  80f3dc:	b104703a 	and	r2,r22,r4
  80f3e0:	b946703a 	and	r3,r23,r5
  80f3e4:	10c4b03a 	or	r2,r2,r3
  80f3e8:	10000226 	beq	r2,zero,80f3f4 <__floatunsidf+0x11c>
  80f3ec:	01c00044 	movi	r7,1
  80f3f0:	0011883a 	mov	r8,zero
  80f3f4:	d9000217 	ldw	r4,8(sp)
  80f3f8:	a1c4b03a 	or	r2,r20,r7
  80f3fc:	aa06b03a 	or	r3,r21,r8
  80f400:	2249c83a 	sub	r4,r4,r9
  80f404:	d8c00415 	stw	r3,16(sp)
  80f408:	d9000215 	stw	r4,8(sp)
  80f40c:	d8800315 	stw	r2,12(sp)
  80f410:	003fbf06 	br	80f310 <__floatunsidf+0x38>
  80f414:	bdc7883a 	add	r3,r23,r23
  80f418:	008007c4 	movi	r2,31
  80f41c:	1285c83a 	sub	r2,r2,r10
  80f420:	1886983a 	sll	r3,r3,r2
  80f424:	b2a8d83a 	srl	r20,r22,r10
  80f428:	baaad83a 	srl	r21,r23,r10
  80f42c:	1d28b03a 	or	r20,r3,r20
  80f430:	003fdf06 	br	80f3b0 <__floatunsidf+0xd8>
  80f434:	b006d07a 	srli	r3,r22,1
  80f438:	008007c4 	movi	r2,31
  80f43c:	1245c83a 	sub	r2,r2,r9
  80f440:	1886d83a 	srl	r3,r3,r2
  80f444:	ba62983a 	sll	r17,r23,r9
  80f448:	b260983a 	sll	r16,r22,r9
  80f44c:	1c62b03a 	or	r17,r3,r17
  80f450:	003fcc06 	br	80f384 <__floatunsidf+0xac>
  80f454:	2006d07a 	srli	r3,r4,1
  80f458:	008007c4 	movi	r2,31
  80f45c:	1285c83a 	sub	r2,r2,r10
  80f460:	18a6d83a 	srl	r19,r3,r2
  80f464:	22a4983a 	sll	r18,r4,r10
  80f468:	003fd706 	br	80f3c8 <__floatunsidf+0xf0>

0080f46c <__mulsi3>:
  80f46c:	20000a26 	beq	r4,zero,80f498 <__mulsi3+0x2c>
  80f470:	0007883a 	mov	r3,zero
  80f474:	2080004c 	andi	r2,r4,1
  80f478:	1005003a 	cmpeq	r2,r2,zero
  80f47c:	2008d07a 	srli	r4,r4,1
  80f480:	1000011e 	bne	r2,zero,80f488 <__mulsi3+0x1c>
  80f484:	1947883a 	add	r3,r3,r5
  80f488:	294b883a 	add	r5,r5,r5
  80f48c:	203ff91e 	bne	r4,zero,80f474 <__mulsi3+0x8>
  80f490:	1805883a 	mov	r2,r3
  80f494:	f800283a 	ret
  80f498:	0007883a 	mov	r3,zero
  80f49c:	1805883a 	mov	r2,r3
  80f4a0:	f800283a 	ret

0080f4a4 <__muldi3>:
  80f4a4:	defff204 	addi	sp,sp,-56
  80f4a8:	df000c15 	stw	fp,48(sp)
  80f4ac:	3038d43a 	srli	fp,r6,16
  80f4b0:	dd000815 	stw	r20,32(sp)
  80f4b4:	dc400515 	stw	r17,20(sp)
  80f4b8:	2028d43a 	srli	r20,r4,16
  80f4bc:	247fffcc 	andi	r17,r4,65535
  80f4c0:	dc000415 	stw	r16,16(sp)
  80f4c4:	343fffcc 	andi	r16,r6,65535
  80f4c8:	dcc00715 	stw	r19,28(sp)
  80f4cc:	d9000015 	stw	r4,0(sp)
  80f4d0:	2827883a 	mov	r19,r5
  80f4d4:	8809883a 	mov	r4,r17
  80f4d8:	d9400115 	stw	r5,4(sp)
  80f4dc:	800b883a 	mov	r5,r16
  80f4e0:	d9800215 	stw	r6,8(sp)
  80f4e4:	dfc00d15 	stw	ra,52(sp)
  80f4e8:	d9c00315 	stw	r7,12(sp)
  80f4ec:	dd800a15 	stw	r22,40(sp)
  80f4f0:	dd400915 	stw	r21,36(sp)
  80f4f4:	302d883a 	mov	r22,r6
  80f4f8:	ddc00b15 	stw	r23,44(sp)
  80f4fc:	dc800615 	stw	r18,24(sp)
  80f500:	080f46c0 	call	80f46c <__mulsi3>
  80f504:	8809883a 	mov	r4,r17
  80f508:	e00b883a 	mov	r5,fp
  80f50c:	102b883a 	mov	r21,r2
  80f510:	080f46c0 	call	80f46c <__mulsi3>
  80f514:	800b883a 	mov	r5,r16
  80f518:	a009883a 	mov	r4,r20
  80f51c:	1023883a 	mov	r17,r2
  80f520:	080f46c0 	call	80f46c <__mulsi3>
  80f524:	a009883a 	mov	r4,r20
  80f528:	e00b883a 	mov	r5,fp
  80f52c:	1021883a 	mov	r16,r2
  80f530:	080f46c0 	call	80f46c <__mulsi3>
  80f534:	a8ffffcc 	andi	r3,r21,65535
  80f538:	a82ad43a 	srli	r21,r21,16
  80f53c:	8c23883a 	add	r17,r17,r16
  80f540:	1011883a 	mov	r8,r2
  80f544:	ac6b883a 	add	r21,r21,r17
  80f548:	a804943a 	slli	r2,r21,16
  80f54c:	b009883a 	mov	r4,r22
  80f550:	980b883a 	mov	r5,r19
  80f554:	10c7883a 	add	r3,r2,r3
  80f558:	a812d43a 	srli	r9,r21,16
  80f55c:	180d883a 	mov	r6,r3
  80f560:	ac00022e 	bgeu	r21,r16,80f56c <__muldi3+0xc8>
  80f564:	00800074 	movhi	r2,1
  80f568:	4091883a 	add	r8,r8,r2
  80f56c:	4267883a 	add	r19,r8,r9
  80f570:	302d883a 	mov	r22,r6
  80f574:	080f46c0 	call	80f46c <__mulsi3>
  80f578:	d9400317 	ldw	r5,12(sp)
  80f57c:	d9000017 	ldw	r4,0(sp)
  80f580:	1023883a 	mov	r17,r2
  80f584:	080f46c0 	call	80f46c <__mulsi3>
  80f588:	14cb883a 	add	r5,r2,r19
  80f58c:	894b883a 	add	r5,r17,r5
  80f590:	b005883a 	mov	r2,r22
  80f594:	2807883a 	mov	r3,r5
  80f598:	dfc00d17 	ldw	ra,52(sp)
  80f59c:	df000c17 	ldw	fp,48(sp)
  80f5a0:	ddc00b17 	ldw	r23,44(sp)
  80f5a4:	dd800a17 	ldw	r22,40(sp)
  80f5a8:	dd400917 	ldw	r21,36(sp)
  80f5ac:	dd000817 	ldw	r20,32(sp)
  80f5b0:	dcc00717 	ldw	r19,28(sp)
  80f5b4:	dc800617 	ldw	r18,24(sp)
  80f5b8:	dc400517 	ldw	r17,20(sp)
  80f5bc:	dc000417 	ldw	r16,16(sp)
  80f5c0:	dec00e04 	addi	sp,sp,56
  80f5c4:	f800283a 	ret

0080f5c8 <__fpcmp_parts_d>:
  80f5c8:	21800017 	ldw	r6,0(r4)
  80f5cc:	00c00044 	movi	r3,1
  80f5d0:	19800a2e 	bgeu	r3,r6,80f5fc <__fpcmp_parts_d+0x34>
  80f5d4:	28800017 	ldw	r2,0(r5)
  80f5d8:	1880082e 	bgeu	r3,r2,80f5fc <__fpcmp_parts_d+0x34>
  80f5dc:	00c00104 	movi	r3,4
  80f5e0:	30c02626 	beq	r6,r3,80f67c <__fpcmp_parts_d+0xb4>
  80f5e4:	10c02226 	beq	r2,r3,80f670 <__fpcmp_parts_d+0xa8>
  80f5e8:	00c00084 	movi	r3,2
  80f5ec:	30c00526 	beq	r6,r3,80f604 <__fpcmp_parts_d+0x3c>
  80f5f0:	10c0071e 	bne	r2,r3,80f610 <__fpcmp_parts_d+0x48>
  80f5f4:	20800117 	ldw	r2,4(r4)
  80f5f8:	1000091e 	bne	r2,zero,80f620 <__fpcmp_parts_d+0x58>
  80f5fc:	00800044 	movi	r2,1
  80f600:	f800283a 	ret
  80f604:	10c01a1e 	bne	r2,r3,80f670 <__fpcmp_parts_d+0xa8>
  80f608:	0005883a 	mov	r2,zero
  80f60c:	f800283a 	ret
  80f610:	22000117 	ldw	r8,4(r4)
  80f614:	28800117 	ldw	r2,4(r5)
  80f618:	40800326 	beq	r8,r2,80f628 <__fpcmp_parts_d+0x60>
  80f61c:	403ff726 	beq	r8,zero,80f5fc <__fpcmp_parts_d+0x34>
  80f620:	00bfffc4 	movi	r2,-1
  80f624:	f800283a 	ret
  80f628:	20c00217 	ldw	r3,8(r4)
  80f62c:	28800217 	ldw	r2,8(r5)
  80f630:	10fffa16 	blt	r2,r3,80f61c <__fpcmp_parts_d+0x54>
  80f634:	18800916 	blt	r3,r2,80f65c <__fpcmp_parts_d+0x94>
  80f638:	21c00417 	ldw	r7,16(r4)
  80f63c:	28c00417 	ldw	r3,16(r5)
  80f640:	21800317 	ldw	r6,12(r4)
  80f644:	28800317 	ldw	r2,12(r5)
  80f648:	19fff436 	bltu	r3,r7,80f61c <__fpcmp_parts_d+0x54>
  80f64c:	38c00526 	beq	r7,r3,80f664 <__fpcmp_parts_d+0x9c>
  80f650:	38c00236 	bltu	r7,r3,80f65c <__fpcmp_parts_d+0x94>
  80f654:	19ffec1e 	bne	r3,r7,80f608 <__fpcmp_parts_d+0x40>
  80f658:	30bfeb2e 	bgeu	r6,r2,80f608 <__fpcmp_parts_d+0x40>
  80f65c:	403fe71e 	bne	r8,zero,80f5fc <__fpcmp_parts_d+0x34>
  80f660:	003fef06 	br	80f620 <__fpcmp_parts_d+0x58>
  80f664:	11bffa2e 	bgeu	r2,r6,80f650 <__fpcmp_parts_d+0x88>
  80f668:	403fe426 	beq	r8,zero,80f5fc <__fpcmp_parts_d+0x34>
  80f66c:	003fec06 	br	80f620 <__fpcmp_parts_d+0x58>
  80f670:	28800117 	ldw	r2,4(r5)
  80f674:	103fe11e 	bne	r2,zero,80f5fc <__fpcmp_parts_d+0x34>
  80f678:	003fe906 	br	80f620 <__fpcmp_parts_d+0x58>
  80f67c:	11bfdd1e 	bne	r2,r6,80f5f4 <__fpcmp_parts_d+0x2c>
  80f680:	28c00117 	ldw	r3,4(r5)
  80f684:	20800117 	ldw	r2,4(r4)
  80f688:	1885c83a 	sub	r2,r3,r2
  80f68c:	f800283a 	ret

0080f690 <close>:
 *
 * ALT_CLOSE is mapped onto the close() system call in alt_syscall.h
 */
 
int ALT_CLOSE (int fildes)
{
  80f690:	defff804 	addi	sp,sp,-32
  80f694:	dfc00715 	stw	ra,28(sp)
  80f698:	df000615 	stw	fp,24(sp)
  80f69c:	df000604 	addi	fp,sp,24
  80f6a0:	e13ffc15 	stw	r4,-16(fp)
   * A common error case is that when the file descriptor was created, the call
   * to open() failed resulting in a negative file descriptor. This is trapped
   * below so that we don't try and process an invalid file descriptor.
   */

  fd = (fildes < 0) ? NULL : &alt_fd_list[fildes];
  80f6a4:	e0bffc17 	ldw	r2,-16(fp)
  80f6a8:	1004803a 	cmplt	r2,r2,zero
  80f6ac:	1000091e 	bne	r2,zero,80f6d4 <close+0x44>
  80f6b0:	e13ffc17 	ldw	r4,-16(fp)
  80f6b4:	01400304 	movi	r5,12
  80f6b8:	080f46c0 	call	80f46c <__mulsi3>
  80f6bc:	1007883a 	mov	r3,r2
  80f6c0:	00802074 	movhi	r2,129
  80f6c4:	10903f04 	addi	r2,r2,16636
  80f6c8:	1887883a 	add	r3,r3,r2
  80f6cc:	e0ffff15 	stw	r3,-4(fp)
  80f6d0:	00000106 	br	80f6d8 <close+0x48>
  80f6d4:	e03fff15 	stw	zero,-4(fp)
  80f6d8:	e0bfff17 	ldw	r2,-4(fp)
  80f6dc:	e0bffb15 	stw	r2,-20(fp)

  if (fd)
  80f6e0:	e0bffb17 	ldw	r2,-20(fp)
  80f6e4:	1005003a 	cmpeq	r2,r2,zero
  80f6e8:	10001d1e 	bne	r2,zero,80f760 <close+0xd0>
    /*
     * If the associated file system/device has a close function, call it so 
     * that any necessary cleanup code can run.
     */

    rval = (fd->dev->close) ? fd->dev->close(fd) : 0;
  80f6ec:	e0bffb17 	ldw	r2,-20(fp)
  80f6f0:	10800017 	ldw	r2,0(r2)
  80f6f4:	10800417 	ldw	r2,16(r2)
  80f6f8:	1005003a 	cmpeq	r2,r2,zero
  80f6fc:	1000071e 	bne	r2,zero,80f71c <close+0x8c>
  80f700:	e0bffb17 	ldw	r2,-20(fp)
  80f704:	10800017 	ldw	r2,0(r2)
  80f708:	10800417 	ldw	r2,16(r2)
  80f70c:	e13ffb17 	ldw	r4,-20(fp)
  80f710:	103ee83a 	callr	r2
  80f714:	e0bffe15 	stw	r2,-8(fp)
  80f718:	00000106 	br	80f720 <close+0x90>
  80f71c:	e03ffe15 	stw	zero,-8(fp)
  80f720:	e0bffe17 	ldw	r2,-8(fp)
  80f724:	e0bffa15 	stw	r2,-24(fp)

    /* Free the file descriptor structure and return. */

    alt_release_fd (fildes);
  80f728:	e13ffc17 	ldw	r4,-16(fp)
  80f72c:	08103400 	call	810340 <alt_release_fd>
    if (rval < 0)
  80f730:	e0bffa17 	ldw	r2,-24(fp)
  80f734:	1004403a 	cmpge	r2,r2,zero
  80f738:	1000071e 	bne	r2,zero,80f758 <close+0xc8>
    {
      ALT_ERRNO = -rval;
  80f73c:	080f7900 	call	80f790 <alt_get_errno>
  80f740:	e0fffa17 	ldw	r3,-24(fp)
  80f744:	00c7c83a 	sub	r3,zero,r3
  80f748:	10c00015 	stw	r3,0(r2)
      return -1;
  80f74c:	00bfffc4 	movi	r2,-1
  80f750:	e0bffd15 	stw	r2,-12(fp)
  80f754:	00000806 	br	80f778 <close+0xe8>
    }
    return 0;
  80f758:	e03ffd15 	stw	zero,-12(fp)
  80f75c:	00000606 	br	80f778 <close+0xe8>
  }
  else
  {
    ALT_ERRNO = EBADFD;
  80f760:	080f7900 	call	80f790 <alt_get_errno>
  80f764:	1007883a 	mov	r3,r2
  80f768:	00801444 	movi	r2,81
  80f76c:	18800015 	stw	r2,0(r3)
    return -1;
  80f770:	00bfffc4 	movi	r2,-1
  80f774:	e0bffd15 	stw	r2,-12(fp)
  80f778:	e0bffd17 	ldw	r2,-12(fp)
  }
}
  80f77c:	e037883a 	mov	sp,fp
  80f780:	dfc00117 	ldw	ra,4(sp)
  80f784:	df000017 	ldw	fp,0(sp)
  80f788:	dec00204 	addi	sp,sp,8
  80f78c:	f800283a 	ret

0080f790 <alt_get_errno>:
#undef errno

extern int errno;

static ALT_INLINE int* alt_get_errno(void)
{
  80f790:	defffd04 	addi	sp,sp,-12
  80f794:	dfc00215 	stw	ra,8(sp)
  80f798:	df000115 	stw	fp,4(sp)
  80f79c:	df000104 	addi	fp,sp,4
  return ((alt_errno) ? alt_errno() : &errno);
  80f7a0:	00802074 	movhi	r2,129
  80f7a4:	1094df04 	addi	r2,r2,21372
  80f7a8:	10800017 	ldw	r2,0(r2)
  80f7ac:	1005003a 	cmpeq	r2,r2,zero
  80f7b0:	1000061e 	bne	r2,zero,80f7cc <alt_get_errno+0x3c>
  80f7b4:	00802074 	movhi	r2,129
  80f7b8:	1094df04 	addi	r2,r2,21372
  80f7bc:	10800017 	ldw	r2,0(r2)
  80f7c0:	103ee83a 	callr	r2
  80f7c4:	e0bfff15 	stw	r2,-4(fp)
  80f7c8:	00000306 	br	80f7d8 <alt_get_errno+0x48>
  80f7cc:	00802074 	movhi	r2,129
  80f7d0:	109c6c04 	addi	r2,r2,29104
  80f7d4:	e0bfff15 	stw	r2,-4(fp)
  80f7d8:	e0bfff17 	ldw	r2,-4(fp)
}
  80f7dc:	e037883a 	mov	sp,fp
  80f7e0:	dfc00117 	ldw	ra,4(sp)
  80f7e4:	df000017 	ldw	fp,0(sp)
  80f7e8:	dec00204 	addi	sp,sp,8
  80f7ec:	f800283a 	ret

0080f7f0 <alt_dev_null_write>:
 * by the alt_dev_null device. It simple discards all data passed to it, and
 * indicates that the data has been successfully transmitted.
 */

static int alt_dev_null_write (alt_fd* fd, const char* ptr, int len)
{
  80f7f0:	defffc04 	addi	sp,sp,-16
  80f7f4:	df000315 	stw	fp,12(sp)
  80f7f8:	df000304 	addi	fp,sp,12
  80f7fc:	e13ffd15 	stw	r4,-12(fp)
  80f800:	e17ffe15 	stw	r5,-8(fp)
  80f804:	e1bfff15 	stw	r6,-4(fp)
  return len;
  80f808:	e0bfff17 	ldw	r2,-4(fp)
}
  80f80c:	e037883a 	mov	sp,fp
  80f810:	df000017 	ldw	fp,0(sp)
  80f814:	dec00104 	addi	sp,sp,4
  80f818:	f800283a 	ret

0080f81c <fstat>:
}

#else /* !ALT_USE_DIRECT_DRIVERS */

int ALT_FSTAT (int file, struct stat *st)
{
  80f81c:	defff904 	addi	sp,sp,-28
  80f820:	dfc00615 	stw	ra,24(sp)
  80f824:	df000515 	stw	fp,20(sp)
  80f828:	df000504 	addi	fp,sp,20
  80f82c:	e13ffc15 	stw	r4,-16(fp)
  80f830:	e17ffd15 	stw	r5,-12(fp)
   * A common error case is that when the file descriptor was created, the call
   * to open() failed resulting in a negative file descriptor. This is trapped
   * below so that we don't try and process an invalid file descriptor.
   */

  fd = (file < 0) ? NULL : &alt_fd_list[file];
  80f834:	e0bffc17 	ldw	r2,-16(fp)
  80f838:	1004803a 	cmplt	r2,r2,zero
  80f83c:	1000091e 	bne	r2,zero,80f864 <fstat+0x48>
  80f840:	e13ffc17 	ldw	r4,-16(fp)
  80f844:	01400304 	movi	r5,12
  80f848:	080f46c0 	call	80f46c <__mulsi3>
  80f84c:	1007883a 	mov	r3,r2
  80f850:	00802074 	movhi	r2,129
  80f854:	10903f04 	addi	r2,r2,16636
  80f858:	1887883a 	add	r3,r3,r2
  80f85c:	e0ffff15 	stw	r3,-4(fp)
  80f860:	00000106 	br	80f868 <fstat+0x4c>
  80f864:	e03fff15 	stw	zero,-4(fp)
  80f868:	e0bfff17 	ldw	r2,-4(fp)
  80f86c:	e0bffb15 	stw	r2,-20(fp)
  
  if (fd)
  80f870:	e0bffb17 	ldw	r2,-20(fp)
  80f874:	1005003a 	cmpeq	r2,r2,zero
  80f878:	1000121e 	bne	r2,zero,80f8c4 <fstat+0xa8>
  {
    /* Call the drivers fstat() function to fill out the "st" structure. */

    if (fd->dev->fstat)
  80f87c:	e0bffb17 	ldw	r2,-20(fp)
  80f880:	10800017 	ldw	r2,0(r2)
  80f884:	10800817 	ldw	r2,32(r2)
  80f888:	1005003a 	cmpeq	r2,r2,zero
  80f88c:	1000081e 	bne	r2,zero,80f8b0 <fstat+0x94>
    {
      return fd->dev->fstat(fd, st);
  80f890:	e0bffb17 	ldw	r2,-20(fp)
  80f894:	10800017 	ldw	r2,0(r2)
  80f898:	10800817 	ldw	r2,32(r2)
  80f89c:	e13ffb17 	ldw	r4,-20(fp)
  80f8a0:	e17ffd17 	ldw	r5,-12(fp)
  80f8a4:	103ee83a 	callr	r2
  80f8a8:	e0bffe15 	stw	r2,-8(fp)
  80f8ac:	00000b06 	br	80f8dc <fstat+0xc0>
     * device.
     */
 
    else
    {
      st->st_mode = _IFCHR;
  80f8b0:	e0fffd17 	ldw	r3,-12(fp)
  80f8b4:	00880004 	movi	r2,8192
  80f8b8:	18800115 	stw	r2,4(r3)
      return 0;
  80f8bc:	e03ffe15 	stw	zero,-8(fp)
  80f8c0:	00000606 	br	80f8dc <fstat+0xc0>
    }
  }
  else
  {
    ALT_ERRNO = EBADFD;
  80f8c4:	080f8f40 	call	80f8f4 <alt_get_errno>
  80f8c8:	1007883a 	mov	r3,r2
  80f8cc:	00801444 	movi	r2,81
  80f8d0:	18800015 	stw	r2,0(r3)
    return -1;
  80f8d4:	00bfffc4 	movi	r2,-1
  80f8d8:	e0bffe15 	stw	r2,-8(fp)
  80f8dc:	e0bffe17 	ldw	r2,-8(fp)
  }
}
  80f8e0:	e037883a 	mov	sp,fp
  80f8e4:	dfc00117 	ldw	ra,4(sp)
  80f8e8:	df000017 	ldw	fp,0(sp)
  80f8ec:	dec00204 	addi	sp,sp,8
  80f8f0:	f800283a 	ret

0080f8f4 <alt_get_errno>:
#undef errno

extern int errno;

static ALT_INLINE int* alt_get_errno(void)
{
  80f8f4:	defffd04 	addi	sp,sp,-12
  80f8f8:	dfc00215 	stw	ra,8(sp)
  80f8fc:	df000115 	stw	fp,4(sp)
  80f900:	df000104 	addi	fp,sp,4
  return ((alt_errno) ? alt_errno() : &errno);
  80f904:	00802074 	movhi	r2,129
  80f908:	1094df04 	addi	r2,r2,21372
  80f90c:	10800017 	ldw	r2,0(r2)
  80f910:	1005003a 	cmpeq	r2,r2,zero
  80f914:	1000061e 	bne	r2,zero,80f930 <alt_get_errno+0x3c>
  80f918:	00802074 	movhi	r2,129
  80f91c:	1094df04 	addi	r2,r2,21372
  80f920:	10800017 	ldw	r2,0(r2)
  80f924:	103ee83a 	callr	r2
  80f928:	e0bfff15 	stw	r2,-4(fp)
  80f92c:	00000306 	br	80f93c <alt_get_errno+0x48>
  80f930:	00802074 	movhi	r2,129
  80f934:	109c6c04 	addi	r2,r2,29104
  80f938:	e0bfff15 	stw	r2,-4(fp)
  80f93c:	e0bfff17 	ldw	r2,-4(fp)
}
  80f940:	e037883a 	mov	sp,fp
  80f944:	dfc00117 	ldw	ra,4(sp)
  80f948:	df000017 	ldw	fp,0(sp)
  80f94c:	dec00204 	addi	sp,sp,8
  80f950:	f800283a 	ret

0080f954 <alt_irq_register>:
 */
 
int alt_irq_register (alt_u32 id, 
                      void* context, 
                      alt_isr_func handler)
{
  80f954:	deffef04 	addi	sp,sp,-68
  80f958:	df001015 	stw	fp,64(sp)
  80f95c:	df001004 	addi	fp,sp,64
  80f960:	e13ffc15 	stw	r4,-16(fp)
  80f964:	e17ffd15 	stw	r5,-12(fp)
  80f968:	e1bffe15 	stw	r6,-8(fp)
  int rc = -EINVAL;  
  80f96c:	00bffa84 	movi	r2,-22
  80f970:	e0bffb15 	stw	r2,-20(fp)
  alt_irq_context status;

  if (id < ALT_NIRQ)
  80f974:	e0bffc17 	ldw	r2,-16(fp)
  80f978:	10800828 	cmpgeui	r2,r2,32
  80f97c:	1000601e 	bne	r2,zero,80fb00 <alt_irq_register+0x1ac>
static ALT_INLINE alt_irq_context ALT_ALWAYS_INLINE 
       alt_irq_disable_all (void)
{
  alt_irq_context context;

  NIOS2_READ_STATUS (context);
  80f980:	0005303a 	rdctl	r2,status
  80f984:	e0bff915 	stw	r2,-28(fp)

  NIOS2_WRITE_STATUS (context & ~NIOS2_STATUS_PIE_MSK);
  80f988:	e0fff917 	ldw	r3,-28(fp)
  80f98c:	00bfff84 	movi	r2,-2
  80f990:	1884703a 	and	r2,r3,r2
  80f994:	1001703a 	wrctl	status,r2
  
  return context;
  80f998:	e0bff917 	ldw	r2,-28(fp)
     * interrupts are disabled while the handler tables are updated to ensure
     * that an interrupt doesn't occur while the tables are in an inconsistant
     * state.
     */

    status = alt_irq_disable_all ();
  80f99c:	e0bffa15 	stw	r2,-24(fp)

    alt_irq[id].handler = handler;
  80f9a0:	e0bffc17 	ldw	r2,-16(fp)
  80f9a4:	00c02074 	movhi	r3,129
  80f9a8:	18dc8604 	addi	r3,r3,29208
  80f9ac:	100490fa 	slli	r2,r2,3
  80f9b0:	10c7883a 	add	r3,r2,r3
  80f9b4:	e0bffe17 	ldw	r2,-8(fp)
  80f9b8:	18800015 	stw	r2,0(r3)
    alt_irq[id].context = context;
  80f9bc:	e0bffc17 	ldw	r2,-16(fp)
  80f9c0:	00c02074 	movhi	r3,129
  80f9c4:	18dc8604 	addi	r3,r3,29208
  80f9c8:	100490fa 	slli	r2,r2,3
  80f9cc:	10c5883a 	add	r2,r2,r3
  80f9d0:	10c00104 	addi	r3,r2,4
  80f9d4:	e0bffd17 	ldw	r2,-12(fp)
  80f9d8:	18800015 	stw	r2,0(r3)

    rc = (handler) ? alt_irq_enable (id): alt_irq_disable (id);
  80f9dc:	e0bffe17 	ldw	r2,-8(fp)
  80f9e0:	1005003a 	cmpeq	r2,r2,zero
  80f9e4:	1000201e 	bne	r2,zero,80fa68 <alt_irq_register+0x114>
  80f9e8:	e0bffc17 	ldw	r2,-16(fp)
  80f9ec:	e0bff715 	stw	r2,-36(fp)
static ALT_INLINE alt_irq_context ALT_ALWAYS_INLINE 
       alt_irq_disable_all (void)
{
  alt_irq_context context;

  NIOS2_READ_STATUS (context);
  80f9f0:	0005303a 	rdctl	r2,status
  80f9f4:	e0bff615 	stw	r2,-40(fp)

  NIOS2_WRITE_STATUS (context & ~NIOS2_STATUS_PIE_MSK);
  80f9f8:	e0fff617 	ldw	r3,-40(fp)
  80f9fc:	00bfff84 	movi	r2,-2
  80fa00:	1884703a 	and	r2,r3,r2
  80fa04:	1001703a 	wrctl	status,r2
  
  return context;
  80fa08:	e0bff617 	ldw	r2,-40(fp)
static ALT_INLINE int ALT_ALWAYS_INLINE alt_irq_enable (alt_u32 id)
{
  alt_irq_context  status;
  extern volatile alt_u32 alt_irq_active;

  status = alt_irq_disable_all ();
  80fa0c:	e0bff815 	stw	r2,-32(fp)

  alt_irq_active |= (1 << id);
  80fa10:	e0fff717 	ldw	r3,-36(fp)
  80fa14:	00800044 	movi	r2,1
  80fa18:	10c4983a 	sll	r2,r2,r3
  80fa1c:	1007883a 	mov	r3,r2
  80fa20:	00802074 	movhi	r2,129
  80fa24:	109c6d04 	addi	r2,r2,29108
  80fa28:	10800017 	ldw	r2,0(r2)
  80fa2c:	1886b03a 	or	r3,r3,r2
  80fa30:	00802074 	movhi	r2,129
  80fa34:	109c6d04 	addi	r2,r2,29108
  80fa38:	10c00015 	stw	r3,0(r2)
  NIOS2_WRITE_IENABLE (alt_irq_active);
  80fa3c:	00802074 	movhi	r2,129
  80fa40:	109c6d04 	addi	r2,r2,29108
  80fa44:	10800017 	ldw	r2,0(r2)
  80fa48:	100170fa 	wrctl	ienable,r2
  80fa4c:	e0bff817 	ldw	r2,-32(fp)
  80fa50:	e0bff515 	stw	r2,-44(fp)
  status &= ~NIOS2_STATUS_PIE_MSK;
  status |= (context & NIOS2_STATUS_PIE_MSK);
  
  NIOS2_WRITE_STATUS (status);
#else
  NIOS2_WRITE_STATUS (context);
  80fa54:	e0bff517 	ldw	r2,-44(fp)
  80fa58:	1001703a 	wrctl	status,r2

  alt_irq_enable_all(status);

  return 0;
  80fa5c:	0005883a 	mov	r2,zero
  80fa60:	e0bfff15 	stw	r2,-4(fp)
  80fa64:	00002006 	br	80fae8 <alt_irq_register+0x194>
  80fa68:	e0bffc17 	ldw	r2,-16(fp)
  80fa6c:	e0bff315 	stw	r2,-52(fp)
static ALT_INLINE alt_irq_context ALT_ALWAYS_INLINE 
       alt_irq_disable_all (void)
{
  alt_irq_context context;

  NIOS2_READ_STATUS (context);
  80fa70:	0005303a 	rdctl	r2,status
  80fa74:	e0bff215 	stw	r2,-56(fp)

  NIOS2_WRITE_STATUS (context & ~NIOS2_STATUS_PIE_MSK);
  80fa78:	e0fff217 	ldw	r3,-56(fp)
  80fa7c:	00bfff84 	movi	r2,-2
  80fa80:	1884703a 	and	r2,r3,r2
  80fa84:	1001703a 	wrctl	status,r2
  
  return context;
  80fa88:	e0bff217 	ldw	r2,-56(fp)
static ALT_INLINE int ALT_ALWAYS_INLINE alt_irq_disable (alt_u32 id)
{
  alt_irq_context  status;
  extern volatile alt_u32 alt_irq_active;

  status = alt_irq_disable_all ();
  80fa8c:	e0bff415 	stw	r2,-48(fp)

  alt_irq_active &= ~(1 << id);
  80fa90:	e0fff317 	ldw	r3,-52(fp)
  80fa94:	00800044 	movi	r2,1
  80fa98:	10c4983a 	sll	r2,r2,r3
  80fa9c:	0084303a 	nor	r2,zero,r2
  80faa0:	1007883a 	mov	r3,r2
  80faa4:	00802074 	movhi	r2,129
  80faa8:	109c6d04 	addi	r2,r2,29108
  80faac:	10800017 	ldw	r2,0(r2)
  80fab0:	1886703a 	and	r3,r3,r2
  80fab4:	00802074 	movhi	r2,129
  80fab8:	109c6d04 	addi	r2,r2,29108
  80fabc:	10c00015 	stw	r3,0(r2)
  NIOS2_WRITE_IENABLE (alt_irq_active);
  80fac0:	00802074 	movhi	r2,129
  80fac4:	109c6d04 	addi	r2,r2,29108
  80fac8:	10800017 	ldw	r2,0(r2)
  80facc:	100170fa 	wrctl	ienable,r2
  80fad0:	e0bff417 	ldw	r2,-48(fp)
  80fad4:	e0bff115 	stw	r2,-60(fp)
  status &= ~NIOS2_STATUS_PIE_MSK;
  status |= (context & NIOS2_STATUS_PIE_MSK);
  
  NIOS2_WRITE_STATUS (status);
#else
  NIOS2_WRITE_STATUS (context);
  80fad8:	e0bff117 	ldw	r2,-60(fp)
  80fadc:	1001703a 	wrctl	status,r2

  alt_irq_enable_all(status);

  return 0;
  80fae0:	0005883a 	mov	r2,zero
  80fae4:	e0bfff15 	stw	r2,-4(fp)
  80fae8:	e0bfff17 	ldw	r2,-4(fp)
  80faec:	e0bffb15 	stw	r2,-20(fp)
  80faf0:	e0bffa17 	ldw	r2,-24(fp)
  80faf4:	e0bff015 	stw	r2,-64(fp)
  80faf8:	e0bff017 	ldw	r2,-64(fp)
  80fafc:	1001703a 	wrctl	status,r2

    alt_irq_enable_all(status);
  }
  return rc; 
  80fb00:	e0bffb17 	ldw	r2,-20(fp)
}
  80fb04:	e037883a 	mov	sp,fp
  80fb08:	df000017 	ldw	fp,0(sp)
  80fb0c:	dec00104 	addi	sp,sp,4
  80fb10:	f800283a 	ret

0080fb14 <isatty>:
 *
 * ALT_ISATTY is mapped onto the isatty() system call in alt_syscall.h
 */
 
int ALT_ISATTY (int file)
{
  80fb14:	deffeb04 	addi	sp,sp,-84
  80fb18:	dfc01415 	stw	ra,80(sp)
  80fb1c:	df001315 	stw	fp,76(sp)
  80fb20:	df001304 	addi	fp,sp,76
  80fb24:	e13ffd15 	stw	r4,-12(fp)
   * A common error case is that when the file descriptor was created, the call
   * to open() failed resulting in a negative file descriptor. This is trapped
   * below so that we don't try and process an invalid file descriptor.
   */

  fd = (file < 0) ? NULL : &alt_fd_list[file];
  80fb28:	e0bffd17 	ldw	r2,-12(fp)
  80fb2c:	1004803a 	cmplt	r2,r2,zero
  80fb30:	1000091e 	bne	r2,zero,80fb58 <isatty+0x44>
  80fb34:	e13ffd17 	ldw	r4,-12(fp)
  80fb38:	01400304 	movi	r5,12
  80fb3c:	080f46c0 	call	80f46c <__mulsi3>
  80fb40:	1007883a 	mov	r3,r2
  80fb44:	00802074 	movhi	r2,129
  80fb48:	10903f04 	addi	r2,r2,16636
  80fb4c:	1887883a 	add	r3,r3,r2
  80fb50:	e0ffff15 	stw	r3,-4(fp)
  80fb54:	00000106 	br	80fb5c <isatty+0x48>
  80fb58:	e03fff15 	stw	zero,-4(fp)
  80fb5c:	e0bfff17 	ldw	r2,-4(fp)
  80fb60:	e0bfed15 	stw	r2,-76(fp)
  
  if (fd)
  80fb64:	e0bfed17 	ldw	r2,-76(fp)
  80fb68:	1005003a 	cmpeq	r2,r2,zero
  80fb6c:	10000f1e 	bne	r2,zero,80fbac <isatty+0x98>
    /*
     * If a device driver does not provide an fstat() function, then it is 
     * treated as a terminal device by default.
     */

    if (!fd->dev->fstat)
  80fb70:	e0bfed17 	ldw	r2,-76(fp)
  80fb74:	10800017 	ldw	r2,0(r2)
  80fb78:	10800817 	ldw	r2,32(r2)
  80fb7c:	1004c03a 	cmpne	r2,r2,zero
  80fb80:	1000031e 	bne	r2,zero,80fb90 <isatty+0x7c>
    {
      return 1;
  80fb84:	00800044 	movi	r2,1
  80fb88:	e0bffe15 	stw	r2,-8(fp)
  80fb8c:	00000c06 	br	80fbc0 <isatty+0xac>
     * this is called so that the device can identify itself.
     */ 

    else
    {
      fstat (file, &stat);
  80fb90:	e17fee04 	addi	r5,fp,-72
  80fb94:	e13ffd17 	ldw	r4,-12(fp)
  80fb98:	080f81c0 	call	80f81c <fstat>
      return (stat.st_mode == _IFCHR) ? 1 : 0;
  80fb9c:	e0bfef17 	ldw	r2,-68(fp)
  80fba0:	10880020 	cmpeqi	r2,r2,8192
  80fba4:	e0bffe15 	stw	r2,-8(fp)
  80fba8:	00000506 	br	80fbc0 <isatty+0xac>
    }
  }
  else
  {
    ALT_ERRNO = EBADFD;
  80fbac:	080fbd80 	call	80fbd8 <alt_get_errno>
  80fbb0:	1007883a 	mov	r3,r2
  80fbb4:	00801444 	movi	r2,81
  80fbb8:	18800015 	stw	r2,0(r3)
    return 0;
  80fbbc:	e03ffe15 	stw	zero,-8(fp)
  80fbc0:	e0bffe17 	ldw	r2,-8(fp)
  }
}
  80fbc4:	e037883a 	mov	sp,fp
  80fbc8:	dfc00117 	ldw	ra,4(sp)
  80fbcc:	df000017 	ldw	fp,0(sp)
  80fbd0:	dec00204 	addi	sp,sp,8
  80fbd4:	f800283a 	ret

0080fbd8 <alt_get_errno>:
#undef errno

extern int errno;

static ALT_INLINE int* alt_get_errno(void)
{
  80fbd8:	defffd04 	addi	sp,sp,-12
  80fbdc:	dfc00215 	stw	ra,8(sp)
  80fbe0:	df000115 	stw	fp,4(sp)
  80fbe4:	df000104 	addi	fp,sp,4
  return ((alt_errno) ? alt_errno() : &errno);
  80fbe8:	00802074 	movhi	r2,129
  80fbec:	1094df04 	addi	r2,r2,21372
  80fbf0:	10800017 	ldw	r2,0(r2)
  80fbf4:	1005003a 	cmpeq	r2,r2,zero
  80fbf8:	1000061e 	bne	r2,zero,80fc14 <alt_get_errno+0x3c>
  80fbfc:	00802074 	movhi	r2,129
  80fc00:	1094df04 	addi	r2,r2,21372
  80fc04:	10800017 	ldw	r2,0(r2)
  80fc08:	103ee83a 	callr	r2
  80fc0c:	e0bfff15 	stw	r2,-4(fp)
  80fc10:	00000306 	br	80fc20 <alt_get_errno+0x48>
  80fc14:	00802074 	movhi	r2,129
  80fc18:	109c6c04 	addi	r2,r2,29104
  80fc1c:	e0bfff15 	stw	r2,-4(fp)
  80fc20:	e0bfff17 	ldw	r2,-4(fp)
}
  80fc24:	e037883a 	mov	sp,fp
  80fc28:	dfc00117 	ldw	ra,4(sp)
  80fc2c:	df000017 	ldw	fp,0(sp)
  80fc30:	dec00204 	addi	sp,sp,8
  80fc34:	f800283a 	ret

0080fc38 <alt_load>:
 * there is no bootloader, so this application is responsible for loading to
 * RAM any sections that are required.
 */  

void alt_load (void)
{
  80fc38:	defffe04 	addi	sp,sp,-8
  80fc3c:	dfc00115 	stw	ra,4(sp)
  80fc40:	df000015 	stw	fp,0(sp)
  80fc44:	d839883a 	mov	fp,sp
  /* 
   * Copy the .rwdata section. 
   */

  alt_load_section (&__flash_rwdata_start, 
  80fc48:	01002074 	movhi	r4,129
  80fc4c:	2114e404 	addi	r4,r4,21392
  80fc50:	01402074 	movhi	r5,129
  80fc54:	294d6e04 	addi	r5,r5,13752
  80fc58:	01802074 	movhi	r6,129
  80fc5c:	3194e404 	addi	r6,r6,21392
  80fc60:	080fcb80 	call	80fcb8 <alt_load_section>

  /*
   * Copy the exception handler.
   */

  alt_load_section (&__flash_exceptions_start, 
  80fc64:	01002034 	movhi	r4,128
  80fc68:	21000004 	addi	r4,r4,0
  80fc6c:	01404434 	movhi	r5,272
  80fc70:	29500804 	addi	r5,r5,16416
  80fc74:	01804434 	movhi	r6,272
  80fc78:	31906e04 	addi	r6,r6,16824
  80fc7c:	080fcb80 	call	80fcb8 <alt_load_section>

  /*
   * Copy the .rodata section.
   */

  alt_load_section (&__flash_rodata_start, 
  80fc80:	01002074 	movhi	r4,129
  80fc84:	2109e404 	addi	r4,r4,10128
  80fc88:	01402074 	movhi	r5,129
  80fc8c:	2949e404 	addi	r5,r5,10128
  80fc90:	01802074 	movhi	r6,129
  80fc94:	318d6e04 	addi	r6,r6,13752
  80fc98:	080fcb80 	call	80fcb8 <alt_load_section>
  
  /*
   * Now ensure that the caches are in synch.
   */
  
  alt_dcache_flush_all();
  80fc9c:	08118f40 	call	8118f4 <alt_dcache_flush_all>
  alt_icache_flush_all();
  80fca0:	0811b800 	call	811b80 <alt_icache_flush_all>
}
  80fca4:	e037883a 	mov	sp,fp
  80fca8:	dfc00117 	ldw	ra,4(sp)
  80fcac:	df000017 	ldw	fp,0(sp)
  80fcb0:	dec00204 	addi	sp,sp,8
  80fcb4:	f800283a 	ret

0080fcb8 <alt_load_section>:
 */

static void ALT_INLINE alt_load_section (alt_u32* from, 
                                         alt_u32* to, 
                                         alt_u32* end)
{
  80fcb8:	defffc04 	addi	sp,sp,-16
  80fcbc:	df000315 	stw	fp,12(sp)
  80fcc0:	df000304 	addi	fp,sp,12
  80fcc4:	e13ffd15 	stw	r4,-12(fp)
  80fcc8:	e17ffe15 	stw	r5,-8(fp)
  80fccc:	e1bfff15 	stw	r6,-4(fp)
  if (to != from)
  80fcd0:	e0fffe17 	ldw	r3,-8(fp)
  80fcd4:	e0bffd17 	ldw	r2,-12(fp)
  80fcd8:	18800e26 	beq	r3,r2,80fd14 <alt_load_section+0x5c>
  {
    while( to != end )
  80fcdc:	00000a06 	br	80fd08 <alt_load_section+0x50>
    {
      *to++ = *from++;
  80fce0:	e0bffd17 	ldw	r2,-12(fp)
  80fce4:	10c00017 	ldw	r3,0(r2)
  80fce8:	e0bffe17 	ldw	r2,-8(fp)
  80fcec:	10c00015 	stw	r3,0(r2)
  80fcf0:	e0bffe17 	ldw	r2,-8(fp)
  80fcf4:	10800104 	addi	r2,r2,4
  80fcf8:	e0bffe15 	stw	r2,-8(fp)
  80fcfc:	e0bffd17 	ldw	r2,-12(fp)
  80fd00:	10800104 	addi	r2,r2,4
  80fd04:	e0bffd15 	stw	r2,-12(fp)
                                         alt_u32* to, 
                                         alt_u32* end)
{
  if (to != from)
  {
    while( to != end )
  80fd08:	e0fffe17 	ldw	r3,-8(fp)
  80fd0c:	e0bfff17 	ldw	r2,-4(fp)
  80fd10:	18bff31e 	bne	r3,r2,80fce0 <alt_load_section+0x28>
    {
      *to++ = *from++;
    }
  }
}
  80fd14:	e037883a 	mov	sp,fp
  80fd18:	df000017 	ldw	fp,0(sp)
  80fd1c:	dec00104 	addi	sp,sp,4
  80fd20:	f800283a 	ret

0080fd24 <lseek>:
 * ALT_LSEEK is mapped onto the lseek() system call in alt_syscall.h
 *
 */

off_t ALT_LSEEK (int file, off_t ptr, int dir)
{
  80fd24:	defff804 	addi	sp,sp,-32
  80fd28:	dfc00715 	stw	ra,28(sp)
  80fd2c:	df000615 	stw	fp,24(sp)
  80fd30:	df000604 	addi	fp,sp,24
  80fd34:	e13ffc15 	stw	r4,-16(fp)
  80fd38:	e17ffd15 	stw	r5,-12(fp)
  80fd3c:	e1bffe15 	stw	r6,-8(fp)
  alt_fd* fd;
  off_t   rc = 0; 
  80fd40:	e03ffa15 	stw	zero,-24(fp)
   * A common error case is that when the file descriptor was created, the call
   * to open() failed resulting in a negative file descriptor. This is trapped
   * below so that we don't try and process an invalid file descriptor.
   */

  fd = (file < 0) ? NULL : &alt_fd_list[file];
  80fd44:	e0bffc17 	ldw	r2,-16(fp)
  80fd48:	1004803a 	cmplt	r2,r2,zero
  80fd4c:	1000091e 	bne	r2,zero,80fd74 <lseek+0x50>
  80fd50:	e13ffc17 	ldw	r4,-16(fp)
  80fd54:	01400304 	movi	r5,12
  80fd58:	080f46c0 	call	80f46c <__mulsi3>
  80fd5c:	1007883a 	mov	r3,r2
  80fd60:	00802074 	movhi	r2,129
  80fd64:	10903f04 	addi	r2,r2,16636
  80fd68:	1887883a 	add	r3,r3,r2
  80fd6c:	e0ffff15 	stw	r3,-4(fp)
  80fd70:	00000106 	br	80fd78 <lseek+0x54>
  80fd74:	e03fff15 	stw	zero,-4(fp)
  80fd78:	e0bfff17 	ldw	r2,-4(fp)
  80fd7c:	e0bffb15 	stw	r2,-20(fp)
  
  if (fd) 
  80fd80:	e0bffb17 	ldw	r2,-20(fp)
  80fd84:	1005003a 	cmpeq	r2,r2,zero
  80fd88:	1000111e 	bne	r2,zero,80fdd0 <lseek+0xac>
    /*
     * If the device driver provides an implementation of the lseek() function,
     * then call that to process the request.
     */
 
    if (fd->dev->lseek)
  80fd8c:	e0bffb17 	ldw	r2,-20(fp)
  80fd90:	10800017 	ldw	r2,0(r2)
  80fd94:	10800717 	ldw	r2,28(r2)
  80fd98:	1005003a 	cmpeq	r2,r2,zero
  80fd9c:	1000091e 	bne	r2,zero,80fdc4 <lseek+0xa0>
    {
      rc = fd->dev->lseek(fd, ptr, dir);
  80fda0:	e0bffb17 	ldw	r2,-20(fp)
  80fda4:	10800017 	ldw	r2,0(r2)
  80fda8:	10800717 	ldw	r2,28(r2)
  80fdac:	e13ffb17 	ldw	r4,-20(fp)
  80fdb0:	e17ffd17 	ldw	r5,-12(fp)
  80fdb4:	e1bffe17 	ldw	r6,-8(fp)
  80fdb8:	103ee83a 	callr	r2
  80fdbc:	e0bffa15 	stw	r2,-24(fp)
  80fdc0:	00000506 	br	80fdd8 <lseek+0xb4>
     * Otherwise return an error.
     */

    else
    {
      rc = -ENOTSUP;
  80fdc4:	00bfde84 	movi	r2,-134
  80fdc8:	e0bffa15 	stw	r2,-24(fp)
  80fdcc:	00000206 	br	80fdd8 <lseek+0xb4>
    }
  }
  else  
  {
    rc = -EBADFD;
  80fdd0:	00bfebc4 	movi	r2,-81
  80fdd4:	e0bffa15 	stw	r2,-24(fp)
  }

  if (rc < 0)
  80fdd8:	e0bffa17 	ldw	r2,-24(fp)
  80fddc:	1004403a 	cmpge	r2,r2,zero
  80fde0:	1000071e 	bne	r2,zero,80fe00 <lseek+0xdc>
  {
    ALT_ERRNO = -rc;
  80fde4:	080fe180 	call	80fe18 <alt_get_errno>
  80fde8:	1007883a 	mov	r3,r2
  80fdec:	e0bffa17 	ldw	r2,-24(fp)
  80fdf0:	0085c83a 	sub	r2,zero,r2
  80fdf4:	18800015 	stw	r2,0(r3)
    rc = -1;
  80fdf8:	00bfffc4 	movi	r2,-1
  80fdfc:	e0bffa15 	stw	r2,-24(fp)
  }

  return rc;
  80fe00:	e0bffa17 	ldw	r2,-24(fp)
}
  80fe04:	e037883a 	mov	sp,fp
  80fe08:	dfc00117 	ldw	ra,4(sp)
  80fe0c:	df000017 	ldw	fp,0(sp)
  80fe10:	dec00204 	addi	sp,sp,8
  80fe14:	f800283a 	ret

0080fe18 <alt_get_errno>:
#undef errno

extern int errno;

static ALT_INLINE int* alt_get_errno(void)
{
  80fe18:	defffd04 	addi	sp,sp,-12
  80fe1c:	dfc00215 	stw	ra,8(sp)
  80fe20:	df000115 	stw	fp,4(sp)
  80fe24:	df000104 	addi	fp,sp,4
  return ((alt_errno) ? alt_errno() : &errno);
  80fe28:	00802074 	movhi	r2,129
  80fe2c:	1094df04 	addi	r2,r2,21372
  80fe30:	10800017 	ldw	r2,0(r2)
  80fe34:	1005003a 	cmpeq	r2,r2,zero
  80fe38:	1000061e 	bne	r2,zero,80fe54 <alt_get_errno+0x3c>
  80fe3c:	00802074 	movhi	r2,129
  80fe40:	1094df04 	addi	r2,r2,21372
  80fe44:	10800017 	ldw	r2,0(r2)
  80fe48:	103ee83a 	callr	r2
  80fe4c:	e0bfff15 	stw	r2,-4(fp)
  80fe50:	00000306 	br	80fe60 <alt_get_errno+0x48>
  80fe54:	00802074 	movhi	r2,129
  80fe58:	109c6c04 	addi	r2,r2,29104
  80fe5c:	e0bfff15 	stw	r2,-4(fp)
  80fe60:	e0bfff17 	ldw	r2,-4(fp)
}
  80fe64:	e037883a 	mov	sp,fp
  80fe68:	dfc00117 	ldw	ra,4(sp)
  80fe6c:	df000017 	ldw	fp,0(sp)
  80fe70:	dec00204 	addi	sp,sp,8
  80fe74:	f800283a 	ret

0080fe78 <alt_main>:
 * devices/filesystems/components in the system; and call the entry point for
 * the users application, i.e. main().
 */

void alt_main (void)
{
  80fe78:	defffd04 	addi	sp,sp,-12
  80fe7c:	dfc00215 	stw	ra,8(sp)
  80fe80:	df000115 	stw	fp,4(sp)
  80fe84:	df000104 	addi	fp,sp,4
#endif

  /* ALT LOG - please see HAL/sys/alt_log_printf.h for details */
  ALT_LOG_PRINT_BOOT("[alt_main.c] Entering alt_main, calling alt_irq_init.\r\n");
  /* Initialize the interrupt controller. */
  alt_irq_init (NULL);
  80fe88:	0009883a 	mov	r4,zero
  80fe8c:	08106280 	call	810628 <alt_irq_init>
  ALT_LOG_PRINT_BOOT("[alt_main.c] Done OS Init, calling alt_sem_create.\r\n");
  ALT_SEM_CREATE (&alt_fd_list_lock, 1);

  /* Initialize the device drivers/software components. */
  ALT_LOG_PRINT_BOOT("[alt_main.c] Calling alt_sys_init.\r\n");
  alt_sys_init();
  80fe90:	081065c0 	call	81065c <alt_sys_init>
   * devices be present (not equal to /dev/null) and if direct drivers
   * aren't being used.
   */

    ALT_LOG_PRINT_BOOT("[alt_main.c] Redirecting IO.\r\n");
    alt_io_redirect(ALT_STDOUT, ALT_STDIN, ALT_STDERR);
  80fe94:	01002074 	movhi	r4,129
  80fe98:	210d5d04 	addi	r4,r4,13684
  80fe9c:	01402074 	movhi	r5,129
  80fea0:	294d5d04 	addi	r5,r5,13684
  80fea4:	01802074 	movhi	r6,129
  80fea8:	318d5d04 	addi	r6,r6,13684
  80feac:	0811c740 	call	811c74 <alt_io_redirect>
  /* 
   * Call the C++ constructors 
   */

  ALT_LOG_PRINT_BOOT("[alt_main.c] Calling C++ constructors.\r\n");
  _do_ctors ();
  80feb0:	0811a240 	call	811a24 <_do_ctors>
   * redefined as _exit()). This is in the interest of reducing code footprint,
   * in that the atexit() overhead is removed when it's not needed.
   */

  ALT_LOG_PRINT_BOOT("[alt_main.c] Calling atexit.\r\n");
  atexit (_do_dtors);
  80feb4:	01002074 	movhi	r4,129
  80feb8:	2106a204 	addi	r4,r4,6792
  80febc:	08123840 	call	812384 <atexit>
  ALT_LOG_PRINT_BOOT("[alt_main.c] Calling main.\r\n");

#ifdef ALT_NO_EXIT
  main (alt_argc, alt_argv, alt_envp);
#else
  result = main (alt_argc, alt_argv, alt_envp);
  80fec0:	d1279f17 	ldw	r4,-24964(gp)
  80fec4:	d167a017 	ldw	r5,-24960(gp)
  80fec8:	d1a7a117 	ldw	r6,-24956(gp)
  80fecc:	0803ef80 	call	803ef8 <main>
  80fed0:	e0bfff15 	stw	r2,-4(fp)
  close(STDOUT_FILENO);
  80fed4:	01000044 	movi	r4,1
  80fed8:	080f6900 	call	80f690 <close>
  exit (result);
  80fedc:	e13fff17 	ldw	r4,-4(fp)
  80fee0:	08123980 	call	812398 <exit>

0080fee4 <__malloc_lock>:
 * configuration is single threaded, so there is nothing to do here. Note that 
 * this requires that malloc is never called by an interrupt service routine.
 */

void __malloc_lock ( struct _reent *_r )
{
  80fee4:	defffe04 	addi	sp,sp,-8
  80fee8:	df000115 	stw	fp,4(sp)
  80feec:	df000104 	addi	fp,sp,4
  80fef0:	e13fff15 	stw	r4,-4(fp)
}
  80fef4:	e037883a 	mov	sp,fp
  80fef8:	df000017 	ldw	fp,0(sp)
  80fefc:	dec00104 	addi	sp,sp,4
  80ff00:	f800283a 	ret

0080ff04 <__malloc_unlock>:
/*
 *
 */

void __malloc_unlock ( struct _reent *_r )
{
  80ff04:	defffe04 	addi	sp,sp,-8
  80ff08:	df000115 	stw	fp,4(sp)
  80ff0c:	df000104 	addi	fp,sp,4
  80ff10:	e13fff15 	stw	r4,-4(fp)
}
  80ff14:	e037883a 	mov	sp,fp
  80ff18:	df000017 	ldw	fp,0(sp)
  80ff1c:	dec00104 	addi	sp,sp,4
  80ff20:	f800283a 	ret

0080ff24 <alt_printf>:
/* 
 * ALT printf function 
 */
void 
alt_printf(const char* fmt, ... )
{
  80ff24:	defff204 	addi	sp,sp,-56
  80ff28:	dfc00a15 	stw	ra,40(sp)
  80ff2c:	df000915 	stw	fp,36(sp)
  80ff30:	df000904 	addi	fp,sp,36
  80ff34:	e1400215 	stw	r5,8(fp)
  80ff38:	e1800315 	stw	r6,12(fp)
  80ff3c:	e1c00415 	stw	r7,16(fp)
  80ff40:	e13fff15 	stw	r4,-4(fp)
	va_list args;
	va_start(args, fmt);
  80ff44:	e0800204 	addi	r2,fp,8
  80ff48:	e0bffe15 	stw	r2,-8(fp)
    const char *w;
    char c;

    /* Process format string. */
    w = fmt;
  80ff4c:	e0bfff17 	ldw	r2,-4(fp)
  80ff50:	e0bffd15 	stw	r2,-12(fp)
    while ((c = *w++) != 0)
  80ff54:	00007806 	br	810138 <alt_printf+0x214>
    {
        /* If not a format escape character, just print  */
        /* character.  Otherwise, process format string. */
        if (c != '%')
  80ff58:	e0bffc07 	ldb	r2,-16(fp)
  80ff5c:	10800960 	cmpeqi	r2,r2,37
  80ff60:	1000031e 	bne	r2,zero,80ff70 <alt_printf+0x4c>
        {
            alt_putchar(c);
  80ff64:	e13ffc07 	ldb	r4,-16(fp)
  80ff68:	081017c0 	call	81017c <alt_putchar>
  80ff6c:	00007206 	br	810138 <alt_printf+0x214>
        }
        else
        {
            /* Get format character.  If none     */
            /* available, processing is complete. */
            if ((c = *w++) != 0)
  80ff70:	e0bffd17 	ldw	r2,-12(fp)
  80ff74:	10800003 	ldbu	r2,0(r2)
  80ff78:	e0bffc05 	stb	r2,-16(fp)
  80ff7c:	e0bffc07 	ldb	r2,-16(fp)
  80ff80:	1004c03a 	cmpne	r2,r2,zero
  80ff84:	1007883a 	mov	r3,r2
  80ff88:	e0bffd17 	ldw	r2,-12(fp)
  80ff8c:	10800044 	addi	r2,r2,1
  80ff90:	e0bffd15 	stw	r2,-12(fp)
  80ff94:	18803fcc 	andi	r2,r3,255
  80ff98:	1005003a 	cmpeq	r2,r2,zero
  80ff9c:	1000721e 	bne	r2,zero,810168 <alt_printf+0x244>
            {
                if (c == '%')
  80ffa0:	e0bffc07 	ldb	r2,-16(fp)
  80ffa4:	10800958 	cmpnei	r2,r2,37
  80ffa8:	1000031e 	bne	r2,zero,80ffb8 <alt_printf+0x94>
                {
                    /* Process "%" escape sequence. */
                    alt_putchar(c);
  80ffac:	e13ffc07 	ldb	r4,-16(fp)
  80ffb0:	081017c0 	call	81017c <alt_putchar>
  80ffb4:	00006006 	br	810138 <alt_printf+0x214>
                } 
                else if (c == 'c')
  80ffb8:	e0bffc07 	ldb	r2,-16(fp)
  80ffbc:	108018d8 	cmpnei	r2,r2,99
  80ffc0:	1000091e 	bne	r2,zero,80ffe8 <alt_printf+0xc4>
                {
                    int v = va_arg(args, int);
  80ffc4:	e0fffe17 	ldw	r3,-8(fp)
  80ffc8:	18800104 	addi	r2,r3,4
  80ffcc:	e0bffe15 	stw	r2,-8(fp)
  80ffd0:	1805883a 	mov	r2,r3
  80ffd4:	10800017 	ldw	r2,0(r2)
  80ffd8:	e0bffb15 	stw	r2,-20(fp)
                    alt_putchar(v);
  80ffdc:	e13ffb17 	ldw	r4,-20(fp)
  80ffe0:	081017c0 	call	81017c <alt_putchar>
  80ffe4:	00005406 	br	810138 <alt_printf+0x214>
                }
                else if (c == 'x')
  80ffe8:	e0bffc07 	ldb	r2,-16(fp)
  80ffec:	10801e18 	cmpnei	r2,r2,120
  80fff0:	1000371e 	bne	r2,zero,8100d0 <alt_printf+0x1ac>
                {
                    /* Process hexadecimal number format. */
                    unsigned long v = va_arg(args, unsigned long);
  80fff4:	e0fffe17 	ldw	r3,-8(fp)
  80fff8:	18800104 	addi	r2,r3,4
  80fffc:	e0bffe15 	stw	r2,-8(fp)
  810000:	1805883a 	mov	r2,r3
  810004:	10800017 	ldw	r2,0(r2)
  810008:	e0bffa15 	stw	r2,-24(fp)
                    unsigned long digit;
                    int digit_shift;

                    /* If the number value is zero, just print and continue. */
                    if (v == 0)
  81000c:	e0bffa17 	ldw	r2,-24(fp)
  810010:	1004c03a 	cmpne	r2,r2,zero
  810014:	1000031e 	bne	r2,zero,810024 <alt_printf+0x100>
                    {
                        alt_putchar('0');
  810018:	01000c04 	movi	r4,48
  81001c:	081017c0 	call	81017c <alt_putchar>
                        continue;
  810020:	00004506 	br	810138 <alt_printf+0x214>
                    }

                    /* Find first non-zero digit. */
                    digit_shift = 28;
  810024:	00800704 	movi	r2,28
  810028:	e0bff815 	stw	r2,-32(fp)
                    while (!(v & (0xF << digit_shift)))
  81002c:	00000306 	br	81003c <alt_printf+0x118>
                        digit_shift -= 4;
  810030:	e0bff817 	ldw	r2,-32(fp)
  810034:	10bfff04 	addi	r2,r2,-4
  810038:	e0bff815 	stw	r2,-32(fp)
                        continue;
                    }

                    /* Find first non-zero digit. */
                    digit_shift = 28;
                    while (!(v & (0xF << digit_shift)))
  81003c:	00c003c4 	movi	r3,15
  810040:	e0bff817 	ldw	r2,-32(fp)
  810044:	1884983a 	sll	r2,r3,r2
  810048:	1007883a 	mov	r3,r2
  81004c:	e0bffa17 	ldw	r2,-24(fp)
  810050:	1884703a 	and	r2,r3,r2
  810054:	1005003a 	cmpeq	r2,r2,zero
  810058:	103ff51e 	bne	r2,zero,810030 <alt_printf+0x10c>
                        digit_shift -= 4;

                    /* Print digits. */
                    for (; digit_shift >= 0; digit_shift -= 4)
  81005c:	00001806 	br	8100c0 <alt_printf+0x19c>
                    {
                        digit = (v & (0xF << digit_shift)) >> digit_shift;
  810060:	00c003c4 	movi	r3,15
  810064:	e0bff817 	ldw	r2,-32(fp)
  810068:	1884983a 	sll	r2,r3,r2
  81006c:	1007883a 	mov	r3,r2
  810070:	e0bffa17 	ldw	r2,-24(fp)
  810074:	1886703a 	and	r3,r3,r2
  810078:	e0bff817 	ldw	r2,-32(fp)
  81007c:	1884d83a 	srl	r2,r3,r2
  810080:	e0bff915 	stw	r2,-28(fp)
                        if (digit <= 9)
  810084:	e0bff917 	ldw	r2,-28(fp)
  810088:	108002a8 	cmpgeui	r2,r2,10
  81008c:	1000041e 	bne	r2,zero,8100a0 <alt_printf+0x17c>
                            c = '0' + digit;
  810090:	e0bff917 	ldw	r2,-28(fp)
  810094:	10800c04 	addi	r2,r2,48
  810098:	e0bffc05 	stb	r2,-16(fp)
  81009c:	00000306 	br	8100ac <alt_printf+0x188>
                        else
                            c = 'a' + digit - 10;
  8100a0:	e0bff917 	ldw	r2,-28(fp)
  8100a4:	108015c4 	addi	r2,r2,87
  8100a8:	e0bffc05 	stb	r2,-16(fp)
                        alt_putchar(c);
  8100ac:	e13ffc07 	ldb	r4,-16(fp)
  8100b0:	081017c0 	call	81017c <alt_putchar>
                    digit_shift = 28;
                    while (!(v & (0xF << digit_shift)))
                        digit_shift -= 4;

                    /* Print digits. */
                    for (; digit_shift >= 0; digit_shift -= 4)
  8100b4:	e0bff817 	ldw	r2,-32(fp)
  8100b8:	10bfff04 	addi	r2,r2,-4
  8100bc:	e0bff815 	stw	r2,-32(fp)
  8100c0:	e0bff817 	ldw	r2,-32(fp)
  8100c4:	1004403a 	cmpge	r2,r2,zero
  8100c8:	103fe51e 	bne	r2,zero,810060 <alt_printf+0x13c>
  8100cc:	00001a06 	br	810138 <alt_printf+0x214>
                        else
                            c = 'a' + digit - 10;
                        alt_putchar(c);
                    }
                }
                else if (c == 's')
  8100d0:	e0bffc07 	ldb	r2,-16(fp)
  8100d4:	10801cd8 	cmpnei	r2,r2,115
  8100d8:	1000171e 	bne	r2,zero,810138 <alt_printf+0x214>
                {
                    /* Process string format. */
                    char *s = va_arg(args, char *);
  8100dc:	e0fffe17 	ldw	r3,-8(fp)
  8100e0:	18800104 	addi	r2,r3,4
  8100e4:	e0bffe15 	stw	r2,-8(fp)
  8100e8:	1805883a 	mov	r2,r3
  8100ec:	10800017 	ldw	r2,0(r2)
  8100f0:	e0bff715 	stw	r2,-36(fp)

                    while(*s)
  8100f4:	00000906 	br	81011c <alt_printf+0x1f8>
                      alt_putchar(*s++);
  8100f8:	e0bff717 	ldw	r2,-36(fp)
  8100fc:	10800003 	ldbu	r2,0(r2)
  810100:	11003fcc 	andi	r4,r2,255
  810104:	2100201c 	xori	r4,r4,128
  810108:	213fe004 	addi	r4,r4,-128
  81010c:	e0bff717 	ldw	r2,-36(fp)
  810110:	10800044 	addi	r2,r2,1
  810114:	e0bff715 	stw	r2,-36(fp)
  810118:	081017c0 	call	81017c <alt_putchar>
                else if (c == 's')
                {
                    /* Process string format. */
                    char *s = va_arg(args, char *);

                    while(*s)
  81011c:	e0bff717 	ldw	r2,-36(fp)
  810120:	10800003 	ldbu	r2,0(r2)
  810124:	10803fcc 	andi	r2,r2,255
  810128:	1080201c 	xori	r2,r2,128
  81012c:	10bfe004 	addi	r2,r2,-128
  810130:	1004c03a 	cmpne	r2,r2,zero
  810134:	103ff01e 	bne	r2,zero,8100f8 <alt_printf+0x1d4>
    const char *w;
    char c;

    /* Process format string. */
    w = fmt;
    while ((c = *w++) != 0)
  810138:	e0bffd17 	ldw	r2,-12(fp)
  81013c:	10800003 	ldbu	r2,0(r2)
  810140:	e0bffc05 	stb	r2,-16(fp)
  810144:	e0bffc07 	ldb	r2,-16(fp)
  810148:	1004c03a 	cmpne	r2,r2,zero
  81014c:	1007883a 	mov	r3,r2
  810150:	e0bffd17 	ldw	r2,-12(fp)
  810154:	10800044 	addi	r2,r2,1
  810158:	e0bffd15 	stw	r2,-12(fp)
  81015c:	18803fcc 	andi	r2,r3,255
  810160:	1004c03a 	cmpne	r2,r2,zero
  810164:	103f7c1e 	bne	r2,zero,80ff58 <alt_printf+0x34>
            {
                break;
            }
        }
    }
}
  810168:	e037883a 	mov	sp,fp
  81016c:	dfc00117 	ldw	ra,4(sp)
  810170:	df000017 	ldw	fp,0(sp)
  810174:	dec00504 	addi	sp,sp,20
  810178:	f800283a 	ret

0081017c <alt_putchar>:
 * Uses the ALT_DRIVER_WRITE() macro to call directly to driver if available.
 * Otherwise, uses newlib provided putchar() routine.
 */
int 
alt_putchar(int c)
{
  81017c:	defffd04 	addi	sp,sp,-12
  810180:	dfc00215 	stw	ra,8(sp)
  810184:	df000115 	stw	fp,4(sp)
  810188:	df000104 	addi	fp,sp,4
  81018c:	e13fff15 	stw	r4,-4(fp)
    if (ALT_DRIVER_WRITE(ALT_STDOUT_DEV, &c1, 1, 0) == -1) {
        return -1;
    }
    return c;
#else
    return putchar(c);
  810190:	00802074 	movhi	r2,129
  810194:	1094d404 	addi	r2,r2,21328
  810198:	10800017 	ldw	r2,0(r2)
  81019c:	11400217 	ldw	r5,8(r2)
  8101a0:	e13fff17 	ldw	r4,-4(fp)
  8101a4:	080cc8c0 	call	80cc8c <putc>
#endif
}
  8101a8:	e037883a 	mov	sp,fp
  8101ac:	dfc00117 	ldw	ra,4(sp)
  8101b0:	df000017 	ldw	fp,0(sp)
  8101b4:	dec00204 	addi	sp,sp,8
  8101b8:	f800283a 	ret

008101bc <read>:
}

#else /* !ALT_USE_DIRECT_DRIVERS */

int ALT_READ (int file, void *ptr, size_t len)
{
  8101bc:	defff704 	addi	sp,sp,-36
  8101c0:	dfc00815 	stw	ra,32(sp)
  8101c4:	df000715 	stw	fp,28(sp)
  8101c8:	df000704 	addi	fp,sp,28
  8101cc:	e13ffb15 	stw	r4,-20(fp)
  8101d0:	e17ffc15 	stw	r5,-16(fp)
  8101d4:	e1bffd15 	stw	r6,-12(fp)
   * A common error case is that when the file descriptor was created, the call
   * to open() failed resulting in a negative file descriptor. This is trapped
   * below so that we don't try and process an invalid file descriptor.
   */

  fd = (file < 0) ? NULL : &alt_fd_list[file];
  8101d8:	e0bffb17 	ldw	r2,-20(fp)
  8101dc:	1004803a 	cmplt	r2,r2,zero
  8101e0:	1000091e 	bne	r2,zero,810208 <read+0x4c>
  8101e4:	e13ffb17 	ldw	r4,-20(fp)
  8101e8:	01400304 	movi	r5,12
  8101ec:	080f46c0 	call	80f46c <__mulsi3>
  8101f0:	1007883a 	mov	r3,r2
  8101f4:	00802074 	movhi	r2,129
  8101f8:	10903f04 	addi	r2,r2,16636
  8101fc:	1887883a 	add	r3,r3,r2
  810200:	e0ffff15 	stw	r3,-4(fp)
  810204:	00000106 	br	81020c <read+0x50>
  810208:	e03fff15 	stw	zero,-4(fp)
  81020c:	e0bfff17 	ldw	r2,-4(fp)
  810210:	e0bffa15 	stw	r2,-24(fp)
  
  if (fd)
  810214:	e0bffa17 	ldw	r2,-24(fp)
  810218:	1005003a 	cmpeq	r2,r2,zero
  81021c:	1000241e 	bne	r2,zero,8102b0 <read+0xf4>
     * If the file has not been opened with read access, or if the driver does
     * not provide an implementation of read(), generate an error. Otherwise
     * call the drivers read() function to process the request.
     */

    if (((fd->fd_flags & O_ACCMODE) != O_WRONLY) && 
  810220:	e0bffa17 	ldw	r2,-24(fp)
  810224:	10800217 	ldw	r2,8(r2)
  810228:	108000cc 	andi	r2,r2,3
  81022c:	10800060 	cmpeqi	r2,r2,1
  810230:	10001a1e 	bne	r2,zero,81029c <read+0xe0>
  810234:	e0bffa17 	ldw	r2,-24(fp)
  810238:	10800017 	ldw	r2,0(r2)
  81023c:	10800517 	ldw	r2,20(r2)
  810240:	1005003a 	cmpeq	r2,r2,zero
  810244:	1000151e 	bne	r2,zero,81029c <read+0xe0>
        (fd->dev->read))
      {
        if ((rval = fd->dev->read(fd, ptr, len)) < 0)
  810248:	e0bffa17 	ldw	r2,-24(fp)
  81024c:	10800017 	ldw	r2,0(r2)
  810250:	10800517 	ldw	r2,20(r2)
  810254:	e17ffc17 	ldw	r5,-16(fp)
  810258:	e1bffd17 	ldw	r6,-12(fp)
  81025c:	e13ffa17 	ldw	r4,-24(fp)
  810260:	103ee83a 	callr	r2
  810264:	e0bff915 	stw	r2,-28(fp)
  810268:	e0bff917 	ldw	r2,-28(fp)
  81026c:	1004403a 	cmpge	r2,r2,zero
  810270:	1000071e 	bne	r2,zero,810290 <read+0xd4>
        {
          ALT_ERRNO = -rval;
  810274:	08102e00 	call	8102e0 <alt_get_errno>
  810278:	e0fff917 	ldw	r3,-28(fp)
  81027c:	00c7c83a 	sub	r3,zero,r3
  810280:	10c00015 	stw	r3,0(r2)
          return -1;
  810284:	00bfffc4 	movi	r2,-1
  810288:	e0bffe15 	stw	r2,-8(fp)
  81028c:	00000e06 	br	8102c8 <read+0x10c>
        }
        return rval;
  810290:	e0bff917 	ldw	r2,-28(fp)
  810294:	e0bffe15 	stw	r2,-8(fp)
  810298:	00000b06 	br	8102c8 <read+0x10c>
      }
      else
      {
        ALT_ERRNO = EACCES;
  81029c:	08102e00 	call	8102e0 <alt_get_errno>
  8102a0:	1007883a 	mov	r3,r2
  8102a4:	00800344 	movi	r2,13
  8102a8:	18800015 	stw	r2,0(r3)
  8102ac:	00000406 	br	8102c0 <read+0x104>
      }
    }
  else
  {
    ALT_ERRNO = EBADFD;
  8102b0:	08102e00 	call	8102e0 <alt_get_errno>
  8102b4:	1007883a 	mov	r3,r2
  8102b8:	00801444 	movi	r2,81
  8102bc:	18800015 	stw	r2,0(r3)
  }
  return -1;
  8102c0:	00bfffc4 	movi	r2,-1
  8102c4:	e0bffe15 	stw	r2,-8(fp)
  8102c8:	e0bffe17 	ldw	r2,-8(fp)
}
  8102cc:	e037883a 	mov	sp,fp
  8102d0:	dfc00117 	ldw	ra,4(sp)
  8102d4:	df000017 	ldw	fp,0(sp)
  8102d8:	dec00204 	addi	sp,sp,8
  8102dc:	f800283a 	ret

008102e0 <alt_get_errno>:
#undef errno

extern int errno;

static ALT_INLINE int* alt_get_errno(void)
{
  8102e0:	defffd04 	addi	sp,sp,-12
  8102e4:	dfc00215 	stw	ra,8(sp)
  8102e8:	df000115 	stw	fp,4(sp)
  8102ec:	df000104 	addi	fp,sp,4
  return ((alt_errno) ? alt_errno() : &errno);
  8102f0:	00802074 	movhi	r2,129
  8102f4:	1094df04 	addi	r2,r2,21372
  8102f8:	10800017 	ldw	r2,0(r2)
  8102fc:	1005003a 	cmpeq	r2,r2,zero
  810300:	1000061e 	bne	r2,zero,81031c <alt_get_errno+0x3c>
  810304:	00802074 	movhi	r2,129
  810308:	1094df04 	addi	r2,r2,21372
  81030c:	10800017 	ldw	r2,0(r2)
  810310:	103ee83a 	callr	r2
  810314:	e0bfff15 	stw	r2,-4(fp)
  810318:	00000306 	br	810328 <alt_get_errno+0x48>
  81031c:	00802074 	movhi	r2,129
  810320:	109c6c04 	addi	r2,r2,29104
  810324:	e0bfff15 	stw	r2,-4(fp)
  810328:	e0bfff17 	ldw	r2,-4(fp)
}
  81032c:	e037883a 	mov	sp,fp
  810330:	dfc00117 	ldw	ra,4(sp)
  810334:	df000017 	ldw	fp,0(sp)
  810338:	dec00204 	addi	sp,sp,8
  81033c:	f800283a 	ret

00810340 <alt_release_fd>:
 * File descriptors correcponding to standard in, standard out and standard 
 * error cannont be released backed to the pool. They are always reserved.
 */

void alt_release_fd (int fd)
{
  810340:	defffc04 	addi	sp,sp,-16
  810344:	dfc00315 	stw	ra,12(sp)
  810348:	df000215 	stw	fp,8(sp)
  81034c:	dc000115 	stw	r16,4(sp)
  810350:	df000104 	addi	fp,sp,4
  810354:	e13fff15 	stw	r4,-4(fp)
  if (fd > 2)
  810358:	e0bfff17 	ldw	r2,-4(fp)
  81035c:	108000d0 	cmplti	r2,r2,3
  810360:	10000f1e 	bne	r2,zero,8103a0 <alt_release_fd+0x60>
  {
    alt_fd_list[fd].fd_flags = 0;
  810364:	e13fff17 	ldw	r4,-4(fp)
  810368:	04002074 	movhi	r16,129
  81036c:	84103f04 	addi	r16,r16,16636
  810370:	01400304 	movi	r5,12
  810374:	080f46c0 	call	80f46c <__mulsi3>
  810378:	1405883a 	add	r2,r2,r16
  81037c:	10800204 	addi	r2,r2,8
  810380:	10000015 	stw	zero,0(r2)
    alt_fd_list[fd].dev      = 0;
  810384:	e13fff17 	ldw	r4,-4(fp)
  810388:	04002074 	movhi	r16,129
  81038c:	84103f04 	addi	r16,r16,16636
  810390:	01400304 	movi	r5,12
  810394:	080f46c0 	call	80f46c <__mulsi3>
  810398:	1405883a 	add	r2,r2,r16
  81039c:	10000015 	stw	zero,0(r2)
  }
}
  8103a0:	e037883a 	mov	sp,fp
  8103a4:	dfc00217 	ldw	ra,8(sp)
  8103a8:	df000117 	ldw	fp,4(sp)
  8103ac:	dc000017 	ldw	r16,0(sp)
  8103b0:	dec00304 	addi	sp,sp,12
  8103b4:	f800283a 	ret

008103b8 <sbrk>:
#endif
 
caddr_t ALT_SBRK (int incr) __attribute__ ((no_instrument_function ));

caddr_t ALT_SBRK (int incr)
{ 
  8103b8:	defff804 	addi	sp,sp,-32
  8103bc:	df000715 	stw	fp,28(sp)
  8103c0:	df000704 	addi	fp,sp,28
  8103c4:	e13ffe15 	stw	r4,-8(fp)
static ALT_INLINE alt_irq_context ALT_ALWAYS_INLINE 
       alt_irq_disable_all (void)
{
  alt_irq_context context;

  NIOS2_READ_STATUS (context);
  8103c8:	0005303a 	rdctl	r2,status
  8103cc:	e0bffb15 	stw	r2,-20(fp)

  NIOS2_WRITE_STATUS (context & ~NIOS2_STATUS_PIE_MSK);
  8103d0:	e0fffb17 	ldw	r3,-20(fp)
  8103d4:	00bfff84 	movi	r2,-2
  8103d8:	1884703a 	and	r2,r3,r2
  8103dc:	1001703a 	wrctl	status,r2
  
  return context;
  8103e0:	e0bffb17 	ldw	r2,-20(fp)
  alt_irq_context context;
  char *prev_heap_end; 

  context = alt_irq_disable_all();
  8103e4:	e0bffd15 	stw	r2,-12(fp)

  /* Always return data aligned on a word boundary */
  heap_end = (char *)(((unsigned int)heap_end + 3) & ~3);
  8103e8:	d0a01217 	ldw	r2,-32696(gp)
  8103ec:	10c000c4 	addi	r3,r2,3
  8103f0:	00bfff04 	movi	r2,-4
  8103f4:	1884703a 	and	r2,r3,r2
  8103f8:	d0a01215 	stw	r2,-32696(gp)
  if (((heap_end + incr) - __alt_heap_start) > ALT_MAX_HEAP_BYTES) {
    alt_irq_enable_all(context);
    return (caddr_t)-1;
  }
#else
  if ((heap_end + incr) > __alt_heap_limit) {
  8103fc:	d0e01217 	ldw	r3,-32696(gp)
  810400:	e0bffe17 	ldw	r2,-8(fp)
  810404:	1887883a 	add	r3,r3,r2
  810408:	00804034 	movhi	r2,256
  81040c:	10800004 	addi	r2,r2,0
  810410:	10c0072e 	bgeu	r2,r3,810430 <sbrk+0x78>
  810414:	e0bffd17 	ldw	r2,-12(fp)
  810418:	e0bffa15 	stw	r2,-24(fp)
  status &= ~NIOS2_STATUS_PIE_MSK;
  status |= (context & NIOS2_STATUS_PIE_MSK);
  
  NIOS2_WRITE_STATUS (status);
#else
  NIOS2_WRITE_STATUS (context);
  81041c:	e0bffa17 	ldw	r2,-24(fp)
  810420:	1001703a 	wrctl	status,r2
    alt_irq_enable_all(context);
    return (caddr_t)-1;
  810424:	00bfffc4 	movi	r2,-1
  810428:	e0bfff15 	stw	r2,-4(fp)
  81042c:	00000c06 	br	810460 <sbrk+0xa8>
  }
#endif

  prev_heap_end = heap_end; 
  810430:	d0a01217 	ldw	r2,-32696(gp)
  810434:	e0bffc15 	stw	r2,-16(fp)
  heap_end += incr; 
  810438:	d0e01217 	ldw	r3,-32696(gp)
  81043c:	e0bffe17 	ldw	r2,-8(fp)
  810440:	1885883a 	add	r2,r3,r2
  810444:	d0a01215 	stw	r2,-32696(gp)
  810448:	e0bffd17 	ldw	r2,-12(fp)
  81044c:	e0bff915 	stw	r2,-28(fp)
  810450:	e0bff917 	ldw	r2,-28(fp)
  810454:	1001703a 	wrctl	status,r2

#endif

  alt_irq_enable_all(context);

  return (caddr_t) prev_heap_end; 
  810458:	e0bffc17 	ldw	r2,-16(fp)
  81045c:	e0bfff15 	stw	r2,-4(fp)
  810460:	e0bfff17 	ldw	r2,-4(fp)
} 
  810464:	e037883a 	mov	sp,fp
  810468:	df000017 	ldw	fp,0(sp)
  81046c:	dec00104 	addi	sp,sp,4
  810470:	f800283a 	ret

00810474 <usleep>:
#if defined (__GNUC__) && __GNUC__ >= 4
int ALT_USLEEP (useconds_t us)
#else
unsigned int ALT_USLEEP (unsigned int us)
#endif
{
  810474:	defffd04 	addi	sp,sp,-12
  810478:	dfc00215 	stw	ra,8(sp)
  81047c:	df000115 	stw	fp,4(sp)
  810480:	df000104 	addi	fp,sp,4
  810484:	e13fff15 	stw	r4,-4(fp)
  return alt_busy_sleep(us);
  810488:	e13fff17 	ldw	r4,-4(fp)
  81048c:	08117980 	call	811798 <alt_busy_sleep>
}
  810490:	e037883a 	mov	sp,fp
  810494:	dfc00117 	ldw	ra,4(sp)
  810498:	df000017 	ldw	fp,0(sp)
  81049c:	dec00204 	addi	sp,sp,8
  8104a0:	f800283a 	ret

008104a4 <write>:
}

#else /* !ALT_USE_DIRECT_DRIVERS */

int ALT_WRITE (int file, const void *ptr, size_t len)
{
  8104a4:	defff704 	addi	sp,sp,-36
  8104a8:	dfc00815 	stw	ra,32(sp)
  8104ac:	df000715 	stw	fp,28(sp)
  8104b0:	df000704 	addi	fp,sp,28
  8104b4:	e13ffb15 	stw	r4,-20(fp)
  8104b8:	e17ffc15 	stw	r5,-16(fp)
  8104bc:	e1bffd15 	stw	r6,-12(fp)
   * A common error case is that when the file descriptor was created, the call
   * to open() failed resulting in a negative file descriptor. This is trapped
   * below so that we don't try and process an invalid file descriptor.
   */

  fd = (file < 0) ? NULL : &alt_fd_list[file];
  8104c0:	e0bffb17 	ldw	r2,-20(fp)
  8104c4:	1004803a 	cmplt	r2,r2,zero
  8104c8:	1000091e 	bne	r2,zero,8104f0 <write+0x4c>
  8104cc:	e13ffb17 	ldw	r4,-20(fp)
  8104d0:	01400304 	movi	r5,12
  8104d4:	080f46c0 	call	80f46c <__mulsi3>
  8104d8:	1007883a 	mov	r3,r2
  8104dc:	00802074 	movhi	r2,129
  8104e0:	10903f04 	addi	r2,r2,16636
  8104e4:	1887883a 	add	r3,r3,r2
  8104e8:	e0ffff15 	stw	r3,-4(fp)
  8104ec:	00000106 	br	8104f4 <write+0x50>
  8104f0:	e03fff15 	stw	zero,-4(fp)
  8104f4:	e0bfff17 	ldw	r2,-4(fp)
  8104f8:	e0bffa15 	stw	r2,-24(fp)
  
  if (fd)
  8104fc:	e0bffa17 	ldw	r2,-24(fp)
  810500:	1005003a 	cmpeq	r2,r2,zero
  810504:	1000241e 	bne	r2,zero,810598 <write+0xf4>
     * If the file has not been opened with write access, or if the driver does
     * not provide an implementation of write(), generate an error. Otherwise
     * call the drivers write() function to process the request.
     */

    if (((fd->fd_flags & O_ACCMODE) != O_RDONLY) && fd->dev->write)
  810508:	e0bffa17 	ldw	r2,-24(fp)
  81050c:	10800217 	ldw	r2,8(r2)
  810510:	108000cc 	andi	r2,r2,3
  810514:	1005003a 	cmpeq	r2,r2,zero
  810518:	10001a1e 	bne	r2,zero,810584 <write+0xe0>
  81051c:	e0bffa17 	ldw	r2,-24(fp)
  810520:	10800017 	ldw	r2,0(r2)
  810524:	10800617 	ldw	r2,24(r2)
  810528:	1005003a 	cmpeq	r2,r2,zero
  81052c:	1000151e 	bne	r2,zero,810584 <write+0xe0>
    {
      
      /* ALT_LOG - see altera_hal/HAL/inc/sys/alt_log_printf.h */
      ALT_LOG_WRITE_FUNCTION(ptr,len);

      if ((rval = fd->dev->write(fd, ptr, len)) < 0)
  810530:	e0bffa17 	ldw	r2,-24(fp)
  810534:	10800017 	ldw	r2,0(r2)
  810538:	10800617 	ldw	r2,24(r2)
  81053c:	e17ffc17 	ldw	r5,-16(fp)
  810540:	e1bffd17 	ldw	r6,-12(fp)
  810544:	e13ffa17 	ldw	r4,-24(fp)
  810548:	103ee83a 	callr	r2
  81054c:	e0bff915 	stw	r2,-28(fp)
  810550:	e0bff917 	ldw	r2,-28(fp)
  810554:	1004403a 	cmpge	r2,r2,zero
  810558:	1000071e 	bne	r2,zero,810578 <write+0xd4>
      {
        ALT_ERRNO = -rval;
  81055c:	08105c80 	call	8105c8 <alt_get_errno>
  810560:	e0fff917 	ldw	r3,-28(fp)
  810564:	00c7c83a 	sub	r3,zero,r3
  810568:	10c00015 	stw	r3,0(r2)
        return -1;
  81056c:	00bfffc4 	movi	r2,-1
  810570:	e0bffe15 	stw	r2,-8(fp)
  810574:	00000e06 	br	8105b0 <write+0x10c>
      }
      return rval;
  810578:	e0bff917 	ldw	r2,-28(fp)
  81057c:	e0bffe15 	stw	r2,-8(fp)
  810580:	00000b06 	br	8105b0 <write+0x10c>
    }
    else
    {
      ALT_ERRNO = EACCES;
  810584:	08105c80 	call	8105c8 <alt_get_errno>
  810588:	1007883a 	mov	r3,r2
  81058c:	00800344 	movi	r2,13
  810590:	18800015 	stw	r2,0(r3)
  810594:	00000406 	br	8105a8 <write+0x104>
    }
  }
  else  
  {
    ALT_ERRNO = EBADFD;
  810598:	08105c80 	call	8105c8 <alt_get_errno>
  81059c:	1007883a 	mov	r3,r2
  8105a0:	00801444 	movi	r2,81
  8105a4:	18800015 	stw	r2,0(r3)
  }
  return -1;
  8105a8:	00bfffc4 	movi	r2,-1
  8105ac:	e0bffe15 	stw	r2,-8(fp)
  8105b0:	e0bffe17 	ldw	r2,-8(fp)
}
  8105b4:	e037883a 	mov	sp,fp
  8105b8:	dfc00117 	ldw	ra,4(sp)
  8105bc:	df000017 	ldw	fp,0(sp)
  8105c0:	dec00204 	addi	sp,sp,8
  8105c4:	f800283a 	ret

008105c8 <alt_get_errno>:
#undef errno

extern int errno;

static ALT_INLINE int* alt_get_errno(void)
{
  8105c8:	defffd04 	addi	sp,sp,-12
  8105cc:	dfc00215 	stw	ra,8(sp)
  8105d0:	df000115 	stw	fp,4(sp)
  8105d4:	df000104 	addi	fp,sp,4
  return ((alt_errno) ? alt_errno() : &errno);
  8105d8:	00802074 	movhi	r2,129
  8105dc:	1094df04 	addi	r2,r2,21372
  8105e0:	10800017 	ldw	r2,0(r2)
  8105e4:	1005003a 	cmpeq	r2,r2,zero
  8105e8:	1000061e 	bne	r2,zero,810604 <alt_get_errno+0x3c>
  8105ec:	00802074 	movhi	r2,129
  8105f0:	1094df04 	addi	r2,r2,21372
  8105f4:	10800017 	ldw	r2,0(r2)
  8105f8:	103ee83a 	callr	r2
  8105fc:	e0bfff15 	stw	r2,-4(fp)
  810600:	00000306 	br	810610 <alt_get_errno+0x48>
  810604:	00802074 	movhi	r2,129
  810608:	109c6c04 	addi	r2,r2,29104
  81060c:	e0bfff15 	stw	r2,-4(fp)
  810610:	e0bfff17 	ldw	r2,-4(fp)
}
  810614:	e037883a 	mov	sp,fp
  810618:	dfc00117 	ldw	ra,4(sp)
  81061c:	df000017 	ldw	fp,0(sp)
  810620:	dec00204 	addi	sp,sp,8
  810624:	f800283a 	ret

00810628 <alt_irq_init>:
 * The "base" parameter is ignored and only
 * present for backwards-compatibility.
 */

void alt_irq_init ( const void* base )
{
  810628:	defffd04 	addi	sp,sp,-12
  81062c:	dfc00215 	stw	ra,8(sp)
  810630:	df000115 	stw	fp,4(sp)
  810634:	df000104 	addi	fp,sp,4
  810638:	e13fff15 	stw	r4,-4(fp)
    ALTERA_NIOS2_QSYS_IRQ_INIT ( NIOS2_QSYS_0, nios2_qsys_0);
  81063c:	08121740 	call	812174 <altera_nios2_qsys_irq_init>
 * alt_irq_cpu_enable_interrupts() enables the CPU to start taking interrupts.
 */
static ALT_INLINE void ALT_ALWAYS_INLINE 
       alt_irq_cpu_enable_interrupts ()
{
    NIOS2_WRITE_STATUS(NIOS2_STATUS_PIE_MSK
  810640:	00800044 	movi	r2,1
  810644:	1001703a 	wrctl	status,r2
    alt_irq_cpu_enable_interrupts();
}
  810648:	e037883a 	mov	sp,fp
  81064c:	dfc00117 	ldw	ra,4(sp)
  810650:	df000017 	ldw	fp,0(sp)
  810654:	dec00204 	addi	sp,sp,8
  810658:	f800283a 	ret

0081065c <alt_sys_init>:
 * Initialize the non-interrupt controller devices.
 * Called after alt_irq_init().
 */

void alt_sys_init( void )
{
  81065c:	defffe04 	addi	sp,sp,-8
  810660:	dfc00115 	stw	ra,4(sp)
  810664:	df000015 	stw	fp,0(sp)
  810668:	d839883a 	mov	fp,sp
    ALTERA_AVALON_TIMER_INIT ( TIMER_0, timer_0);
  81066c:	01004474 	movhi	r4,273
  810670:	21240004 	addi	r4,r4,-28672
  810674:	000b883a 	mov	r5,zero
  810678:	000d883a 	mov	r6,zero
  81067c:	01c0fa04 	movi	r7,1000
  810680:	08112240 	call	811224 <alt_avalon_timer_sc_init>
    ALTERA_AVALON_JTAG_UART_INIT ( JTAG_UART_0, jtag_uart_0);
  810684:	01002074 	movhi	r4,129
  810688:	2110a904 	addi	r4,r4,17060
  81068c:	000b883a 	mov	r5,zero
  810690:	01800044 	movi	r6,1
  810694:	08108500 	call	810850 <altera_avalon_jtag_uart_init>
  810698:	01002074 	movhi	r4,129
  81069c:	21109f04 	addi	r4,r4,17020
  8106a0:	08106d00 	call	8106d0 <alt_dev_reg>
    ALTERA_AVALON_SYSID_QSYS_INIT ( SYSID_QSYS_0, sysid_qsys_0);
    ALTERA_UP_AVALON_RS232_INIT ( RS232_0, rs232_0);
  8106a4:	01002074 	movhi	r4,129
  8106a8:	2114b704 	addi	r4,r4,21212
  8106ac:	08106d00 	call	8106d0 <alt_dev_reg>
    ALTERA_UP_AVALON_USB_INIT ( USB_0, usb_0);
  8106b0:	01002074 	movhi	r4,129
  8106b4:	2114c204 	addi	r4,r4,21256
  8106b8:	08106d00 	call	8106d0 <alt_dev_reg>
}
  8106bc:	e037883a 	mov	sp,fp
  8106c0:	dfc00117 	ldw	ra,4(sp)
  8106c4:	df000017 	ldw	fp,0(sp)
  8106c8:	dec00204 	addi	sp,sp,8
  8106cc:	f800283a 	ret

008106d0 <alt_dev_reg>:
 */

extern int alt_fs_reg  (alt_dev* dev); 

static ALT_INLINE int alt_dev_reg (alt_dev* dev)
{
  8106d0:	defffd04 	addi	sp,sp,-12
  8106d4:	dfc00215 	stw	ra,8(sp)
  8106d8:	df000115 	stw	fp,4(sp)
  8106dc:	df000104 	addi	fp,sp,4
  8106e0:	e13fff15 	stw	r4,-4(fp)
  extern alt_llist alt_dev_list;

  return alt_dev_llist_insert ((alt_dev_llist*) dev, &alt_dev_list);
  8106e4:	e13fff17 	ldw	r4,-4(fp)
  8106e8:	01402074 	movhi	r5,129
  8106ec:	2954dc04 	addi	r5,r5,21360
  8106f0:	08119100 	call	811910 <alt_dev_llist_insert>
}
  8106f4:	e037883a 	mov	sp,fp
  8106f8:	dfc00117 	ldw	ra,4(sp)
  8106fc:	df000017 	ldw	fp,0(sp)
  810700:	dec00204 	addi	sp,sp,8
  810704:	f800283a 	ret

00810708 <altera_avalon_jtag_uart_read_fd>:
 *
 */

int 
altera_avalon_jtag_uart_read_fd(alt_fd* fd, char* buffer, int space)
{
  810708:	defffa04 	addi	sp,sp,-24
  81070c:	dfc00515 	stw	ra,20(sp)
  810710:	df000415 	stw	fp,16(sp)
  810714:	df000404 	addi	fp,sp,16
  810718:	e13ffd15 	stw	r4,-12(fp)
  81071c:	e17ffe15 	stw	r5,-8(fp)
  810720:	e1bfff15 	stw	r6,-4(fp)
    altera_avalon_jtag_uart_dev* dev = (altera_avalon_jtag_uart_dev*) fd->dev; 
  810724:	e0bffd17 	ldw	r2,-12(fp)
  810728:	10800017 	ldw	r2,0(r2)
  81072c:	e0bffc15 	stw	r2,-16(fp)

    return altera_avalon_jtag_uart_read(&dev->state, buffer, space,
  810730:	e0bffc17 	ldw	r2,-16(fp)
  810734:	11000a04 	addi	r4,r2,40
  810738:	e0bffd17 	ldw	r2,-12(fp)
  81073c:	11c00217 	ldw	r7,8(r2)
  810740:	e17ffe17 	ldw	r5,-8(fp)
  810744:	e1bfff17 	ldw	r6,-4(fp)
  810748:	0810d4c0 	call	810d4c <altera_avalon_jtag_uart_read>
      fd->fd_flags);
}
  81074c:	e037883a 	mov	sp,fp
  810750:	dfc00117 	ldw	ra,4(sp)
  810754:	df000017 	ldw	fp,0(sp)
  810758:	dec00204 	addi	sp,sp,8
  81075c:	f800283a 	ret

00810760 <altera_avalon_jtag_uart_write_fd>:

int 
altera_avalon_jtag_uart_write_fd(alt_fd* fd, const char* buffer, int space)
{
  810760:	defffa04 	addi	sp,sp,-24
  810764:	dfc00515 	stw	ra,20(sp)
  810768:	df000415 	stw	fp,16(sp)
  81076c:	df000404 	addi	fp,sp,16
  810770:	e13ffd15 	stw	r4,-12(fp)
  810774:	e17ffe15 	stw	r5,-8(fp)
  810778:	e1bfff15 	stw	r6,-4(fp)
    altera_avalon_jtag_uart_dev* dev = (altera_avalon_jtag_uart_dev*) fd->dev; 
  81077c:	e0bffd17 	ldw	r2,-12(fp)
  810780:	10800017 	ldw	r2,0(r2)
  810784:	e0bffc15 	stw	r2,-16(fp)

    return altera_avalon_jtag_uart_write(&dev->state, buffer, space,
  810788:	e0bffc17 	ldw	r2,-16(fp)
  81078c:	11000a04 	addi	r4,r2,40
  810790:	e0bffd17 	ldw	r2,-12(fp)
  810794:	11c00217 	ldw	r7,8(r2)
  810798:	e17ffe17 	ldw	r5,-8(fp)
  81079c:	e1bfff17 	ldw	r6,-4(fp)
  8107a0:	0810f700 	call	810f70 <altera_avalon_jtag_uart_write>
      fd->fd_flags);
}
  8107a4:	e037883a 	mov	sp,fp
  8107a8:	dfc00117 	ldw	ra,4(sp)
  8107ac:	df000017 	ldw	fp,0(sp)
  8107b0:	dec00204 	addi	sp,sp,8
  8107b4:	f800283a 	ret

008107b8 <altera_avalon_jtag_uart_close_fd>:

#ifndef ALTERA_AVALON_JTAG_UART_SMALL

int 
altera_avalon_jtag_uart_close_fd(alt_fd* fd)
{
  8107b8:	defffc04 	addi	sp,sp,-16
  8107bc:	dfc00315 	stw	ra,12(sp)
  8107c0:	df000215 	stw	fp,8(sp)
  8107c4:	df000204 	addi	fp,sp,8
  8107c8:	e13fff15 	stw	r4,-4(fp)
    altera_avalon_jtag_uart_dev* dev = (altera_avalon_jtag_uart_dev*) fd->dev; 
  8107cc:	e0bfff17 	ldw	r2,-4(fp)
  8107d0:	10800017 	ldw	r2,0(r2)
  8107d4:	e0bffe15 	stw	r2,-8(fp)

    return altera_avalon_jtag_uart_close(&dev->state, fd->fd_flags);
  8107d8:	e0bffe17 	ldw	r2,-8(fp)
  8107dc:	11000a04 	addi	r4,r2,40
  8107e0:	e0bfff17 	ldw	r2,-4(fp)
  8107e4:	11400217 	ldw	r5,8(r2)
  8107e8:	0810be40 	call	810be4 <altera_avalon_jtag_uart_close>
}
  8107ec:	e037883a 	mov	sp,fp
  8107f0:	dfc00117 	ldw	ra,4(sp)
  8107f4:	df000017 	ldw	fp,0(sp)
  8107f8:	dec00204 	addi	sp,sp,8
  8107fc:	f800283a 	ret

00810800 <altera_avalon_jtag_uart_ioctl_fd>:

int 
altera_avalon_jtag_uart_ioctl_fd(alt_fd* fd, int req, void* arg)
{
  810800:	defffa04 	addi	sp,sp,-24
  810804:	dfc00515 	stw	ra,20(sp)
  810808:	df000415 	stw	fp,16(sp)
  81080c:	df000404 	addi	fp,sp,16
  810810:	e13ffd15 	stw	r4,-12(fp)
  810814:	e17ffe15 	stw	r5,-8(fp)
  810818:	e1bfff15 	stw	r6,-4(fp)
    altera_avalon_jtag_uart_dev* dev = (altera_avalon_jtag_uart_dev*) fd->dev;
  81081c:	e0bffd17 	ldw	r2,-12(fp)
  810820:	10800017 	ldw	r2,0(r2)
  810824:	e0bffc15 	stw	r2,-16(fp)

    return altera_avalon_jtag_uart_ioctl(&dev->state, req, arg);
  810828:	e0bffc17 	ldw	r2,-16(fp)
  81082c:	11000a04 	addi	r4,r2,40
  810830:	e17ffe17 	ldw	r5,-8(fp)
  810834:	e1bfff17 	ldw	r6,-4(fp)
  810838:	0810c580 	call	810c58 <altera_avalon_jtag_uart_ioctl>
}
  81083c:	e037883a 	mov	sp,fp
  810840:	dfc00117 	ldw	ra,4(sp)
  810844:	df000017 	ldw	fp,0(sp)
  810848:	dec00204 	addi	sp,sp,8
  81084c:	f800283a 	ret

00810850 <altera_avalon_jtag_uart_init>:
 * Return 1 on sucessful IRQ register and 0 on failure.
 */

void altera_avalon_jtag_uart_init(altera_avalon_jtag_uart_state* sp, 
                                  int irq_controller_id, int irq)
{
  810850:	defffb04 	addi	sp,sp,-20
  810854:	dfc00415 	stw	ra,16(sp)
  810858:	df000315 	stw	fp,12(sp)
  81085c:	df000304 	addi	fp,sp,12
  810860:	e13ffd15 	stw	r4,-12(fp)
  810864:	e17ffe15 	stw	r5,-8(fp)
  810868:	e1bfff15 	stw	r6,-4(fp)
  ALT_FLAG_CREATE(&sp->events, 0);
  ALT_SEM_CREATE(&sp->read_lock, 1);
  ALT_SEM_CREATE(&sp->write_lock, 1);

  /* enable read interrupts at the device */
  sp->irq_enable = ALTERA_AVALON_JTAG_UART_CONTROL_RE_MSK;
  81086c:	e0fffd17 	ldw	r3,-12(fp)
  810870:	00800044 	movi	r2,1
  810874:	18800815 	stw	r2,32(r3)

  IOWR_ALTERA_AVALON_JTAG_UART_CONTROL(sp->base, sp->irq_enable); 
  810878:	e0bffd17 	ldw	r2,-12(fp)
  81087c:	10800017 	ldw	r2,0(r2)
  810880:	11000104 	addi	r4,r2,4
  810884:	e0bffd17 	ldw	r2,-12(fp)
  810888:	10800817 	ldw	r2,32(r2)
  81088c:	1007883a 	mov	r3,r2
  810890:	2005883a 	mov	r2,r4
  810894:	10c00035 	stwio	r3,0(r2)
  /* register the interrupt handler */
#ifdef ALT_ENHANCED_INTERRUPT_API_PRESENT
  alt_ic_isr_register(irq_controller_id, irq, altera_avalon_jtag_uart_irq, 
                      sp, NULL);
#else
  alt_irq_register(irq, sp, altera_avalon_jtag_uart_irq);
  810898:	e13fff17 	ldw	r4,-4(fp)
  81089c:	e17ffd17 	ldw	r5,-12(fp)
  8108a0:	01802074 	movhi	r6,129
  8108a4:	31824204 	addi	r6,r6,2312
  8108a8:	080f9540 	call	80f954 <alt_irq_register>
#endif  

  /* Register an alarm to go off every second to check for presence of host */
  sp->host_inactive = 0;
  8108ac:	e0bffd17 	ldw	r2,-12(fp)
  8108b0:	10000915 	stw	zero,36(r2)

  if (alt_alarm_start(&sp->alarm, alt_ticks_per_second(), 
  8108b4:	e0bffd17 	ldw	r2,-12(fp)
  8108b8:	11000204 	addi	r4,r2,8
 * Obtain the system clock rate in ticks/s. 
 */

static ALT_INLINE alt_u32 ALT_ALWAYS_INLINE alt_ticks_per_second (void)
{
  return _alt_tick_rate;
  8108bc:	00802074 	movhi	r2,129
  8108c0:	109c7104 	addi	r2,r2,29124
  8108c4:	10800017 	ldw	r2,0(r2)
  8108c8:	100b883a 	mov	r5,r2
  8108cc:	01802074 	movhi	r6,129
  8108d0:	3182cd04 	addi	r6,r6,2868
  8108d4:	e1fffd17 	ldw	r7,-12(fp)
  8108d8:	08116440 	call	811644 <alt_alarm_start>
  8108dc:	1004403a 	cmpge	r2,r2,zero
  8108e0:	1000041e 	bne	r2,zero,8108f4 <altera_avalon_jtag_uart_init+0xa4>
    &altera_avalon_jtag_uart_timeout, sp) < 0)
  {
    /* If we can't set the alarm then record "don't know if host present" 
     * and behave as though the host is present.
     */
    sp->timeout = INT_MAX;
  8108e4:	e0fffd17 	ldw	r3,-12(fp)
  8108e8:	00a00034 	movhi	r2,32768
  8108ec:	10bfffc4 	addi	r2,r2,-1
  8108f0:	18800115 	stw	r2,4(r3)
  }

  /* ALT_LOG - see altera_hal/HAL/inc/sys/alt_log_printf.h */ 
  ALT_LOG_JTAG_UART_ALARM_REGISTER(sp, sp->base);
}
  8108f4:	e037883a 	mov	sp,fp
  8108f8:	dfc00117 	ldw	ra,4(sp)
  8108fc:	df000017 	ldw	fp,0(sp)
  810900:	dec00204 	addi	sp,sp,8
  810904:	f800283a 	ret

00810908 <altera_avalon_jtag_uart_irq>:
#ifdef ALT_ENHANCED_INTERRUPT_API_PRESENT
static void altera_avalon_jtag_uart_irq(void* context)
#else
static void altera_avalon_jtag_uart_irq(void* context, alt_u32 id)
#endif
{
  810908:	defff704 	addi	sp,sp,-36
  81090c:	df000815 	stw	fp,32(sp)
  810910:	df000804 	addi	fp,sp,32
  810914:	e13ffe15 	stw	r4,-8(fp)
  810918:	e17fff15 	stw	r5,-4(fp)
  altera_avalon_jtag_uart_state* sp = (altera_avalon_jtag_uart_state*) context;
  81091c:	e0bffe17 	ldw	r2,-8(fp)
  810920:	e0bffd15 	stw	r2,-12(fp)
  unsigned int base = sp->base;
  810924:	e0bffd17 	ldw	r2,-12(fp)
  810928:	10800017 	ldw	r2,0(r2)
  81092c:	e0bffc15 	stw	r2,-16(fp)
  810930:	00000006 	br	810934 <altera_avalon_jtag_uart_irq+0x2c>
  /* ALT_LOG - see altera_hal/HAL/inc/sys/alt_log_printf.h */ 
  ALT_LOG_JTAG_UART_ISR_FUNCTION(base, sp);

  for ( ; ; )
  {
    unsigned int control = IORD_ALTERA_AVALON_JTAG_UART_CONTROL(base);
  810934:	e0bffc17 	ldw	r2,-16(fp)
  810938:	10800104 	addi	r2,r2,4
  81093c:	10800037 	ldwio	r2,0(r2)
  810940:	e0bffb15 	stw	r2,-20(fp)

    /* Return once nothing more to do */
    if ((control & (ALTERA_AVALON_JTAG_UART_CONTROL_RI_MSK | ALTERA_AVALON_JTAG_UART_CONTROL_WI_MSK)) == 0)
  810944:	e0bffb17 	ldw	r2,-20(fp)
  810948:	1080c00c 	andi	r2,r2,768
  81094c:	1005003a 	cmpeq	r2,r2,zero
  810950:	1000741e 	bne	r2,zero,810b24 <altera_avalon_jtag_uart_irq+0x21c>
      break;

    if (control & ALTERA_AVALON_JTAG_UART_CONTROL_RI_MSK)
  810954:	e0bffb17 	ldw	r2,-20(fp)
  810958:	1080400c 	andi	r2,r2,256
  81095c:	1005003a 	cmpeq	r2,r2,zero
  810960:	1000351e 	bne	r2,zero,810a38 <altera_avalon_jtag_uart_irq+0x130>
    {
      /* process a read irq.  Start by assuming that there is data in the
       * receive FIFO (otherwise why would we have been interrupted?)
       */
      unsigned int data = 1 << ALTERA_AVALON_JTAG_UART_DATA_RAVAIL_OFST;
  810964:	00800074 	movhi	r2,1
  810968:	e0bffa15 	stw	r2,-24(fp)
      for ( ; ; )
      {
        /* Check whether there is space in the buffer.  If not then we must not
         * read any characters from the buffer as they will be lost.
         */
        unsigned int next = (sp->rx_in + 1) % ALTERA_AVALON_JTAG_UART_BUF_LEN;
  81096c:	e0bffd17 	ldw	r2,-12(fp)
  810970:	10800a17 	ldw	r2,40(r2)
  810974:	10800044 	addi	r2,r2,1
  810978:	1081ffcc 	andi	r2,r2,2047
  81097c:	e0bff915 	stw	r2,-28(fp)
        if (next == sp->rx_out)
  810980:	e0bffd17 	ldw	r2,-12(fp)
  810984:	10c00b17 	ldw	r3,44(r2)
  810988:	e0bff917 	ldw	r2,-28(fp)
  81098c:	18801626 	beq	r3,r2,8109e8 <altera_avalon_jtag_uart_irq+0xe0>
          break;

        /* Try to remove a character from the FIFO and find out whether there
         * are any more characters remaining.
         */
        data = IORD_ALTERA_AVALON_JTAG_UART_DATA(base);
  810990:	e0bffc17 	ldw	r2,-16(fp)
  810994:	10800037 	ldwio	r2,0(r2)
  810998:	e0bffa15 	stw	r2,-24(fp)
        
        if ((data & ALTERA_AVALON_JTAG_UART_DATA_RVALID_MSK) == 0)
  81099c:	e0bffa17 	ldw	r2,-24(fp)
  8109a0:	10a0000c 	andi	r2,r2,32768
  8109a4:	1005003a 	cmpeq	r2,r2,zero
  8109a8:	10000f1e 	bne	r2,zero,8109e8 <altera_avalon_jtag_uart_irq+0xe0>
          break;

        sp->rx_buf[sp->rx_in] = (data & ALTERA_AVALON_JTAG_UART_DATA_DATA_MSK) >> ALTERA_AVALON_JTAG_UART_DATA_DATA_OFST;
  8109ac:	e0bffd17 	ldw	r2,-12(fp)
  8109b0:	10c00a17 	ldw	r3,40(r2)
  8109b4:	e0bffa17 	ldw	r2,-24(fp)
  8109b8:	1009883a 	mov	r4,r2
  8109bc:	e0bffd17 	ldw	r2,-12(fp)
  8109c0:	1885883a 	add	r2,r3,r2
  8109c4:	10800e04 	addi	r2,r2,56
  8109c8:	11000005 	stb	r4,0(r2)
        sp->rx_in = (sp->rx_in + 1) % ALTERA_AVALON_JTAG_UART_BUF_LEN;
  8109cc:	e0bffd17 	ldw	r2,-12(fp)
  8109d0:	10800a17 	ldw	r2,40(r2)
  8109d4:	10800044 	addi	r2,r2,1
  8109d8:	10c1ffcc 	andi	r3,r2,2047
  8109dc:	e0bffd17 	ldw	r2,-12(fp)
  8109e0:	10c00a15 	stw	r3,40(r2)

        /* Post an event to notify jtag_uart_read that a character has been read */
        ALT_FLAG_POST (sp->events, ALT_JTAG_UART_READ_RDY, OS_FLAG_SET);
      }
  8109e4:	003fe106 	br	81096c <altera_avalon_jtag_uart_irq+0x64>

      if (data & ALTERA_AVALON_JTAG_UART_DATA_RAVAIL_MSK)
  8109e8:	e0bffa17 	ldw	r2,-24(fp)
  8109ec:	10bfffec 	andhi	r2,r2,65535
  8109f0:	1005003a 	cmpeq	r2,r2,zero
  8109f4:	1000101e 	bne	r2,zero,810a38 <altera_avalon_jtag_uart_irq+0x130>
      {
        /* If there is still data available here then the buffer is full 
         * so turn off receive interrupts until some space becomes available.
         */
        sp->irq_enable &= ~ALTERA_AVALON_JTAG_UART_CONTROL_RE_MSK;
  8109f8:	e0bffd17 	ldw	r2,-12(fp)
  8109fc:	10c00817 	ldw	r3,32(r2)
  810a00:	00bfff84 	movi	r2,-2
  810a04:	1886703a 	and	r3,r3,r2
  810a08:	e0bffd17 	ldw	r2,-12(fp)
  810a0c:	10c00815 	stw	r3,32(r2)
        IOWR_ALTERA_AVALON_JTAG_UART_CONTROL(base, sp->irq_enable);
  810a10:	e0bffc17 	ldw	r2,-16(fp)
  810a14:	11000104 	addi	r4,r2,4
  810a18:	e0bffd17 	ldw	r2,-12(fp)
  810a1c:	10800817 	ldw	r2,32(r2)
  810a20:	1007883a 	mov	r3,r2
  810a24:	2005883a 	mov	r2,r4
  810a28:	10c00035 	stwio	r3,0(r2)
        
        /* Dummy read to ensure IRQ is cleared prior to ISR completion */
        IORD_ALTERA_AVALON_JTAG_UART_CONTROL(base);
  810a2c:	e0bffc17 	ldw	r2,-16(fp)
  810a30:	10800104 	addi	r2,r2,4
  810a34:	10800037 	ldwio	r2,0(r2)
      }
    }

    if (control & ALTERA_AVALON_JTAG_UART_CONTROL_WI_MSK)
  810a38:	e0bffb17 	ldw	r2,-20(fp)
  810a3c:	1080800c 	andi	r2,r2,512
  810a40:	1005003a 	cmpeq	r2,r2,zero
  810a44:	103fbb1e 	bne	r2,zero,810934 <altera_avalon_jtag_uart_irq+0x2c>
    {
      /* process a write irq */
      unsigned int space = (control & ALTERA_AVALON_JTAG_UART_CONTROL_WSPACE_MSK) >> ALTERA_AVALON_JTAG_UART_CONTROL_WSPACE_OFST;
  810a48:	e0bffb17 	ldw	r2,-20(fp)
  810a4c:	10bfffec 	andhi	r2,r2,65535
  810a50:	1004d43a 	srli	r2,r2,16
  810a54:	e0bff815 	stw	r2,-32(fp)

      while (space > 0 && sp->tx_out != sp->tx_in)
  810a58:	00001506 	br	810ab0 <altera_avalon_jtag_uart_irq+0x1a8>
      {
        IOWR_ALTERA_AVALON_JTAG_UART_DATA(base, sp->tx_buf[sp->tx_out]);
  810a5c:	e13ffc17 	ldw	r4,-16(fp)
  810a60:	e0bffd17 	ldw	r2,-12(fp)
  810a64:	10c00d17 	ldw	r3,52(r2)
  810a68:	e0bffd17 	ldw	r2,-12(fp)
  810a6c:	1885883a 	add	r2,r3,r2
  810a70:	10820e04 	addi	r2,r2,2104
  810a74:	10800003 	ldbu	r2,0(r2)
  810a78:	10c03fcc 	andi	r3,r2,255
  810a7c:	18c0201c 	xori	r3,r3,128
  810a80:	18ffe004 	addi	r3,r3,-128
  810a84:	2005883a 	mov	r2,r4
  810a88:	10c00035 	stwio	r3,0(r2)

        sp->tx_out = (sp->tx_out + 1) % ALTERA_AVALON_JTAG_UART_BUF_LEN;
  810a8c:	e0bffd17 	ldw	r2,-12(fp)
  810a90:	10800d17 	ldw	r2,52(r2)
  810a94:	10800044 	addi	r2,r2,1
  810a98:	10c1ffcc 	andi	r3,r2,2047
  810a9c:	e0bffd17 	ldw	r2,-12(fp)
  810aa0:	10c00d15 	stw	r3,52(r2)

        /* Post an event to notify jtag_uart_write that a character has been written */
        ALT_FLAG_POST (sp->events, ALT_JTAG_UART_WRITE_RDY, OS_FLAG_SET);

        space--;
  810aa4:	e0bff817 	ldw	r2,-32(fp)
  810aa8:	10bfffc4 	addi	r2,r2,-1
  810aac:	e0bff815 	stw	r2,-32(fp)
    if (control & ALTERA_AVALON_JTAG_UART_CONTROL_WI_MSK)
    {
      /* process a write irq */
      unsigned int space = (control & ALTERA_AVALON_JTAG_UART_CONTROL_WSPACE_MSK) >> ALTERA_AVALON_JTAG_UART_CONTROL_WSPACE_OFST;

      while (space > 0 && sp->tx_out != sp->tx_in)
  810ab0:	e0bff817 	ldw	r2,-32(fp)
  810ab4:	1005003a 	cmpeq	r2,r2,zero
  810ab8:	1000051e 	bne	r2,zero,810ad0 <altera_avalon_jtag_uart_irq+0x1c8>
  810abc:	e0bffd17 	ldw	r2,-12(fp)
  810ac0:	10c00d17 	ldw	r3,52(r2)
  810ac4:	e0bffd17 	ldw	r2,-12(fp)
  810ac8:	10800c17 	ldw	r2,48(r2)
  810acc:	18bfe31e 	bne	r3,r2,810a5c <altera_avalon_jtag_uart_irq+0x154>
        ALT_FLAG_POST (sp->events, ALT_JTAG_UART_WRITE_RDY, OS_FLAG_SET);

        space--;
      }

      if (space > 0)
  810ad0:	e0bff817 	ldw	r2,-32(fp)
  810ad4:	1005003a 	cmpeq	r2,r2,zero
  810ad8:	103f961e 	bne	r2,zero,810934 <altera_avalon_jtag_uart_irq+0x2c>
      {
        /* If we don't have any more data available then turn off the TX interrupt */
        sp->irq_enable &= ~ALTERA_AVALON_JTAG_UART_CONTROL_WE_MSK;
  810adc:	e0bffd17 	ldw	r2,-12(fp)
  810ae0:	10c00817 	ldw	r3,32(r2)
  810ae4:	00bfff44 	movi	r2,-3
  810ae8:	1886703a 	and	r3,r3,r2
  810aec:	e0bffd17 	ldw	r2,-12(fp)
  810af0:	10c00815 	stw	r3,32(r2)
        IOWR_ALTERA_AVALON_JTAG_UART_CONTROL(sp->base, sp->irq_enable);
  810af4:	e0bffd17 	ldw	r2,-12(fp)
  810af8:	10800017 	ldw	r2,0(r2)
  810afc:	11000104 	addi	r4,r2,4
  810b00:	e0bffd17 	ldw	r2,-12(fp)
  810b04:	10800817 	ldw	r2,32(r2)
  810b08:	1007883a 	mov	r3,r2
  810b0c:	2005883a 	mov	r2,r4
  810b10:	10c00035 	stwio	r3,0(r2)
        
        /* Dummy read to ensure IRQ is cleared prior to ISR completion */
        IORD_ALTERA_AVALON_JTAG_UART_CONTROL(base);
  810b14:	e0bffc17 	ldw	r2,-16(fp)
  810b18:	10800104 	addi	r2,r2,4
  810b1c:	10800037 	ldwio	r2,0(r2)
      }
    }
  }
  810b20:	003f8406 	br	810934 <altera_avalon_jtag_uart_irq+0x2c>
}
  810b24:	e037883a 	mov	sp,fp
  810b28:	df000017 	ldw	fp,0(sp)
  810b2c:	dec00104 	addi	sp,sp,4
  810b30:	f800283a 	ret

00810b34 <altera_avalon_jtag_uart_timeout>:
 * Timeout routine is called every second
 */

static alt_u32 
altera_avalon_jtag_uart_timeout(void* context) 
{
  810b34:	defffc04 	addi	sp,sp,-16
  810b38:	df000315 	stw	fp,12(sp)
  810b3c:	df000304 	addi	fp,sp,12
  810b40:	e13fff15 	stw	r4,-4(fp)
  altera_avalon_jtag_uart_state* sp = (altera_avalon_jtag_uart_state *) context;
  810b44:	e0bfff17 	ldw	r2,-4(fp)
  810b48:	e0bffe15 	stw	r2,-8(fp)

  unsigned int control = IORD_ALTERA_AVALON_JTAG_UART_CONTROL(sp->base);
  810b4c:	e0bffe17 	ldw	r2,-8(fp)
  810b50:	10800017 	ldw	r2,0(r2)
  810b54:	10800104 	addi	r2,r2,4
  810b58:	10800037 	ldwio	r2,0(r2)
  810b5c:	e0bffd15 	stw	r2,-12(fp)

  if (control & ALTERA_AVALON_JTAG_UART_CONTROL_AC_MSK)
  810b60:	e0bffd17 	ldw	r2,-12(fp)
  810b64:	1081000c 	andi	r2,r2,1024
  810b68:	1005003a 	cmpeq	r2,r2,zero
  810b6c:	10000c1e 	bne	r2,zero,810ba0 <altera_avalon_jtag_uart_timeout+0x6c>
  {
    IOWR_ALTERA_AVALON_JTAG_UART_CONTROL(sp->base, sp->irq_enable | ALTERA_AVALON_JTAG_UART_CONTROL_AC_MSK);
  810b70:	e0bffe17 	ldw	r2,-8(fp)
  810b74:	10800017 	ldw	r2,0(r2)
  810b78:	11000104 	addi	r4,r2,4
  810b7c:	e0bffe17 	ldw	r2,-8(fp)
  810b80:	10800817 	ldw	r2,32(r2)
  810b84:	10810014 	ori	r2,r2,1024
  810b88:	1007883a 	mov	r3,r2
  810b8c:	2005883a 	mov	r2,r4
  810b90:	10c00035 	stwio	r3,0(r2)
    sp->host_inactive = 0;
  810b94:	e0bffe17 	ldw	r2,-8(fp)
  810b98:	10000915 	stw	zero,36(r2)
  810b9c:	00000a06 	br	810bc8 <altera_avalon_jtag_uart_timeout+0x94>
  }
  else if (sp->host_inactive < INT_MAX - 2) {
  810ba0:	e0bffe17 	ldw	r2,-8(fp)
  810ba4:	10c00917 	ldw	r3,36(r2)
  810ba8:	00a00034 	movhi	r2,32768
  810bac:	10bfff04 	addi	r2,r2,-4
  810bb0:	10c00536 	bltu	r2,r3,810bc8 <altera_avalon_jtag_uart_timeout+0x94>
    sp->host_inactive++;
  810bb4:	e0bffe17 	ldw	r2,-8(fp)
  810bb8:	10800917 	ldw	r2,36(r2)
  810bbc:	10c00044 	addi	r3,r2,1
  810bc0:	e0bffe17 	ldw	r2,-8(fp)
  810bc4:	10c00915 	stw	r3,36(r2)
  810bc8:	00802074 	movhi	r2,129
  810bcc:	109c7104 	addi	r2,r2,29124
  810bd0:	10800017 	ldw	r2,0(r2)
      ALT_FLAG_POST (sp->events, ALT_JTAG_UART_TIMEOUT, OS_FLAG_SET);
    }
  }

  return alt_ticks_per_second();
}
  810bd4:	e037883a 	mov	sp,fp
  810bd8:	df000017 	ldw	fp,0(sp)
  810bdc:	dec00104 	addi	sp,sp,4
  810be0:	f800283a 	ret

00810be4 <altera_avalon_jtag_uart_close>:
 * The close routine is not implemented for the small driver; instead it will
 * map to null. This is because the small driver simply waits while characters
 * are transmitted; there is no interrupt-serviced buffer to empty 
 */
int altera_avalon_jtag_uart_close(altera_avalon_jtag_uart_state* sp, int flags)
{
  810be4:	defffc04 	addi	sp,sp,-16
  810be8:	df000315 	stw	fp,12(sp)
  810bec:	df000304 	addi	fp,sp,12
  810bf0:	e13ffd15 	stw	r4,-12(fp)
  810bf4:	e17ffe15 	stw	r5,-8(fp)
  /* 
   * Wait for all transmit data to be emptied by the JTAG UART ISR, or
   * for a host-inactivity timeout, in which case transmit data will be lost
   */
  while ( (sp->tx_out != sp->tx_in) && (sp->host_inactive < sp->timeout) ) {
  810bf8:	00000706 	br	810c18 <altera_avalon_jtag_uart_close+0x34>
    if (flags & O_NONBLOCK) {
  810bfc:	e0bffe17 	ldw	r2,-8(fp)
  810c00:	1090000c 	andi	r2,r2,16384
  810c04:	1005003a 	cmpeq	r2,r2,zero
  810c08:	1000031e 	bne	r2,zero,810c18 <altera_avalon_jtag_uart_close+0x34>
      return -EWOULDBLOCK; 
  810c0c:	00bffd44 	movi	r2,-11
  810c10:	e0bfff15 	stw	r2,-4(fp)
  810c14:	00000b06 	br	810c44 <altera_avalon_jtag_uart_close+0x60>
{
  /* 
   * Wait for all transmit data to be emptied by the JTAG UART ISR, or
   * for a host-inactivity timeout, in which case transmit data will be lost
   */
  while ( (sp->tx_out != sp->tx_in) && (sp->host_inactive < sp->timeout) ) {
  810c18:	e0bffd17 	ldw	r2,-12(fp)
  810c1c:	10c00d17 	ldw	r3,52(r2)
  810c20:	e0bffd17 	ldw	r2,-12(fp)
  810c24:	10800c17 	ldw	r2,48(r2)
  810c28:	18800526 	beq	r3,r2,810c40 <altera_avalon_jtag_uart_close+0x5c>
  810c2c:	e0bffd17 	ldw	r2,-12(fp)
  810c30:	10c00917 	ldw	r3,36(r2)
  810c34:	e0bffd17 	ldw	r2,-12(fp)
  810c38:	10800117 	ldw	r2,4(r2)
  810c3c:	18bfef36 	bltu	r3,r2,810bfc <altera_avalon_jtag_uart_close+0x18>
    if (flags & O_NONBLOCK) {
      return -EWOULDBLOCK; 
    }
  }

  return 0;
  810c40:	e03fff15 	stw	zero,-4(fp)
  810c44:	e0bfff17 	ldw	r2,-4(fp)
}
  810c48:	e037883a 	mov	sp,fp
  810c4c:	df000017 	ldw	fp,0(sp)
  810c50:	dec00104 	addi	sp,sp,4
  810c54:	f800283a 	ret

00810c58 <altera_avalon_jtag_uart_ioctl>:
/* ----------------------------------------------------------- */

int 
altera_avalon_jtag_uart_ioctl(altera_avalon_jtag_uart_state* sp, int req,
  void* arg)
{
  810c58:	defff804 	addi	sp,sp,-32
  810c5c:	df000715 	stw	fp,28(sp)
  810c60:	df000704 	addi	fp,sp,28
  810c64:	e13ffb15 	stw	r4,-20(fp)
  810c68:	e17ffc15 	stw	r5,-16(fp)
  810c6c:	e1bffd15 	stw	r6,-12(fp)
  int rc = -ENOTTY;
  810c70:	00bff9c4 	movi	r2,-25
  810c74:	e0bffa15 	stw	r2,-24(fp)

  switch (req)
  810c78:	e0bffc17 	ldw	r2,-16(fp)
  810c7c:	e0bfff15 	stw	r2,-4(fp)
  810c80:	e0ffff17 	ldw	r3,-4(fp)
  810c84:	189a8060 	cmpeqi	r2,r3,27137
  810c88:	1000041e 	bne	r2,zero,810c9c <altera_avalon_jtag_uart_ioctl+0x44>
  810c8c:	e0ffff17 	ldw	r3,-4(fp)
  810c90:	189a80a0 	cmpeqi	r2,r3,27138
  810c94:	10001b1e 	bne	r2,zero,810d04 <altera_avalon_jtag_uart_ioctl+0xac>
  810c98:	00002706 	br	810d38 <altera_avalon_jtag_uart_ioctl+0xe0>
  {
  case TIOCSTIMEOUT:
    /* Set the time to wait until assuming host is not connected */
    if (sp->timeout != INT_MAX)
  810c9c:	e0bffb17 	ldw	r2,-20(fp)
  810ca0:	10c00117 	ldw	r3,4(r2)
  810ca4:	00a00034 	movhi	r2,32768
  810ca8:	10bfffc4 	addi	r2,r2,-1
  810cac:	18802226 	beq	r3,r2,810d38 <altera_avalon_jtag_uart_ioctl+0xe0>
    {
      int timeout = *((int *)arg);
  810cb0:	e0bffd17 	ldw	r2,-12(fp)
  810cb4:	10800017 	ldw	r2,0(r2)
  810cb8:	e0bff915 	stw	r2,-28(fp)
      sp->timeout = (timeout >= 2 && timeout < INT_MAX) ? timeout : INT_MAX - 1;
  810cbc:	e0bff917 	ldw	r2,-28(fp)
  810cc0:	10800090 	cmplti	r2,r2,2
  810cc4:	1000071e 	bne	r2,zero,810ce4 <altera_avalon_jtag_uart_ioctl+0x8c>
  810cc8:	e0fff917 	ldw	r3,-28(fp)
  810ccc:	00a00034 	movhi	r2,32768
  810cd0:	10bfffc4 	addi	r2,r2,-1
  810cd4:	18800326 	beq	r3,r2,810ce4 <altera_avalon_jtag_uart_ioctl+0x8c>
  810cd8:	e0bff917 	ldw	r2,-28(fp)
  810cdc:	e0bffe15 	stw	r2,-8(fp)
  810ce0:	00000306 	br	810cf0 <altera_avalon_jtag_uart_ioctl+0x98>
  810ce4:	00e00034 	movhi	r3,32768
  810ce8:	18ffff84 	addi	r3,r3,-2
  810cec:	e0fffe15 	stw	r3,-8(fp)
  810cf0:	e0bffb17 	ldw	r2,-20(fp)
  810cf4:	e0fffe17 	ldw	r3,-8(fp)
  810cf8:	10c00115 	stw	r3,4(r2)
      rc = 0;
  810cfc:	e03ffa15 	stw	zero,-24(fp)
    }
    break;
  810d00:	00000d06 	br	810d38 <altera_avalon_jtag_uart_ioctl+0xe0>

  case TIOCGCONNECTED:
    /* Find out whether host is connected */
    if (sp->timeout != INT_MAX)
  810d04:	e0bffb17 	ldw	r2,-20(fp)
  810d08:	10c00117 	ldw	r3,4(r2)
  810d0c:	00a00034 	movhi	r2,32768
  810d10:	10bfffc4 	addi	r2,r2,-1
  810d14:	18800826 	beq	r3,r2,810d38 <altera_avalon_jtag_uart_ioctl+0xe0>
    {
      *((int *)arg) = (sp->host_inactive < sp->timeout) ? 1 : 0;
  810d18:	e13ffd17 	ldw	r4,-12(fp)
  810d1c:	e0bffb17 	ldw	r2,-20(fp)
  810d20:	10c00917 	ldw	r3,36(r2)
  810d24:	e0bffb17 	ldw	r2,-20(fp)
  810d28:	10800117 	ldw	r2,4(r2)
  810d2c:	1885803a 	cmpltu	r2,r3,r2
  810d30:	20800015 	stw	r2,0(r4)
      rc = 0;
  810d34:	e03ffa15 	stw	zero,-24(fp)

  default:
    break;
  }

  return rc;
  810d38:	e0bffa17 	ldw	r2,-24(fp)
}
  810d3c:	e037883a 	mov	sp,fp
  810d40:	df000017 	ldw	fp,0(sp)
  810d44:	dec00104 	addi	sp,sp,4
  810d48:	f800283a 	ret

00810d4c <altera_avalon_jtag_uart_read>:
/* ----------------------------------------------------------- */

int 
altera_avalon_jtag_uart_read(altera_avalon_jtag_uart_state* sp, 
  char * buffer, int space, int flags)
{
  810d4c:	defff204 	addi	sp,sp,-56
  810d50:	dfc00d15 	stw	ra,52(sp)
  810d54:	df000c15 	stw	fp,48(sp)
  810d58:	df000c04 	addi	fp,sp,48
  810d5c:	e13ffb15 	stw	r4,-20(fp)
  810d60:	e17ffc15 	stw	r5,-16(fp)
  810d64:	e1bffd15 	stw	r6,-12(fp)
  810d68:	e1fffe15 	stw	r7,-8(fp)
  char * ptr = buffer;
  810d6c:	e0bffc17 	ldw	r2,-16(fp)
  810d70:	e0bffa15 	stw	r2,-24(fp)
   * When running in a multi threaded environment, obtain the "read_lock"
   * semaphore. This ensures that reading from the device is thread-safe.
   */
  ALT_SEM_PEND (sp->read_lock, 0);

  while (space > 0)
  810d74:	00004806 	br	810e98 <altera_avalon_jtag_uart_read+0x14c>
    unsigned int in, out;

    /* Read as much data as possible */
    do
    {
      in  = sp->rx_in;
  810d78:	e0bffb17 	ldw	r2,-20(fp)
  810d7c:	10800a17 	ldw	r2,40(r2)
  810d80:	e0bff715 	stw	r2,-36(fp)
      out = sp->rx_out;
  810d84:	e0bffb17 	ldw	r2,-20(fp)
  810d88:	10800b17 	ldw	r2,44(r2)
  810d8c:	e0bff615 	stw	r2,-40(fp)

      if (in >= out)
  810d90:	e0fff717 	ldw	r3,-36(fp)
  810d94:	e0bff617 	ldw	r2,-40(fp)
  810d98:	18800536 	bltu	r3,r2,810db0 <altera_avalon_jtag_uart_read+0x64>
        n = in - out;
  810d9c:	e0bff717 	ldw	r2,-36(fp)
  810da0:	e0fff617 	ldw	r3,-40(fp)
  810da4:	10c5c83a 	sub	r2,r2,r3
  810da8:	e0bff815 	stw	r2,-32(fp)
  810dac:	00000406 	br	810dc0 <altera_avalon_jtag_uart_read+0x74>
      else
        n = ALTERA_AVALON_JTAG_UART_BUF_LEN - out;
  810db0:	00820004 	movi	r2,2048
  810db4:	e0fff617 	ldw	r3,-40(fp)
  810db8:	10c5c83a 	sub	r2,r2,r3
  810dbc:	e0bff815 	stw	r2,-32(fp)

      if (n == 0)
  810dc0:	e0bff817 	ldw	r2,-32(fp)
  810dc4:	1005003a 	cmpeq	r2,r2,zero
  810dc8:	10001f1e 	bne	r2,zero,810e48 <altera_avalon_jtag_uart_read+0xfc>
        break; /* No more data available */

      if (n > space)
  810dcc:	e0fffd17 	ldw	r3,-12(fp)
  810dd0:	e0bff817 	ldw	r2,-32(fp)
  810dd4:	1880022e 	bgeu	r3,r2,810de0 <altera_avalon_jtag_uart_read+0x94>
        n = space;
  810dd8:	e0bffd17 	ldw	r2,-12(fp)
  810ddc:	e0bff815 	stw	r2,-32(fp)

      memcpy(ptr, sp->rx_buf + out, n);
  810de0:	e0bffb17 	ldw	r2,-20(fp)
  810de4:	10c00e04 	addi	r3,r2,56
  810de8:	e0bff617 	ldw	r2,-40(fp)
  810dec:	1887883a 	add	r3,r3,r2
  810df0:	e0bffa17 	ldw	r2,-24(fp)
  810df4:	1009883a 	mov	r4,r2
  810df8:	180b883a 	mov	r5,r3
  810dfc:	e1bff817 	ldw	r6,-32(fp)
  810e00:	08063400 	call	806340 <memcpy>
      ptr   += n;
  810e04:	e0fff817 	ldw	r3,-32(fp)
  810e08:	e0bffa17 	ldw	r2,-24(fp)
  810e0c:	10c5883a 	add	r2,r2,r3
  810e10:	e0bffa15 	stw	r2,-24(fp)
      space -= n;
  810e14:	e0fffd17 	ldw	r3,-12(fp)
  810e18:	e0bff817 	ldw	r2,-32(fp)
  810e1c:	1885c83a 	sub	r2,r3,r2
  810e20:	e0bffd15 	stw	r2,-12(fp)

      sp->rx_out = (out + n) % ALTERA_AVALON_JTAG_UART_BUF_LEN;
  810e24:	e0fff617 	ldw	r3,-40(fp)
  810e28:	e0bff817 	ldw	r2,-32(fp)
  810e2c:	1885883a 	add	r2,r3,r2
  810e30:	10c1ffcc 	andi	r3,r2,2047
  810e34:	e0bffb17 	ldw	r2,-20(fp)
  810e38:	10c00b15 	stw	r3,44(r2)
    }
    while (space > 0);
  810e3c:	e0bffd17 	ldw	r2,-12(fp)
  810e40:	10800048 	cmpgei	r2,r2,1
  810e44:	103fcc1e 	bne	r2,zero,810d78 <altera_avalon_jtag_uart_read+0x2c>

    /* If we read any data then return it */
    if (ptr != buffer)
  810e48:	e0fffa17 	ldw	r3,-24(fp)
  810e4c:	e0bffc17 	ldw	r2,-16(fp)
  810e50:	1880141e 	bne	r3,r2,810ea4 <altera_avalon_jtag_uart_read+0x158>
      break;

    /* If in non-blocking mode then return error */
    if (flags & O_NONBLOCK)
  810e54:	e0bffe17 	ldw	r2,-8(fp)
  810e58:	1090000c 	andi	r2,r2,16384
  810e5c:	1004c03a 	cmpne	r2,r2,zero
  810e60:	1000101e 	bne	r2,zero,810ea4 <altera_avalon_jtag_uart_read+0x158>
      while (in == sp->rx_in && sp->host_inactive < sp->timeout)
        ;
    }
#else
    /* No OS: Always spin */
    while (in == sp->rx_in && sp->host_inactive < sp->timeout)
  810e64:	e0bffb17 	ldw	r2,-20(fp)
  810e68:	10c00a17 	ldw	r3,40(r2)
  810e6c:	e0bff717 	ldw	r2,-36(fp)
  810e70:	1880051e 	bne	r3,r2,810e88 <altera_avalon_jtag_uart_read+0x13c>
  810e74:	e0bffb17 	ldw	r2,-20(fp)
  810e78:	10c00917 	ldw	r3,36(r2)
  810e7c:	e0bffb17 	ldw	r2,-20(fp)
  810e80:	10800117 	ldw	r2,4(r2)
  810e84:	18bff736 	bltu	r3,r2,810e64 <altera_avalon_jtag_uart_read+0x118>
      ;
#endif /* __ucosii__ */

    if (in == sp->rx_in)
  810e88:	e0bffb17 	ldw	r2,-20(fp)
  810e8c:	10c00a17 	ldw	r3,40(r2)
  810e90:	e0bff717 	ldw	r2,-36(fp)
  810e94:	18800326 	beq	r3,r2,810ea4 <altera_avalon_jtag_uart_read+0x158>
   * When running in a multi threaded environment, obtain the "read_lock"
   * semaphore. This ensures that reading from the device is thread-safe.
   */
  ALT_SEM_PEND (sp->read_lock, 0);

  while (space > 0)
  810e98:	e0bffd17 	ldw	r2,-12(fp)
  810e9c:	10800048 	cmpgei	r2,r2,1
  810ea0:	103fb51e 	bne	r2,zero,810d78 <altera_avalon_jtag_uart_read+0x2c>
   * semaphore so that other threads can access the buffer.
   */

  ALT_SEM_POST (sp->read_lock);

  if (ptr != buffer)
  810ea4:	e0fffa17 	ldw	r3,-24(fp)
  810ea8:	e0bffc17 	ldw	r2,-16(fp)
  810eac:	18801926 	beq	r3,r2,810f14 <altera_avalon_jtag_uart_read+0x1c8>
static ALT_INLINE alt_irq_context ALT_ALWAYS_INLINE 
       alt_irq_disable_all (void)
{
  alt_irq_context context;

  NIOS2_READ_STATUS (context);
  810eb0:	0005303a 	rdctl	r2,status
  810eb4:	e0bff515 	stw	r2,-44(fp)

  NIOS2_WRITE_STATUS (context & ~NIOS2_STATUS_PIE_MSK);
  810eb8:	e0fff517 	ldw	r3,-44(fp)
  810ebc:	00bfff84 	movi	r2,-2
  810ec0:	1884703a 	and	r2,r3,r2
  810ec4:	1001703a 	wrctl	status,r2
  
  return context;
  810ec8:	e0bff517 	ldw	r2,-44(fp)
  {
    /* If we read any data then there is space in the buffer so enable interrupts */
    context = alt_irq_disable_all();
  810ecc:	e0bff915 	stw	r2,-28(fp)
    sp->irq_enable |= ALTERA_AVALON_JTAG_UART_CONTROL_RE_MSK;
  810ed0:	e0bffb17 	ldw	r2,-20(fp)
  810ed4:	10800817 	ldw	r2,32(r2)
  810ed8:	10c00054 	ori	r3,r2,1
  810edc:	e0bffb17 	ldw	r2,-20(fp)
  810ee0:	10c00815 	stw	r3,32(r2)
    IOWR_ALTERA_AVALON_JTAG_UART_CONTROL(sp->base, sp->irq_enable);
  810ee4:	e0bffb17 	ldw	r2,-20(fp)
  810ee8:	10800017 	ldw	r2,0(r2)
  810eec:	11000104 	addi	r4,r2,4
  810ef0:	e0bffb17 	ldw	r2,-20(fp)
  810ef4:	10800817 	ldw	r2,32(r2)
  810ef8:	1007883a 	mov	r3,r2
  810efc:	2005883a 	mov	r2,r4
  810f00:	10c00035 	stwio	r3,0(r2)
  810f04:	e0bff917 	ldw	r2,-28(fp)
  810f08:	e0bff415 	stw	r2,-48(fp)
  status &= ~NIOS2_STATUS_PIE_MSK;
  status |= (context & NIOS2_STATUS_PIE_MSK);
  
  NIOS2_WRITE_STATUS (status);
#else
  NIOS2_WRITE_STATUS (context);
  810f0c:	e0bff417 	ldw	r2,-48(fp)
  810f10:	1001703a 	wrctl	status,r2
    alt_irq_enable_all(context);
  }

  if (ptr != buffer)
  810f14:	e0fffa17 	ldw	r3,-24(fp)
  810f18:	e0bffc17 	ldw	r2,-16(fp)
  810f1c:	18800526 	beq	r3,r2,810f34 <altera_avalon_jtag_uart_read+0x1e8>
    return ptr - buffer;
  810f20:	e0fffa17 	ldw	r3,-24(fp)
  810f24:	e0bffc17 	ldw	r2,-16(fp)
  810f28:	1887c83a 	sub	r3,r3,r2
  810f2c:	e0ffff15 	stw	r3,-4(fp)
  810f30:	00000906 	br	810f58 <altera_avalon_jtag_uart_read+0x20c>
  else if (flags & O_NONBLOCK)
  810f34:	e0bffe17 	ldw	r2,-8(fp)
  810f38:	1090000c 	andi	r2,r2,16384
  810f3c:	1005003a 	cmpeq	r2,r2,zero
  810f40:	1000031e 	bne	r2,zero,810f50 <altera_avalon_jtag_uart_read+0x204>
    return -EWOULDBLOCK;
  810f44:	00bffd44 	movi	r2,-11
  810f48:	e0bfff15 	stw	r2,-4(fp)
  810f4c:	00000206 	br	810f58 <altera_avalon_jtag_uart_read+0x20c>
  else
    return -EIO;
  810f50:	00bffec4 	movi	r2,-5
  810f54:	e0bfff15 	stw	r2,-4(fp)
  810f58:	e0bfff17 	ldw	r2,-4(fp)
}
  810f5c:	e037883a 	mov	sp,fp
  810f60:	dfc00117 	ldw	ra,4(sp)
  810f64:	df000017 	ldw	fp,0(sp)
  810f68:	dec00204 	addi	sp,sp,8
  810f6c:	f800283a 	ret

00810f70 <altera_avalon_jtag_uart_write>:
/* ----------------------------------------------------------- */

int 
altera_avalon_jtag_uart_write(altera_avalon_jtag_uart_state* sp, 
  const char * ptr, int count, int flags)
{
  810f70:	defff204 	addi	sp,sp,-56
  810f74:	dfc00d15 	stw	ra,52(sp)
  810f78:	df000c15 	stw	fp,48(sp)
  810f7c:	df000c04 	addi	fp,sp,48
  810f80:	e13ffb15 	stw	r4,-20(fp)
  810f84:	e17ffc15 	stw	r5,-16(fp)
  810f88:	e1bffd15 	stw	r6,-12(fp)
  810f8c:	e1fffe15 	stw	r7,-8(fp)
  /* Remove warning at optimisation level 03 by seting out to 0 */
  unsigned int in, out=0;
  810f90:	e03ff915 	stw	zero,-28(fp)
  unsigned int n;
  alt_irq_context context;

  const char * start = ptr;
  810f94:	e0bffc17 	ldw	r2,-16(fp)
  810f98:	e0bff615 	stw	r2,-40(fp)
  ALT_SEM_PEND (sp->write_lock, 0);

  do
  {
    /* Copy as much as we can into the transmit buffer */
    while (count > 0)
  810f9c:	00003a06 	br	811088 <altera_avalon_jtag_uart_write+0x118>
    {
      /* We need a stable value of the out pointer to calculate the space available */
      in  = sp->tx_in;
  810fa0:	e0bffb17 	ldw	r2,-20(fp)
  810fa4:	10800c17 	ldw	r2,48(r2)
  810fa8:	e0bffa15 	stw	r2,-24(fp)
      out = sp->tx_out;
  810fac:	e0bffb17 	ldw	r2,-20(fp)
  810fb0:	10800d17 	ldw	r2,52(r2)
  810fb4:	e0bff915 	stw	r2,-28(fp)

      if (in < out)
  810fb8:	e0fffa17 	ldw	r3,-24(fp)
  810fbc:	e0bff917 	ldw	r2,-28(fp)
  810fc0:	1880062e 	bgeu	r3,r2,810fdc <altera_avalon_jtag_uart_write+0x6c>
        n = out - 1 - in;
  810fc4:	e0fff917 	ldw	r3,-28(fp)
  810fc8:	e0bffa17 	ldw	r2,-24(fp)
  810fcc:	1885c83a 	sub	r2,r3,r2
  810fd0:	10bfffc4 	addi	r2,r2,-1
  810fd4:	e0bff815 	stw	r2,-32(fp)
  810fd8:	00000c06 	br	81100c <altera_avalon_jtag_uart_write+0x9c>
      else if (out > 0)
  810fdc:	e0bff917 	ldw	r2,-28(fp)
  810fe0:	1005003a 	cmpeq	r2,r2,zero
  810fe4:	1000051e 	bne	r2,zero,810ffc <altera_avalon_jtag_uart_write+0x8c>
        n = ALTERA_AVALON_JTAG_UART_BUF_LEN - in;
  810fe8:	00820004 	movi	r2,2048
  810fec:	e0fffa17 	ldw	r3,-24(fp)
  810ff0:	10c5c83a 	sub	r2,r2,r3
  810ff4:	e0bff815 	stw	r2,-32(fp)
  810ff8:	00000406 	br	81100c <altera_avalon_jtag_uart_write+0x9c>
      else
        n = ALTERA_AVALON_JTAG_UART_BUF_LEN - 1 - in;
  810ffc:	0081ffc4 	movi	r2,2047
  811000:	e0fffa17 	ldw	r3,-24(fp)
  811004:	10c5c83a 	sub	r2,r2,r3
  811008:	e0bff815 	stw	r2,-32(fp)

      if (n == 0)
  81100c:	e0bff817 	ldw	r2,-32(fp)
  811010:	1005003a 	cmpeq	r2,r2,zero
  811014:	10001f1e 	bne	r2,zero,811094 <altera_avalon_jtag_uart_write+0x124>
        break;

      if (n > count)
  811018:	e0fffd17 	ldw	r3,-12(fp)
  81101c:	e0bff817 	ldw	r2,-32(fp)
  811020:	1880022e 	bgeu	r3,r2,81102c <altera_avalon_jtag_uart_write+0xbc>
        n = count;
  811024:	e0bffd17 	ldw	r2,-12(fp)
  811028:	e0bff815 	stw	r2,-32(fp)

      memcpy(sp->tx_buf + in, ptr, n);
  81102c:	e0bffb17 	ldw	r2,-20(fp)
  811030:	10c20e04 	addi	r3,r2,2104
  811034:	e0bffa17 	ldw	r2,-24(fp)
  811038:	1885883a 	add	r2,r3,r2
  81103c:	e0fffc17 	ldw	r3,-16(fp)
  811040:	1009883a 	mov	r4,r2
  811044:	180b883a 	mov	r5,r3
  811048:	e1bff817 	ldw	r6,-32(fp)
  81104c:	08063400 	call	806340 <memcpy>
      ptr   += n;
  811050:	e0fff817 	ldw	r3,-32(fp)
  811054:	e0bffc17 	ldw	r2,-16(fp)
  811058:	10c5883a 	add	r2,r2,r3
  81105c:	e0bffc15 	stw	r2,-16(fp)
      count -= n;
  811060:	e0fffd17 	ldw	r3,-12(fp)
  811064:	e0bff817 	ldw	r2,-32(fp)
  811068:	1885c83a 	sub	r2,r3,r2
  81106c:	e0bffd15 	stw	r2,-12(fp)

      sp->tx_in = (in + n) % ALTERA_AVALON_JTAG_UART_BUF_LEN;
  811070:	e0fffa17 	ldw	r3,-24(fp)
  811074:	e0bff817 	ldw	r2,-32(fp)
  811078:	1885883a 	add	r2,r3,r2
  81107c:	10c1ffcc 	andi	r3,r2,2047
  811080:	e0bffb17 	ldw	r2,-20(fp)
  811084:	10c00c15 	stw	r3,48(r2)
  ALT_SEM_PEND (sp->write_lock, 0);

  do
  {
    /* Copy as much as we can into the transmit buffer */
    while (count > 0)
  811088:	e0bffd17 	ldw	r2,-12(fp)
  81108c:	10800048 	cmpgei	r2,r2,1
  811090:	103fc31e 	bne	r2,zero,810fa0 <altera_avalon_jtag_uart_write+0x30>
static ALT_INLINE alt_irq_context ALT_ALWAYS_INLINE 
       alt_irq_disable_all (void)
{
  alt_irq_context context;

  NIOS2_READ_STATUS (context);
  811094:	0005303a 	rdctl	r2,status
  811098:	e0bff515 	stw	r2,-44(fp)

  NIOS2_WRITE_STATUS (context & ~NIOS2_STATUS_PIE_MSK);
  81109c:	e0fff517 	ldw	r3,-44(fp)
  8110a0:	00bfff84 	movi	r2,-2
  8110a4:	1884703a 	and	r2,r3,r2
  8110a8:	1001703a 	wrctl	status,r2
  
  return context;
  8110ac:	e0bff517 	ldw	r2,-44(fp)
     * to enable interrupts if there is no space left in the FIFO
     *
     * For now kick the interrupt routine every time to make it transmit 
     * the data 
     */
    context = alt_irq_disable_all();
  8110b0:	e0bff715 	stw	r2,-36(fp)
    sp->irq_enable |= ALTERA_AVALON_JTAG_UART_CONTROL_WE_MSK;
  8110b4:	e0bffb17 	ldw	r2,-20(fp)
  8110b8:	10800817 	ldw	r2,32(r2)
  8110bc:	10c00094 	ori	r3,r2,2
  8110c0:	e0bffb17 	ldw	r2,-20(fp)
  8110c4:	10c00815 	stw	r3,32(r2)
    IOWR_ALTERA_AVALON_JTAG_UART_CONTROL(sp->base, sp->irq_enable);
  8110c8:	e0bffb17 	ldw	r2,-20(fp)
  8110cc:	10800017 	ldw	r2,0(r2)
  8110d0:	11000104 	addi	r4,r2,4
  8110d4:	e0bffb17 	ldw	r2,-20(fp)
  8110d8:	10800817 	ldw	r2,32(r2)
  8110dc:	1007883a 	mov	r3,r2
  8110e0:	2005883a 	mov	r2,r4
  8110e4:	10c00035 	stwio	r3,0(r2)
  8110e8:	e0bff717 	ldw	r2,-36(fp)
  8110ec:	e0bff415 	stw	r2,-48(fp)
  status &= ~NIOS2_STATUS_PIE_MSK;
  status |= (context & NIOS2_STATUS_PIE_MSK);
  
  NIOS2_WRITE_STATUS (status);
#else
  NIOS2_WRITE_STATUS (context);
  8110f0:	e0bff417 	ldw	r2,-48(fp)
  8110f4:	1001703a 	wrctl	status,r2
    /* 
     * If there is any data left then either return now or block until 
     * some has been sent 
     */
    /* consider: test whether there is anything there while doing this and delay for at most 2s. */
    if (count > 0)
  8110f8:	e0bffd17 	ldw	r2,-12(fp)
  8110fc:	10800050 	cmplti	r2,r2,1
  811100:	1000111e 	bne	r2,zero,811148 <altera_avalon_jtag_uart_write+0x1d8>
    {
      if (flags & O_NONBLOCK)
  811104:	e0bffe17 	ldw	r2,-8(fp)
  811108:	1090000c 	andi	r2,r2,16384
  81110c:	1004c03a 	cmpne	r2,r2,zero
  811110:	1000101e 	bne	r2,zero,811154 <altera_avalon_jtag_uart_write+0x1e4>
      /*
       * No OS present: Always wait for data to be removed from buffer.  Once
       * the interrupt routine has removed some data then we will be able to
       * insert some more.
       */
      while (out == sp->tx_out && sp->host_inactive < sp->timeout)
  811114:	e0bffb17 	ldw	r2,-20(fp)
  811118:	10c00d17 	ldw	r3,52(r2)
  81111c:	e0bff917 	ldw	r2,-28(fp)
  811120:	1880051e 	bne	r3,r2,811138 <altera_avalon_jtag_uart_write+0x1c8>
  811124:	e0bffb17 	ldw	r2,-20(fp)
  811128:	10c00917 	ldw	r3,36(r2)
  81112c:	e0bffb17 	ldw	r2,-20(fp)
  811130:	10800117 	ldw	r2,4(r2)
  811134:	18bff736 	bltu	r3,r2,811114 <altera_avalon_jtag_uart_write+0x1a4>
        ;
#endif /* __ucosii__ */

      if (out == sp->tx_out)
  811138:	e0bffb17 	ldw	r2,-20(fp)
  81113c:	10c00d17 	ldw	r3,52(r2)
  811140:	e0bff917 	ldw	r2,-28(fp)
  811144:	18800326 	beq	r3,r2,811154 <altera_avalon_jtag_uart_write+0x1e4>
         break;
    }
  }
  while (count > 0);
  811148:	e0bffd17 	ldw	r2,-12(fp)
  81114c:	10800048 	cmpgei	r2,r2,1
  811150:	103fcd1e 	bne	r2,zero,811088 <altera_avalon_jtag_uart_write+0x118>
   * Now that access to the circular buffer is complete, release the write
   * semaphore so that other threads can access the buffer.
   */
  ALT_SEM_POST (sp->write_lock);

  if (ptr != start)
  811154:	e0fffc17 	ldw	r3,-16(fp)
  811158:	e0bff617 	ldw	r2,-40(fp)
  81115c:	18800526 	beq	r3,r2,811174 <altera_avalon_jtag_uart_write+0x204>
    return ptr - start;
  811160:	e0fffc17 	ldw	r3,-16(fp)
  811164:	e0bff617 	ldw	r2,-40(fp)
  811168:	1887c83a 	sub	r3,r3,r2
  81116c:	e0ffff15 	stw	r3,-4(fp)
  811170:	00000906 	br	811198 <altera_avalon_jtag_uart_write+0x228>
  else if (flags & O_NONBLOCK)
  811174:	e0bffe17 	ldw	r2,-8(fp)
  811178:	1090000c 	andi	r2,r2,16384
  81117c:	1005003a 	cmpeq	r2,r2,zero
  811180:	1000031e 	bne	r2,zero,811190 <altera_avalon_jtag_uart_write+0x220>
    return -EWOULDBLOCK;
  811184:	00bffd44 	movi	r2,-11
  811188:	e0bfff15 	stw	r2,-4(fp)
  81118c:	00000206 	br	811198 <altera_avalon_jtag_uart_write+0x228>
    sp->tx_out = sp->tx_in = 0;
    return ptr - start + count;
  }
#endif
  else
    return -EIO; /* Host not connected */
  811190:	00bffec4 	movi	r2,-5
  811194:	e0bfff15 	stw	r2,-4(fp)
  811198:	e0bfff17 	ldw	r2,-4(fp)
}
  81119c:	e037883a 	mov	sp,fp
  8111a0:	dfc00117 	ldw	ra,4(sp)
  8111a4:	df000017 	ldw	fp,0(sp)
  8111a8:	dec00204 	addi	sp,sp,8
  8111ac:	f800283a 	ret

008111b0 <alt_avalon_timer_sc_irq>:
#ifdef ALT_ENHANCED_INTERRUPT_API_PRESENT
static void alt_avalon_timer_sc_irq (void* base)
#else
static void alt_avalon_timer_sc_irq (void* base, alt_u32 id)
#endif
{
  8111b0:	defff904 	addi	sp,sp,-28
  8111b4:	dfc00615 	stw	ra,24(sp)
  8111b8:	df000515 	stw	fp,20(sp)
  8111bc:	df000504 	addi	fp,sp,20
  8111c0:	e13ffe15 	stw	r4,-8(fp)
  8111c4:	e17fff15 	stw	r5,-4(fp)
  alt_irq_context cpu_sr;
  
  /* clear the interrupt */
  IOWR_ALTERA_AVALON_TIMER_STATUS (base, 0);
  8111c8:	e0bffe17 	ldw	r2,-8(fp)
  8111cc:	10000035 	stwio	zero,0(r2)
  /* 
   * Dummy read to ensure IRQ is negated before the ISR returns.
   * The control register is read because reading the status
   * register has side-effects per the register map documentation.
   */
  IORD_ALTERA_AVALON_TIMER_CONTROL (base);
  8111d0:	e0bffe17 	ldw	r2,-8(fp)
  8111d4:	10800104 	addi	r2,r2,4
  8111d8:	10800037 	ldwio	r2,0(r2)
static ALT_INLINE alt_irq_context ALT_ALWAYS_INLINE 
       alt_irq_disable_all (void)
{
  alt_irq_context context;

  NIOS2_READ_STATUS (context);
  8111dc:	0005303a 	rdctl	r2,status
  8111e0:	e0bffc15 	stw	r2,-16(fp)

  NIOS2_WRITE_STATUS (context & ~NIOS2_STATUS_PIE_MSK);
  8111e4:	e0fffc17 	ldw	r3,-16(fp)
  8111e8:	00bfff84 	movi	r2,-2
  8111ec:	1884703a 	and	r2,r3,r2
  8111f0:	1001703a 	wrctl	status,r2
  
  return context;
  8111f4:	e0bffc17 	ldw	r2,-16(fp)

  /* 
   * Notify the system of a clock tick. disable interrupts 
   * during this time to safely support ISR preemption
   */
  cpu_sr = alt_irq_disable_all();
  8111f8:	e0bffd15 	stw	r2,-12(fp)
  alt_tick ();
  8111fc:	08120680 	call	812068 <alt_tick>
  811200:	e0bffd17 	ldw	r2,-12(fp)
  811204:	e0bffb15 	stw	r2,-20(fp)
  status &= ~NIOS2_STATUS_PIE_MSK;
  status |= (context & NIOS2_STATUS_PIE_MSK);
  
  NIOS2_WRITE_STATUS (status);
#else
  NIOS2_WRITE_STATUS (context);
  811208:	e0bffb17 	ldw	r2,-20(fp)
  81120c:	1001703a 	wrctl	status,r2
  alt_irq_enable_all(cpu_sr);
}
  811210:	e037883a 	mov	sp,fp
  811214:	dfc00117 	ldw	ra,4(sp)
  811218:	df000017 	ldw	fp,0(sp)
  81121c:	dec00204 	addi	sp,sp,8
  811220:	f800283a 	ret

00811224 <alt_avalon_timer_sc_init>:
 * auto-generated alt_sys_init() function.
 */

void alt_avalon_timer_sc_init (void* base, alt_u32 irq_controller_id, 
                                alt_u32 irq, alt_u32 freq)
{
  811224:	defff904 	addi	sp,sp,-28
  811228:	dfc00615 	stw	ra,24(sp)
  81122c:	df000515 	stw	fp,20(sp)
  811230:	df000504 	addi	fp,sp,20
  811234:	e13ffc15 	stw	r4,-16(fp)
  811238:	e17ffd15 	stw	r5,-12(fp)
  81123c:	e1bffe15 	stw	r6,-8(fp)
  811240:	e1ffff15 	stw	r7,-4(fp)
  811244:	e0bfff17 	ldw	r2,-4(fp)
  811248:	e0bffb15 	stw	r2,-20(fp)
 * in order to initialise the value of the clock frequency.
 */

static ALT_INLINE int ALT_ALWAYS_INLINE alt_sysclk_init (alt_u32 nticks)
{
  if (! _alt_tick_rate)
  81124c:	00802074 	movhi	r2,129
  811250:	109c7104 	addi	r2,r2,29124
  811254:	10800017 	ldw	r2,0(r2)
  811258:	1004c03a 	cmpne	r2,r2,zero
  81125c:	1000041e 	bne	r2,zero,811270 <alt_avalon_timer_sc_init+0x4c>
  {
    _alt_tick_rate = nticks;
  811260:	00c02074 	movhi	r3,129
  811264:	18dc7104 	addi	r3,r3,29124
  811268:	e0bffb17 	ldw	r2,-20(fp)
  81126c:	18800015 	stw	r2,0(r3)
  
  alt_sysclk_init (freq);
  
  /* set to free running mode */
  
  IOWR_ALTERA_AVALON_TIMER_CONTROL (base, 
  811270:	e0bffc17 	ldw	r2,-16(fp)
  811274:	10800104 	addi	r2,r2,4
  811278:	1007883a 	mov	r3,r2
  81127c:	008001c4 	movi	r2,7
  811280:	18800035 	stwio	r2,0(r3)
  /* register the interrupt handler, and enable the interrupt */
#ifdef ALT_ENHANCED_INTERRUPT_API_PRESENT
  alt_ic_isr_register(irq_controller_id, irq, alt_avalon_timer_sc_irq, 
                      base, NULL);
#else
  alt_irq_register (irq, base, alt_avalon_timer_sc_irq);
  811284:	e13ffe17 	ldw	r4,-8(fp)
  811288:	e17ffc17 	ldw	r5,-16(fp)
  81128c:	01802074 	movhi	r6,129
  811290:	31846c04 	addi	r6,r6,4528
  811294:	080f9540 	call	80f954 <alt_irq_register>
#endif  
}
  811298:	e037883a 	mov	sp,fp
  81129c:	dfc00117 	ldw	ra,4(sp)
  8112a0:	df000017 	ldw	fp,0(sp)
  8112a4:	dec00204 	addi	sp,sp,8
  8112a8:	f800283a 	ret

008112ac <alt_up_rs232_enable_read_interrupt>:
#include "altera_up_avalon_rs232.h"
#include "altera_up_avalon_rs232_regs.h"


void alt_up_rs232_enable_read_interrupt(alt_up_rs232_dev *rs232)
{
  8112ac:	defffd04 	addi	sp,sp,-12
  8112b0:	df000215 	stw	fp,8(sp)
  8112b4:	df000204 	addi	fp,sp,8
  8112b8:	e13fff15 	stw	r4,-4(fp)
	alt_u32 ctrl_reg;
	ctrl_reg = IORD_ALT_UP_RS232_CONTROL(rs232->base); 
  8112bc:	e0bfff17 	ldw	r2,-4(fp)
  8112c0:	10800a17 	ldw	r2,40(r2)
  8112c4:	10800104 	addi	r2,r2,4
  8112c8:	10800037 	ldwio	r2,0(r2)
  8112cc:	e0bffe15 	stw	r2,-8(fp)
	// set RE to 1 while maintaining other bits the same
	ctrl_reg |= ALT_UP_RS232_CONTROL_RE_MSK;
  8112d0:	e0bffe17 	ldw	r2,-8(fp)
  8112d4:	10800054 	ori	r2,r2,1
  8112d8:	e0bffe15 	stw	r2,-8(fp)
	IOWR_ALT_UP_RS232_CONTROL(rs232->base, ctrl_reg);
  8112dc:	e0bfff17 	ldw	r2,-4(fp)
  8112e0:	10800a17 	ldw	r2,40(r2)
  8112e4:	10800104 	addi	r2,r2,4
  8112e8:	e0fffe17 	ldw	r3,-8(fp)
  8112ec:	10c00035 	stwio	r3,0(r2)
}
  8112f0:	e037883a 	mov	sp,fp
  8112f4:	df000017 	ldw	fp,0(sp)
  8112f8:	dec00104 	addi	sp,sp,4
  8112fc:	f800283a 	ret

00811300 <alt_up_rs232_disable_read_interrupt>:

void alt_up_rs232_disable_read_interrupt(alt_up_rs232_dev *rs232)
{
  811300:	defffd04 	addi	sp,sp,-12
  811304:	df000215 	stw	fp,8(sp)
  811308:	df000204 	addi	fp,sp,8
  81130c:	e13fff15 	stw	r4,-4(fp)
	alt_u32 ctrl_reg;
	ctrl_reg = IORD_ALT_UP_RS232_CONTROL(rs232->base); 
  811310:	e0bfff17 	ldw	r2,-4(fp)
  811314:	10800a17 	ldw	r2,40(r2)
  811318:	10800104 	addi	r2,r2,4
  81131c:	10800037 	ldwio	r2,0(r2)
  811320:	e0bffe15 	stw	r2,-8(fp)
	// set RE to 0 while maintaining other bits the same
	ctrl_reg &= ~ALT_UP_RS232_CONTROL_RE_MSK;
  811324:	e0fffe17 	ldw	r3,-8(fp)
  811328:	00bfff84 	movi	r2,-2
  81132c:	1884703a 	and	r2,r3,r2
  811330:	e0bffe15 	stw	r2,-8(fp)
	IOWR_ALT_UP_RS232_CONTROL(rs232->base, ctrl_reg);
  811334:	e0bfff17 	ldw	r2,-4(fp)
  811338:	10800a17 	ldw	r2,40(r2)
  81133c:	10800104 	addi	r2,r2,4
  811340:	e0fffe17 	ldw	r3,-8(fp)
  811344:	10c00035 	stwio	r3,0(r2)
}
  811348:	e037883a 	mov	sp,fp
  81134c:	df000017 	ldw	fp,0(sp)
  811350:	dec00104 	addi	sp,sp,4
  811354:	f800283a 	ret

00811358 <alt_up_rs232_get_used_space_in_read_FIFO>:

unsigned alt_up_rs232_get_used_space_in_read_FIFO(alt_up_rs232_dev *rs232)
{
  811358:	defffd04 	addi	sp,sp,-12
  81135c:	df000215 	stw	fp,8(sp)
  811360:	df000204 	addi	fp,sp,8
  811364:	e13fff15 	stw	r4,-4(fp)
	alt_u16 ravail = 0;
  811368:	e03ffe0d 	sth	zero,-8(fp)
	// we can only read the 16 bits for RAVAIL --- a read of DATA will discard the data
//	ravail = IORD_16DIRECT(IOADDR_ALT_UP_RS232_DATA(rs232->base), 2); 
	ravail = IORD_ALT_UP_RS232_RAVAIL(rs232->base); 
  81136c:	e0bfff17 	ldw	r2,-4(fp)
  811370:	10800a17 	ldw	r2,40(r2)
  811374:	10800084 	addi	r2,r2,2
  811378:	1080002b 	ldhuio	r2,0(r2)
  81137c:	e0bffe0d 	sth	r2,-8(fp)
//	return ravail;
	return (ravail & ALT_UP_RS232_RAVAIL_MSK) >> ALT_UP_RS232_RAVAIL_OFST;
  811380:	e0bffe0b 	ldhu	r2,-8(fp)
}
  811384:	e037883a 	mov	sp,fp
  811388:	df000017 	ldw	fp,0(sp)
  81138c:	dec00104 	addi	sp,sp,4
  811390:	f800283a 	ret

00811394 <alt_up_rs232_get_available_space_in_write_FIFO>:

unsigned alt_up_rs232_get_available_space_in_write_FIFO(alt_up_rs232_dev *rs232)
{
  811394:	defffd04 	addi	sp,sp,-12
  811398:	df000215 	stw	fp,8(sp)
  81139c:	df000204 	addi	fp,sp,8
  8113a0:	e13fff15 	stw	r4,-4(fp)
	alt_u32 ctrl_reg;
	ctrl_reg = IORD_ALT_UP_RS232_CONTROL(rs232->base); 
  8113a4:	e0bfff17 	ldw	r2,-4(fp)
  8113a8:	10800a17 	ldw	r2,40(r2)
  8113ac:	10800104 	addi	r2,r2,4
  8113b0:	10800037 	ldwio	r2,0(r2)
  8113b4:	e0bffe15 	stw	r2,-8(fp)
	return (ctrl_reg & ALT_UP_RS232_CONTROL_WSPACE_MSK) >> ALT_UP_RS232_CONTROL_WSPACE_OFST;
  8113b8:	e0bffe17 	ldw	r2,-8(fp)
  8113bc:	10bfffec 	andhi	r2,r2,65535
  8113c0:	1004d43a 	srli	r2,r2,16
}
  8113c4:	e037883a 	mov	sp,fp
  8113c8:	df000017 	ldw	fp,0(sp)
  8113cc:	dec00104 	addi	sp,sp,4
  8113d0:	f800283a 	ret

008113d4 <alt_up_rs232_check_parity>:

int alt_up_rs232_check_parity(alt_u32 data_reg)
{
  8113d4:	defffc04 	addi	sp,sp,-16
  8113d8:	df000315 	stw	fp,12(sp)
  8113dc:	df000304 	addi	fp,sp,12
  8113e0:	e13ffe15 	stw	r4,-8(fp)
	unsigned parity_error = (data_reg & ALT_UP_RS232_DATA_PE_MSK) >> ALT_UP_RS232_DATA_PE_OFST;
  8113e4:	e0bffe17 	ldw	r2,-8(fp)
  8113e8:	1080800c 	andi	r2,r2,512
  8113ec:	1004d27a 	srli	r2,r2,9
  8113f0:	e0bffd15 	stw	r2,-12(fp)
	return (parity_error ? -1 : 0);
  8113f4:	e0bffd17 	ldw	r2,-12(fp)
  8113f8:	1005003a 	cmpeq	r2,r2,zero
  8113fc:	1000031e 	bne	r2,zero,81140c <alt_up_rs232_check_parity+0x38>
  811400:	00bfffc4 	movi	r2,-1
  811404:	e0bfff15 	stw	r2,-4(fp)
  811408:	00000106 	br	811410 <alt_up_rs232_check_parity+0x3c>
  81140c:	e03fff15 	stw	zero,-4(fp)
  811410:	e0bfff17 	ldw	r2,-4(fp)
}
  811414:	e037883a 	mov	sp,fp
  811418:	df000017 	ldw	fp,0(sp)
  81141c:	dec00104 	addi	sp,sp,4
  811420:	f800283a 	ret

00811424 <alt_up_rs232_write_data>:

int alt_up_rs232_write_data(alt_up_rs232_dev *rs232, alt_u8 data)
{
  811424:	defffc04 	addi	sp,sp,-16
  811428:	df000315 	stw	fp,12(sp)
  81142c:	df000304 	addi	fp,sp,12
  811430:	e13ffe15 	stw	r4,-8(fp)
  811434:	e17fff05 	stb	r5,-4(fp)
	alt_u32 data_reg;
	data_reg = IORD_ALT_UP_RS232_DATA(rs232->base);
  811438:	e0bffe17 	ldw	r2,-8(fp)
  81143c:	10800a17 	ldw	r2,40(r2)
  811440:	10800037 	ldwio	r2,0(r2)
  811444:	e0bffd15 	stw	r2,-12(fp)

	// we can write directly without thinking about other bit fields for this
	// case ONLY, because only DATA field of the data register is writable
	IOWR_ALT_UP_RS232_DATA(rs232->base, (data>>ALT_UP_RS232_DATA_DATA_OFST) & ALT_UP_RS232_DATA_DATA_MSK);
  811448:	e0bffe17 	ldw	r2,-8(fp)
  81144c:	10800a17 	ldw	r2,40(r2)
  811450:	e0ffff03 	ldbu	r3,-4(fp)
  811454:	10c00035 	stwio	r3,0(r2)
	return 0;
  811458:	0005883a 	mov	r2,zero
}
  81145c:	e037883a 	mov	sp,fp
  811460:	df000017 	ldw	fp,0(sp)
  811464:	dec00104 	addi	sp,sp,4
  811468:	f800283a 	ret

0081146c <alt_up_rs232_read_data>:

int alt_up_rs232_read_data(alt_up_rs232_dev *rs232, alt_u8 *data, alt_u8 *parity_error)
{
  81146c:	defffa04 	addi	sp,sp,-24
  811470:	dfc00515 	stw	ra,20(sp)
  811474:	df000415 	stw	fp,16(sp)
  811478:	df000404 	addi	fp,sp,16
  81147c:	e13ffd15 	stw	r4,-12(fp)
  811480:	e17ffe15 	stw	r5,-8(fp)
  811484:	e1bfff15 	stw	r6,-4(fp)
	alt_u32 data_reg;
	data_reg = IORD_ALT_UP_RS232_DATA(rs232->base);
  811488:	e0bffd17 	ldw	r2,-12(fp)
  81148c:	10800a17 	ldw	r2,40(r2)
  811490:	10800037 	ldwio	r2,0(r2)
  811494:	e0bffc15 	stw	r2,-16(fp)
	*data = (data_reg & ALT_UP_RS232_DATA_DATA_MSK) >> ALT_UP_RS232_DATA_DATA_OFST;
  811498:	e0bffc17 	ldw	r2,-16(fp)
  81149c:	1007883a 	mov	r3,r2
  8114a0:	e0bffe17 	ldw	r2,-8(fp)
  8114a4:	10c00005 	stb	r3,0(r2)
	*parity_error = alt_up_rs232_check_parity(data_reg);
  8114a8:	e13ffc17 	ldw	r4,-16(fp)
  8114ac:	08113d40 	call	8113d4 <alt_up_rs232_check_parity>
  8114b0:	1007883a 	mov	r3,r2
  8114b4:	e0bfff17 	ldw	r2,-4(fp)
  8114b8:	10c00005 	stb	r3,0(r2)
	return (((data_reg & ALT_UP_RS232_DATA_RVALID_MSK) >> ALT_UP_RS232_DATA_RVALID_OFST) - 1);
  8114bc:	e0bffc17 	ldw	r2,-16(fp)
  8114c0:	10a0000c 	andi	r2,r2,32768
  8114c4:	1004d3fa 	srli	r2,r2,15
  8114c8:	10bfffc4 	addi	r2,r2,-1
}
  8114cc:	e037883a 	mov	sp,fp
  8114d0:	dfc00117 	ldw	ra,4(sp)
  8114d4:	df000017 	ldw	fp,0(sp)
  8114d8:	dec00204 	addi	sp,sp,8
  8114dc:	f800283a 	ret

008114e0 <alt_up_rs232_read_fd>:

int alt_up_rs232_read_fd (alt_fd* fd, char* ptr, int len)
{
  8114e0:	defff804 	addi	sp,sp,-32
  8114e4:	dfc00715 	stw	ra,28(sp)
  8114e8:	df000615 	stw	fp,24(sp)
  8114ec:	df000604 	addi	fp,sp,24
  8114f0:	e13ffd15 	stw	r4,-12(fp)
  8114f4:	e17ffe15 	stw	r5,-8(fp)
  8114f8:	e1bfff15 	stw	r6,-4(fp)
	alt_up_rs232_dev *rs232 = (alt_up_rs232_dev*)fd->dev;
  8114fc:	e0bffd17 	ldw	r2,-12(fp)
  811500:	10800017 	ldw	r2,0(r2)
  811504:	e0bffb15 	stw	r2,-20(fp)
	int count = 0;
  811508:	e03ffa15 	stw	zero,-24(fp)
	alt_u8 parity_error;
	while(len--)
  81150c:	00000c06 	br	811540 <alt_up_rs232_read_fd+0x60>
	{
		if (alt_up_rs232_read_data(rs232, ptr++, &parity_error)==0)
  811510:	e17ffe17 	ldw	r5,-8(fp)
  811514:	e0bffe17 	ldw	r2,-8(fp)
  811518:	10800044 	addi	r2,r2,1
  81151c:	e0bffe15 	stw	r2,-8(fp)
  811520:	e1bffc04 	addi	r6,fp,-16
  811524:	e13ffb17 	ldw	r4,-20(fp)
  811528:	081146c0 	call	81146c <alt_up_rs232_read_data>
  81152c:	1004c03a 	cmpne	r2,r2,zero
  811530:	1000091e 	bne	r2,zero,811558 <alt_up_rs232_read_fd+0x78>
			count++;
  811534:	e0bffa17 	ldw	r2,-24(fp)
  811538:	10800044 	addi	r2,r2,1
  81153c:	e0bffa15 	stw	r2,-24(fp)
int alt_up_rs232_read_fd (alt_fd* fd, char* ptr, int len)
{
	alt_up_rs232_dev *rs232 = (alt_up_rs232_dev*)fd->dev;
	int count = 0;
	alt_u8 parity_error;
	while(len--)
  811540:	e0bfff17 	ldw	r2,-4(fp)
  811544:	10bfffc4 	addi	r2,r2,-1
  811548:	e0bfff15 	stw	r2,-4(fp)
  81154c:	e0bfff17 	ldw	r2,-4(fp)
  811550:	10bfffd8 	cmpnei	r2,r2,-1
  811554:	103fee1e 	bne	r2,zero,811510 <alt_up_rs232_read_fd+0x30>
		if (alt_up_rs232_read_data(rs232, ptr++, &parity_error)==0)
			count++;
		else
			break;
	}
	return count;
  811558:	e0bffa17 	ldw	r2,-24(fp)
}
  81155c:	e037883a 	mov	sp,fp
  811560:	dfc00117 	ldw	ra,4(sp)
  811564:	df000017 	ldw	fp,0(sp)
  811568:	dec00204 	addi	sp,sp,8
  81156c:	f800283a 	ret

00811570 <alt_up_rs232_write_fd>:

int alt_up_rs232_write_fd (alt_fd* fd, const char* ptr, int len)
{
  811570:	defff904 	addi	sp,sp,-28
  811574:	dfc00615 	stw	ra,24(sp)
  811578:	df000515 	stw	fp,20(sp)
  81157c:	df000504 	addi	fp,sp,20
  811580:	e13ffd15 	stw	r4,-12(fp)
  811584:	e17ffe15 	stw	r5,-8(fp)
  811588:	e1bfff15 	stw	r6,-4(fp)
	alt_up_rs232_dev *rs232 = (alt_up_rs232_dev*)fd->dev;
  81158c:	e0bffd17 	ldw	r2,-12(fp)
  811590:	10800017 	ldw	r2,0(r2)
  811594:	e0bffc15 	stw	r2,-16(fp)
	int count = 0;
  811598:	e03ffb15 	stw	zero,-20(fp)
	while(len--)
  81159c:	00000d06 	br	8115d4 <alt_up_rs232_write_fd+0x64>
	{
		if (alt_up_rs232_write_data(rs232, *ptr)==0)
  8115a0:	e0bffe17 	ldw	r2,-8(fp)
  8115a4:	10800003 	ldbu	r2,0(r2)
  8115a8:	11403fcc 	andi	r5,r2,255
  8115ac:	e13ffc17 	ldw	r4,-16(fp)
  8115b0:	08114240 	call	811424 <alt_up_rs232_write_data>
  8115b4:	1004c03a 	cmpne	r2,r2,zero
  8115b8:	10000c1e 	bne	r2,zero,8115ec <alt_up_rs232_write_fd+0x7c>
		{
			count++;
  8115bc:	e0bffb17 	ldw	r2,-20(fp)
  8115c0:	10800044 	addi	r2,r2,1
  8115c4:	e0bffb15 	stw	r2,-20(fp)
			ptr++;
  8115c8:	e0bffe17 	ldw	r2,-8(fp)
  8115cc:	10800044 	addi	r2,r2,1
  8115d0:	e0bffe15 	stw	r2,-8(fp)

int alt_up_rs232_write_fd (alt_fd* fd, const char* ptr, int len)
{
	alt_up_rs232_dev *rs232 = (alt_up_rs232_dev*)fd->dev;
	int count = 0;
	while(len--)
  8115d4:	e0bfff17 	ldw	r2,-4(fp)
  8115d8:	10bfffc4 	addi	r2,r2,-1
  8115dc:	e0bfff15 	stw	r2,-4(fp)
  8115e0:	e0bfff17 	ldw	r2,-4(fp)
  8115e4:	10bfffd8 	cmpnei	r2,r2,-1
  8115e8:	103fed1e 	bne	r2,zero,8115a0 <alt_up_rs232_write_fd+0x30>
			ptr++;
		}
		else
			break;
	}
	return count;
  8115ec:	e0bffb17 	ldw	r2,-20(fp)
}
  8115f0:	e037883a 	mov	sp,fp
  8115f4:	dfc00117 	ldw	ra,4(sp)
  8115f8:	df000017 	ldw	fp,0(sp)
  8115fc:	dec00204 	addi	sp,sp,8
  811600:	f800283a 	ret

00811604 <alt_up_rs232_open_dev>:

alt_up_rs232_dev* alt_up_rs232_open_dev(const char* name)
{
  811604:	defffc04 	addi	sp,sp,-16
  811608:	dfc00315 	stw	ra,12(sp)
  81160c:	df000215 	stw	fp,8(sp)
  811610:	df000204 	addi	fp,sp,8
  811614:	e13fff15 	stw	r4,-4(fp)
  // find the device from the device list 
  // (see altera_hal/HAL/inc/priv/alt_file.h 
  // and altera_hal/HAL/src/alt_find_dev.c 
  // for details)
  alt_up_rs232_dev *dev = (alt_up_rs232_dev*)alt_find_dev(name, &alt_dev_list);
  811618:	e13fff17 	ldw	r4,-4(fp)
  81161c:	01402074 	movhi	r5,129
  811620:	2954dc04 	addi	r5,r5,21360
  811624:	0811aec0 	call	811aec <alt_find_dev>
  811628:	e0bffe15 	stw	r2,-8(fp)

  return dev;
  81162c:	e0bffe17 	ldw	r2,-8(fp)
}
  811630:	e037883a 	mov	sp,fp
  811634:	dfc00117 	ldw	ra,4(sp)
  811638:	df000017 	ldw	fp,0(sp)
  81163c:	dec00204 	addi	sp,sp,8
  811640:	f800283a 	ret

00811644 <alt_alarm_start>:
 */ 

int alt_alarm_start (alt_alarm* alarm, alt_u32 nticks,
                     alt_u32 (*callback) (void* context),
                     void* context)
{
  811644:	defff404 	addi	sp,sp,-48
  811648:	df000b15 	stw	fp,44(sp)
  81164c:	df000b04 	addi	fp,sp,44
  811650:	e13ffb15 	stw	r4,-20(fp)
  811654:	e17ffc15 	stw	r5,-16(fp)
  811658:	e1bffd15 	stw	r6,-12(fp)
  81165c:	e1fffe15 	stw	r7,-8(fp)
  alt_irq_context irq_context;
  alt_u32 current_nticks = 0;
  811660:	e03ff915 	stw	zero,-28(fp)
 * Obtain the system clock rate in ticks/s. 
 */

static ALT_INLINE alt_u32 ALT_ALWAYS_INLINE alt_ticks_per_second (void)
{
  return _alt_tick_rate;
  811664:	00802074 	movhi	r2,129
  811668:	109c7104 	addi	r2,r2,29124
  81166c:	10800017 	ldw	r2,0(r2)
  
  if (alt_ticks_per_second ())
  811670:	1005003a 	cmpeq	r2,r2,zero
  811674:	1000411e 	bne	r2,zero,81177c <alt_alarm_start+0x138>
  {
    if (alarm)
  811678:	e0bffb17 	ldw	r2,-20(fp)
  81167c:	1005003a 	cmpeq	r2,r2,zero
  811680:	10003b1e 	bne	r2,zero,811770 <alt_alarm_start+0x12c>
    {
      alarm->callback = callback;
  811684:	e0fffb17 	ldw	r3,-20(fp)
  811688:	e0bffd17 	ldw	r2,-12(fp)
  81168c:	18800315 	stw	r2,12(r3)
      alarm->context  = context;
  811690:	e0fffb17 	ldw	r3,-20(fp)
  811694:	e0bffe17 	ldw	r2,-8(fp)
  811698:	18800515 	stw	r2,20(r3)
static ALT_INLINE alt_irq_context ALT_ALWAYS_INLINE 
       alt_irq_disable_all (void)
{
  alt_irq_context context;

  NIOS2_READ_STATUS (context);
  81169c:	0005303a 	rdctl	r2,status
  8116a0:	e0bff815 	stw	r2,-32(fp)

  NIOS2_WRITE_STATUS (context & ~NIOS2_STATUS_PIE_MSK);
  8116a4:	e0fff817 	ldw	r3,-32(fp)
  8116a8:	00bfff84 	movi	r2,-2
  8116ac:	1884703a 	and	r2,r3,r2
  8116b0:	1001703a 	wrctl	status,r2
  
  return context;
  8116b4:	e0bff817 	ldw	r2,-32(fp)
 
      irq_context = alt_irq_disable_all ();
  8116b8:	e0bffa15 	stw	r2,-24(fp)
 * alt_nticks() returns the elapsed number of system clock ticks since reset.
 */

static ALT_INLINE alt_u32 ALT_ALWAYS_INLINE alt_nticks (void)
{
  return _alt_nticks;
  8116bc:	00802074 	movhi	r2,129
  8116c0:	109c7204 	addi	r2,r2,29128
  8116c4:	10800017 	ldw	r2,0(r2)
      
      current_nticks = alt_nticks();
  8116c8:	e0bff915 	stw	r2,-28(fp)
      
      alarm->time = nticks + current_nticks + 1; 
  8116cc:	e0fffc17 	ldw	r3,-16(fp)
  8116d0:	e0bff917 	ldw	r2,-28(fp)
  8116d4:	1885883a 	add	r2,r3,r2
  8116d8:	10c00044 	addi	r3,r2,1
  8116dc:	e0bffb17 	ldw	r2,-20(fp)
  8116e0:	10c00215 	stw	r3,8(r2)
      /* 
       * If the desired alarm time causes a roll-over, set the rollover
       * flag. This will prevent the subsequent tick event from causing
       * an alarm too early.
       */
      if(alarm->time < current_nticks)
  8116e4:	e0bffb17 	ldw	r2,-20(fp)
  8116e8:	10c00217 	ldw	r3,8(r2)
  8116ec:	e0bff917 	ldw	r2,-28(fp)
  8116f0:	1880042e 	bgeu	r3,r2,811704 <alt_alarm_start+0xc0>
      {
        alarm->rollover = 1;
  8116f4:	e0fffb17 	ldw	r3,-20(fp)
  8116f8:	00800044 	movi	r2,1
  8116fc:	18800405 	stb	r2,16(r3)
  811700:	00000206 	br	81170c <alt_alarm_start+0xc8>
      }
      else
      {
        alarm->rollover = 0;
  811704:	e0bffb17 	ldw	r2,-20(fp)
  811708:	10000405 	stb	zero,16(r2)
      }
    
      alt_llist_insert (&alt_alarm_list, &alarm->llist);
  81170c:	e0fffb17 	ldw	r3,-20(fp)
  811710:	00802074 	movhi	r2,129
  811714:	1094e204 	addi	r2,r2,21384
  811718:	e0bff615 	stw	r2,-40(fp)
  81171c:	e0fff715 	stw	r3,-36(fp)
 */

static ALT_INLINE void ALT_ALWAYS_INLINE alt_llist_insert(alt_llist* list, 
                alt_llist* entry)
{
  entry->previous = list;
  811720:	e0fff717 	ldw	r3,-36(fp)
  811724:	e0bff617 	ldw	r2,-40(fp)
  811728:	18800115 	stw	r2,4(r3)
  entry->next     = list->next;
  81172c:	e0bff617 	ldw	r2,-40(fp)
  811730:	10c00017 	ldw	r3,0(r2)
  811734:	e0bff717 	ldw	r2,-36(fp)
  811738:	10c00015 	stw	r3,0(r2)

  list->next->previous = entry;
  81173c:	e0bff617 	ldw	r2,-40(fp)
  811740:	10c00017 	ldw	r3,0(r2)
  811744:	e0bff717 	ldw	r2,-36(fp)
  811748:	18800115 	stw	r2,4(r3)
  list->next           = entry;
  81174c:	e0fff617 	ldw	r3,-40(fp)
  811750:	e0bff717 	ldw	r2,-36(fp)
  811754:	18800015 	stw	r2,0(r3)
  811758:	e0bffa17 	ldw	r2,-24(fp)
  81175c:	e0bff515 	stw	r2,-44(fp)
  status &= ~NIOS2_STATUS_PIE_MSK;
  status |= (context & NIOS2_STATUS_PIE_MSK);
  
  NIOS2_WRITE_STATUS (status);
#else
  NIOS2_WRITE_STATUS (context);
  811760:	e0bff517 	ldw	r2,-44(fp)
  811764:	1001703a 	wrctl	status,r2
      alt_irq_enable_all (irq_context);

      return 0;
  811768:	e03fff15 	stw	zero,-4(fp)
  81176c:	00000506 	br	811784 <alt_alarm_start+0x140>
    }
    else
    {
      return -EINVAL;
  811770:	00bffa84 	movi	r2,-22
  811774:	e0bfff15 	stw	r2,-4(fp)
  811778:	00000206 	br	811784 <alt_alarm_start+0x140>
    }
  }
  else
  {
    return -ENOTSUP;
  81177c:	00bfde84 	movi	r2,-134
  811780:	e0bfff15 	stw	r2,-4(fp)
  811784:	e0bfff17 	ldw	r2,-4(fp)
  }
}
  811788:	e037883a 	mov	sp,fp
  81178c:	df000017 	ldw	fp,0(sp)
  811790:	dec00104 	addi	sp,sp,4
  811794:	f800283a 	ret

00811798 <alt_busy_sleep>:
#include "alt_types.h"

#include "priv/alt_busy_sleep.h"

unsigned int alt_busy_sleep (unsigned int us)
{
  811798:	defffa04 	addi	sp,sp,-24
  81179c:	dfc00515 	stw	ra,20(sp)
  8117a0:	df000415 	stw	fp,16(sp)
  8117a4:	df000404 	addi	fp,sp,16
  8117a8:	e13fff15 	stw	r4,-4(fp)
  int big_loops;
  alt_u32 cycles_per_loop;
  
  if (!strcmp(NIOS2_CPU_IMPLEMENTATION,"tiny"))
  {
    cycles_per_loop = 9;
  8117ac:	00800244 	movi	r2,9
  8117b0:	e0bffc15 	stw	r2,-16(fp)
  {
    cycles_per_loop = 3;
  }
  

  big_loops = us / (INT_MAX/
  8117b4:	e13ffc17 	ldw	r4,-16(fp)
  8117b8:	014003f4 	movhi	r5,15
  8117bc:	29509004 	addi	r5,r5,16960
  8117c0:	080f46c0 	call	80f46c <__mulsi3>
  8117c4:	100b883a 	mov	r5,r2
  8117c8:	0100bef4 	movhi	r4,763
  8117cc:	213c2004 	addi	r4,r4,-3968
  8117d0:	0805e4c0 	call	805e4c <__udivsi3>
  8117d4:	100b883a 	mov	r5,r2
  8117d8:	01200034 	movhi	r4,32768
  8117dc:	213fffc4 	addi	r4,r4,-1
  8117e0:	0805e4c0 	call	805e4c <__udivsi3>
  8117e4:	100b883a 	mov	r5,r2
  8117e8:	e13fff17 	ldw	r4,-4(fp)
  8117ec:	0805e4c0 	call	805e4c <__udivsi3>
  8117f0:	e0bffd15 	stw	r2,-12(fp)
  (ALT_CPU_FREQ/(cycles_per_loop * 1000000)));

  if (big_loops)
  8117f4:	e0bffd17 	ldw	r2,-12(fp)
  8117f8:	1005003a 	cmpeq	r2,r2,zero
  8117fc:	10002a1e 	bne	r2,zero,8118a8 <alt_busy_sleep+0x110>
  {
    for(i=0;i<big_loops;i++)
  811800:	e03ffe15 	stw	zero,-8(fp)
  811804:	00001706 	br	811864 <alt_busy_sleep+0xcc>
      /*
      * Do NOT Try to single step the asm statement below 
      * (single step will never return)
      * Step out of this function or set a breakpoint after the asm statements
      */
      __asm__ volatile (
  811808:	00a00034 	movhi	r2,32768
  81180c:	10bfffc4 	addi	r2,r2,-1
  811810:	10bfffc4 	addi	r2,r2,-1
  811814:	103ffe1e 	bne	r2,zero,811810 <alt_busy_sleep+0x78>
        "\n1:"
        "\n\t.pushsection .debug_alt_sim_info"
        "\n\t.int 4, 0, 0b, 1b"
        "\n\t.popsection"
        :: "r" (INT_MAX));
      us -= (INT_MAX/(ALT_CPU_FREQ/
  811818:	e13ffc17 	ldw	r4,-16(fp)
  81181c:	014003f4 	movhi	r5,15
  811820:	29509004 	addi	r5,r5,16960
  811824:	080f46c0 	call	80f46c <__mulsi3>
  811828:	100b883a 	mov	r5,r2
  81182c:	0100bef4 	movhi	r4,763
  811830:	213c2004 	addi	r4,r4,-3968
  811834:	0805e4c0 	call	805e4c <__udivsi3>
  811838:	100b883a 	mov	r5,r2
  81183c:	01200034 	movhi	r4,32768
  811840:	213fffc4 	addi	r4,r4,-1
  811844:	0805e4c0 	call	805e4c <__udivsi3>
  811848:	1007883a 	mov	r3,r2
  81184c:	e0bfff17 	ldw	r2,-4(fp)
  811850:	10c5c83a 	sub	r2,r2,r3
  811854:	e0bfff15 	stw	r2,-4(fp)
  big_loops = us / (INT_MAX/
  (ALT_CPU_FREQ/(cycles_per_loop * 1000000)));

  if (big_loops)
  {
    for(i=0;i<big_loops;i++)
  811858:	e0bffe17 	ldw	r2,-8(fp)
  81185c:	10800044 	addi	r2,r2,1
  811860:	e0bffe15 	stw	r2,-8(fp)
  811864:	e0fffe17 	ldw	r3,-8(fp)
  811868:	e0bffd17 	ldw	r2,-12(fp)
  81186c:	18bfe616 	blt	r3,r2,811808 <alt_busy_sleep+0x70>
    /*
    * Do NOT Try to single step the asm statement below 
    * (single step will never return)
    * Step out of this function or set a breakpoint after the asm statements
    */
    __asm__ volatile (
  811870:	e13ffc17 	ldw	r4,-16(fp)
  811874:	014003f4 	movhi	r5,15
  811878:	29509004 	addi	r5,r5,16960
  81187c:	080f46c0 	call	80f46c <__mulsi3>
  811880:	100b883a 	mov	r5,r2
  811884:	0100bef4 	movhi	r4,763
  811888:	213c2004 	addi	r4,r4,-3968
  81188c:	0805e4c0 	call	805e4c <__udivsi3>
  811890:	1009883a 	mov	r4,r2
  811894:	e17fff17 	ldw	r5,-4(fp)
  811898:	080f46c0 	call	80f46c <__mulsi3>
  81189c:	10bfffc4 	addi	r2,r2,-1
  8118a0:	103ffe1e 	bne	r2,zero,81189c <alt_busy_sleep+0x104>
  8118a4:	00000d06 	br	8118dc <alt_busy_sleep+0x144>
    /*
    * Do NOT Try to single step the asm statement below 
    * (single step will never return)
    * Step out of this function or set a breakpoint after the asm statements
    */
    __asm__ volatile (
  8118a8:	e13ffc17 	ldw	r4,-16(fp)
  8118ac:	014003f4 	movhi	r5,15
  8118b0:	29509004 	addi	r5,r5,16960
  8118b4:	080f46c0 	call	80f46c <__mulsi3>
  8118b8:	100b883a 	mov	r5,r2
  8118bc:	0100bef4 	movhi	r4,763
  8118c0:	213c2004 	addi	r4,r4,-3968
  8118c4:	0805e4c0 	call	805e4c <__udivsi3>
  8118c8:	1009883a 	mov	r4,r2
  8118cc:	e17fff17 	ldw	r5,-4(fp)
  8118d0:	080f46c0 	call	80f46c <__mulsi3>
  8118d4:	10bfffc4 	addi	r2,r2,-1
  8118d8:	00bffe16 	blt	zero,r2,8118d4 <alt_busy_sleep+0x13c>
      "\n\t.int 4, 0, 0b, 1b"
      "\n\t.popsection"
      :: "r" (us*(ALT_CPU_FREQ/(cycles_per_loop * 1000000))));
  }
#endif /* #ifndef ALT_SIM_OPTIMIZE */
  return 0;
  8118dc:	0005883a 	mov	r2,zero
}
  8118e0:	e037883a 	mov	sp,fp
  8118e4:	dfc00117 	ldw	ra,4(sp)
  8118e8:	df000017 	ldw	fp,0(sp)
  8118ec:	dec00204 	addi	sp,sp,8
  8118f0:	f800283a 	ret

008118f4 <alt_dcache_flush_all>:
/*
 * alt_dcache_flush_all() is called to flush the entire data cache.
 */

void alt_dcache_flush_all (void)
{
  8118f4:	deffff04 	addi	sp,sp,-4
  8118f8:	df000015 	stw	fp,0(sp)
  8118fc:	d839883a 	mov	fp,sp
  for (i = (char*) 0; i < (char*) NIOS2_DCACHE_SIZE; i+= NIOS2_DCACHE_LINE_SIZE)
  { 
    __asm__ volatile ("flushd (%0)" :: "r" (i));
  }
#endif /* NIOS2_DCACHE_SIZE > 0 */
}
  811900:	e037883a 	mov	sp,fp
  811904:	df000017 	ldw	fp,0(sp)
  811908:	dec00104 	addi	sp,sp,4
  81190c:	f800283a 	ret

00811910 <alt_dev_llist_insert>:
/*
 *
 */

int alt_dev_llist_insert (alt_dev_llist* dev, alt_llist* list)
{
  811910:	defff904 	addi	sp,sp,-28
  811914:	dfc00615 	stw	ra,24(sp)
  811918:	df000515 	stw	fp,20(sp)
  81191c:	df000504 	addi	fp,sp,20
  811920:	e13ffd15 	stw	r4,-12(fp)
  811924:	e17ffe15 	stw	r5,-8(fp)
  /*
   * check that the device exists, and that it has a valid name.
   */

  if (!dev || !dev->name)
  811928:	e0bffd17 	ldw	r2,-12(fp)
  81192c:	1005003a 	cmpeq	r2,r2,zero
  811930:	1000041e 	bne	r2,zero,811944 <alt_dev_llist_insert+0x34>
  811934:	e0bffd17 	ldw	r2,-12(fp)
  811938:	10800217 	ldw	r2,8(r2)
  81193c:	1004c03a 	cmpne	r2,r2,zero
  811940:	1000071e 	bne	r2,zero,811960 <alt_dev_llist_insert+0x50>
  {
    ALT_ERRNO = EINVAL;
  811944:	08119c40 	call	8119c4 <alt_get_errno>
  811948:	1007883a 	mov	r3,r2
  81194c:	00800584 	movi	r2,22
  811950:	18800015 	stw	r2,0(r3)
    return -EINVAL;
  811954:	00bffa84 	movi	r2,-22
  811958:	e0bfff15 	stw	r2,-4(fp)
  81195c:	00001306 	br	8119ac <alt_dev_llist_insert+0x9c>
  
  /*
   * register the device.
   */
  
  alt_llist_insert(list, &dev->llist);
  811960:	e0fffd17 	ldw	r3,-12(fp)
  811964:	e0bffe17 	ldw	r2,-8(fp)
  811968:	e0bffb15 	stw	r2,-20(fp)
  81196c:	e0fffc15 	stw	r3,-16(fp)
 */

static ALT_INLINE void ALT_ALWAYS_INLINE alt_llist_insert(alt_llist* list, 
                alt_llist* entry)
{
  entry->previous = list;
  811970:	e0fffc17 	ldw	r3,-16(fp)
  811974:	e0bffb17 	ldw	r2,-20(fp)
  811978:	18800115 	stw	r2,4(r3)
  entry->next     = list->next;
  81197c:	e0bffb17 	ldw	r2,-20(fp)
  811980:	10c00017 	ldw	r3,0(r2)
  811984:	e0bffc17 	ldw	r2,-16(fp)
  811988:	10c00015 	stw	r3,0(r2)

  list->next->previous = entry;
  81198c:	e0bffb17 	ldw	r2,-20(fp)
  811990:	10c00017 	ldw	r3,0(r2)
  811994:	e0bffc17 	ldw	r2,-16(fp)
  811998:	18800115 	stw	r2,4(r3)
  list->next           = entry;
  81199c:	e0fffb17 	ldw	r3,-20(fp)
  8119a0:	e0bffc17 	ldw	r2,-16(fp)
  8119a4:	18800015 	stw	r2,0(r3)

  return 0;  
  8119a8:	e03fff15 	stw	zero,-4(fp)
  8119ac:	e0bfff17 	ldw	r2,-4(fp)
}
  8119b0:	e037883a 	mov	sp,fp
  8119b4:	dfc00117 	ldw	ra,4(sp)
  8119b8:	df000017 	ldw	fp,0(sp)
  8119bc:	dec00204 	addi	sp,sp,8
  8119c0:	f800283a 	ret

008119c4 <alt_get_errno>:
#undef errno

extern int errno;

static ALT_INLINE int* alt_get_errno(void)
{
  8119c4:	defffd04 	addi	sp,sp,-12
  8119c8:	dfc00215 	stw	ra,8(sp)
  8119cc:	df000115 	stw	fp,4(sp)
  8119d0:	df000104 	addi	fp,sp,4
  return ((alt_errno) ? alt_errno() : &errno);
  8119d4:	00802074 	movhi	r2,129
  8119d8:	1094df04 	addi	r2,r2,21372
  8119dc:	10800017 	ldw	r2,0(r2)
  8119e0:	1005003a 	cmpeq	r2,r2,zero
  8119e4:	1000061e 	bne	r2,zero,811a00 <alt_get_errno+0x3c>
  8119e8:	00802074 	movhi	r2,129
  8119ec:	1094df04 	addi	r2,r2,21372
  8119f0:	10800017 	ldw	r2,0(r2)
  8119f4:	103ee83a 	callr	r2
  8119f8:	e0bfff15 	stw	r2,-4(fp)
  8119fc:	00000306 	br	811a0c <alt_get_errno+0x48>
  811a00:	00802074 	movhi	r2,129
  811a04:	109c6c04 	addi	r2,r2,29104
  811a08:	e0bfff15 	stw	r2,-4(fp)
  811a0c:	e0bfff17 	ldw	r2,-4(fp)
}
  811a10:	e037883a 	mov	sp,fp
  811a14:	dfc00117 	ldw	ra,4(sp)
  811a18:	df000017 	ldw	fp,0(sp)
  811a1c:	dec00204 	addi	sp,sp,8
  811a20:	f800283a 	ret

00811a24 <_do_ctors>:
/*
 * Run the C++ static constructors.
 */

void _do_ctors(void)
{
  811a24:	defffd04 	addi	sp,sp,-12
  811a28:	dfc00215 	stw	ra,8(sp)
  811a2c:	df000115 	stw	fp,4(sp)
  811a30:	df000104 	addi	fp,sp,4
  constructor* ctor;

  for (ctor = &__CTOR_END__[-1]; ctor >= __CTOR_LIST__; ctor--)
  811a34:	00bfff04 	movi	r2,-4
  811a38:	00c02074 	movhi	r3,129
  811a3c:	18c9e404 	addi	r3,r3,10128
  811a40:	1885883a 	add	r2,r3,r2
  811a44:	e0bfff15 	stw	r2,-4(fp)
  811a48:	00000606 	br	811a64 <_do_ctors+0x40>
        (*ctor) (); 
  811a4c:	e0bfff17 	ldw	r2,-4(fp)
  811a50:	10800017 	ldw	r2,0(r2)
  811a54:	103ee83a 	callr	r2

void _do_ctors(void)
{
  constructor* ctor;

  for (ctor = &__CTOR_END__[-1]; ctor >= __CTOR_LIST__; ctor--)
  811a58:	e0bfff17 	ldw	r2,-4(fp)
  811a5c:	10bfff04 	addi	r2,r2,-4
  811a60:	e0bfff15 	stw	r2,-4(fp)
  811a64:	e0ffff17 	ldw	r3,-4(fp)
  811a68:	00802074 	movhi	r2,129
  811a6c:	1089e304 	addi	r2,r2,10124
  811a70:	18bff62e 	bgeu	r3,r2,811a4c <_do_ctors+0x28>
        (*ctor) (); 
}
  811a74:	e037883a 	mov	sp,fp
  811a78:	dfc00117 	ldw	ra,4(sp)
  811a7c:	df000017 	ldw	fp,0(sp)
  811a80:	dec00204 	addi	sp,sp,8
  811a84:	f800283a 	ret

00811a88 <_do_dtors>:
/*
 * Run the C++ static destructors.
 */

void _do_dtors(void)
{
  811a88:	defffd04 	addi	sp,sp,-12
  811a8c:	dfc00215 	stw	ra,8(sp)
  811a90:	df000115 	stw	fp,4(sp)
  811a94:	df000104 	addi	fp,sp,4
  destructor* dtor;

  for (dtor = &__DTOR_END__[-1]; dtor >= __DTOR_LIST__; dtor--)
  811a98:	00bfff04 	movi	r2,-4
  811a9c:	00c02074 	movhi	r3,129
  811aa0:	18c9e404 	addi	r3,r3,10128
  811aa4:	1885883a 	add	r2,r3,r2
  811aa8:	e0bfff15 	stw	r2,-4(fp)
  811aac:	00000606 	br	811ac8 <_do_dtors+0x40>
        (*dtor) (); 
  811ab0:	e0bfff17 	ldw	r2,-4(fp)
  811ab4:	10800017 	ldw	r2,0(r2)
  811ab8:	103ee83a 	callr	r2

void _do_dtors(void)
{
  destructor* dtor;

  for (dtor = &__DTOR_END__[-1]; dtor >= __DTOR_LIST__; dtor--)
  811abc:	e0bfff17 	ldw	r2,-4(fp)
  811ac0:	10bfff04 	addi	r2,r2,-4
  811ac4:	e0bfff15 	stw	r2,-4(fp)
  811ac8:	e0ffff17 	ldw	r3,-4(fp)
  811acc:	00802074 	movhi	r2,129
  811ad0:	1089e404 	addi	r2,r2,10128
  811ad4:	18bff62e 	bgeu	r3,r2,811ab0 <_do_dtors+0x28>
        (*dtor) (); 
}
  811ad8:	e037883a 	mov	sp,fp
  811adc:	dfc00117 	ldw	ra,4(sp)
  811ae0:	df000017 	ldw	fp,0(sp)
  811ae4:	dec00204 	addi	sp,sp,8
  811ae8:	f800283a 	ret

00811aec <alt_find_dev>:
 * "name" must be an exact match for the devices registered name for a match to
 * be found.
 */
 
alt_dev* alt_find_dev(const char* name, alt_llist* llist)
{
  811aec:	defff904 	addi	sp,sp,-28
  811af0:	dfc00615 	stw	ra,24(sp)
  811af4:	df000515 	stw	fp,20(sp)
  811af8:	df000504 	addi	fp,sp,20
  811afc:	e13ffd15 	stw	r4,-12(fp)
  811b00:	e17ffe15 	stw	r5,-8(fp)
  alt_dev* next = (alt_dev*) llist->next;
  811b04:	e0bffe17 	ldw	r2,-8(fp)
  811b08:	10800017 	ldw	r2,0(r2)
  811b0c:	e0bffc15 	stw	r2,-16(fp)
  alt_32 len;

  len  = strlen(name) + 1;
  811b10:	e13ffd17 	ldw	r4,-12(fp)
  811b14:	08065300 	call	806530 <strlen>
  811b18:	10800044 	addi	r2,r2,1
  811b1c:	e0bffb15 	stw	r2,-20(fp)
  /*
   * Check each list entry in turn, until a match is found, or we reach the
   * end of the list (i.e. next winds up pointing back to the list head).
   */ 

  while (next != (alt_dev*) llist)
  811b20:	00000d06 	br	811b58 <alt_find_dev+0x6c>
    /* 
     * memcmp() is used here rather than strcmp() in order to reduce the size
     * of the executable.
     */

    if (!memcmp (next->name, name, len))
  811b24:	e0bffc17 	ldw	r2,-16(fp)
  811b28:	11000217 	ldw	r4,8(r2)
  811b2c:	e1bffb17 	ldw	r6,-20(fp)
  811b30:	e17ffd17 	ldw	r5,-12(fp)
  811b34:	08123d00 	call	8123d0 <memcmp>
  811b38:	1004c03a 	cmpne	r2,r2,zero
  811b3c:	1000031e 	bne	r2,zero,811b4c <alt_find_dev+0x60>
    {
      /* match found */

      return next;
  811b40:	e0bffc17 	ldw	r2,-16(fp)
  811b44:	e0bfff15 	stw	r2,-4(fp)
  811b48:	00000706 	br	811b68 <alt_find_dev+0x7c>
    }
    next = (alt_dev*) next->llist.next;
  811b4c:	e0bffc17 	ldw	r2,-16(fp)
  811b50:	10800017 	ldw	r2,0(r2)
  811b54:	e0bffc15 	stw	r2,-16(fp)
  /*
   * Check each list entry in turn, until a match is found, or we reach the
   * end of the list (i.e. next winds up pointing back to the list head).
   */ 

  while (next != (alt_dev*) llist)
  811b58:	e0fffe17 	ldw	r3,-8(fp)
  811b5c:	e0bffc17 	ldw	r2,-16(fp)
  811b60:	10fff01e 	bne	r2,r3,811b24 <alt_find_dev+0x38>
    next = (alt_dev*) next->llist.next;
  }
  
  /* No match found */
  
  return NULL;
  811b64:	e03fff15 	stw	zero,-4(fp)
  811b68:	e0bfff17 	ldw	r2,-4(fp)
}
  811b6c:	e037883a 	mov	sp,fp
  811b70:	dfc00117 	ldw	ra,4(sp)
  811b74:	df000017 	ldw	fp,0(sp)
  811b78:	dec00204 	addi	sp,sp,8
  811b7c:	f800283a 	ret

00811b80 <alt_icache_flush_all>:
/*
 * alt_icache_flush_all() is called to flush the entire instruction cache.
 */

void alt_icache_flush_all (void)
{
  811b80:	deffff04 	addi	sp,sp,-4
  811b84:	df000015 	stw	fp,0(sp)
  811b88:	d839883a 	mov	fp,sp
#if NIOS2_ICACHE_SIZE > 0
  alt_icache_flush (0, NIOS2_ICACHE_SIZE);
#endif
}
  811b8c:	e037883a 	mov	sp,fp
  811b90:	df000017 	ldw	fp,0(sp)
  811b94:	dec00104 	addi	sp,sp,4
  811b98:	f800283a 	ret

00811b9c <alt_open_fd>:
 * If the device can not be succesfully opened, then the input file descriptor
 * remains unchanged.
 */

static void alt_open_fd(alt_fd* fd, const char* name, int flags, int mode)
{
  811b9c:	defff804 	addi	sp,sp,-32
  811ba0:	dfc00715 	stw	ra,28(sp)
  811ba4:	df000615 	stw	fp,24(sp)
  811ba8:	dc000515 	stw	r16,20(sp)
  811bac:	df000504 	addi	fp,sp,20
  811bb0:	e13ffc15 	stw	r4,-16(fp)
  811bb4:	e17ffd15 	stw	r5,-12(fp)
  811bb8:	e1bffe15 	stw	r6,-8(fp)
  811bbc:	e1ffff15 	stw	r7,-4(fp)
  int old;

  old = open (name, flags, mode);
  811bc0:	e13ffd17 	ldw	r4,-12(fp)
  811bc4:	e17ffe17 	ldw	r5,-8(fp)
  811bc8:	e1bfff17 	ldw	r6,-4(fp)
  811bcc:	0811de40 	call	811de4 <open>
  811bd0:	e0bffb15 	stw	r2,-20(fp)

  if (old >= 0)
  811bd4:	e0bffb17 	ldw	r2,-20(fp)
  811bd8:	1004803a 	cmplt	r2,r2,zero
  811bdc:	10001f1e 	bne	r2,zero,811c5c <alt_open_fd+0xc0>
  {
    fd->dev      = alt_fd_list[old].dev;
  811be0:	e13ffb17 	ldw	r4,-20(fp)
  811be4:	04002074 	movhi	r16,129
  811be8:	84103f04 	addi	r16,r16,16636
  811bec:	01400304 	movi	r5,12
  811bf0:	080f46c0 	call	80f46c <__mulsi3>
  811bf4:	1405883a 	add	r2,r2,r16
  811bf8:	10c00017 	ldw	r3,0(r2)
  811bfc:	e0bffc17 	ldw	r2,-16(fp)
  811c00:	10c00015 	stw	r3,0(r2)
    fd->priv     = alt_fd_list[old].priv;
  811c04:	e13ffb17 	ldw	r4,-20(fp)
  811c08:	04002074 	movhi	r16,129
  811c0c:	84103f04 	addi	r16,r16,16636
  811c10:	01400304 	movi	r5,12
  811c14:	080f46c0 	call	80f46c <__mulsi3>
  811c18:	1405883a 	add	r2,r2,r16
  811c1c:	10800104 	addi	r2,r2,4
  811c20:	10c00017 	ldw	r3,0(r2)
  811c24:	e0bffc17 	ldw	r2,-16(fp)
  811c28:	10c00115 	stw	r3,4(r2)
    fd->fd_flags = alt_fd_list[old].fd_flags;
  811c2c:	e13ffb17 	ldw	r4,-20(fp)
  811c30:	04002074 	movhi	r16,129
  811c34:	84103f04 	addi	r16,r16,16636
  811c38:	01400304 	movi	r5,12
  811c3c:	080f46c0 	call	80f46c <__mulsi3>
  811c40:	1405883a 	add	r2,r2,r16
  811c44:	10800204 	addi	r2,r2,8
  811c48:	10c00017 	ldw	r3,0(r2)
  811c4c:	e0bffc17 	ldw	r2,-16(fp)
  811c50:	10c00215 	stw	r3,8(r2)

    alt_release_fd (old);
  811c54:	e13ffb17 	ldw	r4,-20(fp)
  811c58:	08103400 	call	810340 <alt_release_fd>
  }
} 
  811c5c:	e037883a 	mov	sp,fp
  811c60:	dfc00217 	ldw	ra,8(sp)
  811c64:	df000117 	ldw	fp,4(sp)
  811c68:	dc000017 	ldw	r16,0(sp)
  811c6c:	dec00304 	addi	sp,sp,12
  811c70:	f800283a 	ret

00811c74 <alt_io_redirect>:
 */
 
void alt_io_redirect(const char* stdout_dev, 
                     const char* stdin_dev, 
                     const char* stderr_dev)
{
  811c74:	defffb04 	addi	sp,sp,-20
  811c78:	dfc00415 	stw	ra,16(sp)
  811c7c:	df000315 	stw	fp,12(sp)
  811c80:	df000304 	addi	fp,sp,12
  811c84:	e13ffd15 	stw	r4,-12(fp)
  811c88:	e17ffe15 	stw	r5,-8(fp)
  811c8c:	e1bfff15 	stw	r6,-4(fp)
  /* Redirect the channels */

  alt_open_fd (&alt_fd_list[STDOUT_FILENO], stdout_dev, O_WRONLY, 0777);
  811c90:	01002074 	movhi	r4,129
  811c94:	21104204 	addi	r4,r4,16648
  811c98:	e17ffd17 	ldw	r5,-12(fp)
  811c9c:	01800044 	movi	r6,1
  811ca0:	01c07fc4 	movi	r7,511
  811ca4:	0811b9c0 	call	811b9c <alt_open_fd>
  alt_open_fd (&alt_fd_list[STDIN_FILENO], stdin_dev, O_RDONLY, 0777);
  811ca8:	01002074 	movhi	r4,129
  811cac:	21103f04 	addi	r4,r4,16636
  811cb0:	e17ffe17 	ldw	r5,-8(fp)
  811cb4:	000d883a 	mov	r6,zero
  811cb8:	01c07fc4 	movi	r7,511
  811cbc:	0811b9c0 	call	811b9c <alt_open_fd>
  alt_open_fd (&alt_fd_list[STDERR_FILENO], stderr_dev, O_WRONLY, 0777);
  811cc0:	01002074 	movhi	r4,129
  811cc4:	21104504 	addi	r4,r4,16660
  811cc8:	e17fff17 	ldw	r5,-4(fp)
  811ccc:	01800044 	movi	r6,1
  811cd0:	01c07fc4 	movi	r7,511
  811cd4:	0811b9c0 	call	811b9c <alt_open_fd>
}  
  811cd8:	e037883a 	mov	sp,fp
  811cdc:	dfc00117 	ldw	ra,4(sp)
  811ce0:	df000017 	ldw	fp,0(sp)
  811ce4:	dec00204 	addi	sp,sp,8
  811ce8:	f800283a 	ret

00811cec <alt_file_locked>:
 * performed for devices. Filesystems are required to handle the ioctl() call
 * themselves, and report the error from the filesystems open() function. 
 */ 

static int alt_file_locked (alt_fd* fd)
{
  811cec:	defffa04 	addi	sp,sp,-24
  811cf0:	dfc00515 	stw	ra,20(sp)
  811cf4:	df000415 	stw	fp,16(sp)
  811cf8:	dc000315 	stw	r16,12(sp)
  811cfc:	df000304 	addi	fp,sp,12
  811d00:	e13ffe15 	stw	r4,-8(fp)

  /*
   * Mark the file descriptor as belonging to a device.
   */

  fd->fd_flags |= ALT_FD_DEV;
  811d04:	e0bffe17 	ldw	r2,-8(fp)
  811d08:	10800217 	ldw	r2,8(r2)
  811d0c:	10d00034 	orhi	r3,r2,16384
  811d10:	e0bffe17 	ldw	r2,-8(fp)
  811d14:	10c00215 	stw	r3,8(r2)
  /*
   * Loop through all current file descriptors searching for one that's locked
   * for exclusive access. If a match is found, generate an error.
   */

  for (i = 0; i <= alt_max_fd; i++)
  811d18:	e03ffd15 	stw	zero,-12(fp)
  811d1c:	00002306 	br	811dac <alt_file_locked+0xc0>
  {
    if ((alt_fd_list[i].dev == fd->dev) &&
  811d20:	e13ffd17 	ldw	r4,-12(fp)
  811d24:	04002074 	movhi	r16,129
  811d28:	84103f04 	addi	r16,r16,16636
  811d2c:	01400304 	movi	r5,12
  811d30:	080f46c0 	call	80f46c <__mulsi3>
  811d34:	1405883a 	add	r2,r2,r16
  811d38:	10c00017 	ldw	r3,0(r2)
  811d3c:	e0bffe17 	ldw	r2,-8(fp)
  811d40:	10800017 	ldw	r2,0(r2)
  811d44:	1880161e 	bne	r3,r2,811da0 <alt_file_locked+0xb4>
  811d48:	e13ffd17 	ldw	r4,-12(fp)
  811d4c:	04002074 	movhi	r16,129
  811d50:	84103f04 	addi	r16,r16,16636
  811d54:	01400304 	movi	r5,12
  811d58:	080f46c0 	call	80f46c <__mulsi3>
  811d5c:	1405883a 	add	r2,r2,r16
  811d60:	10800204 	addi	r2,r2,8
  811d64:	10800017 	ldw	r2,0(r2)
  811d68:	1004403a 	cmpge	r2,r2,zero
  811d6c:	10000c1e 	bne	r2,zero,811da0 <alt_file_locked+0xb4>
  811d70:	e13ffd17 	ldw	r4,-12(fp)
  811d74:	01400304 	movi	r5,12
  811d78:	080f46c0 	call	80f46c <__mulsi3>
  811d7c:	1007883a 	mov	r3,r2
  811d80:	00802074 	movhi	r2,129
  811d84:	10903f04 	addi	r2,r2,16636
  811d88:	1887883a 	add	r3,r3,r2
  811d8c:	e0bffe17 	ldw	r2,-8(fp)
  811d90:	18800326 	beq	r3,r2,811da0 <alt_file_locked+0xb4>
        (alt_fd_list[i].fd_flags & ALT_FD_EXCL) &&
        (&alt_fd_list[i] != fd))
    {
      return -EACCES;
  811d94:	00bffcc4 	movi	r2,-13
  811d98:	e0bfff15 	stw	r2,-4(fp)
  811d9c:	00000a06 	br	811dc8 <alt_file_locked+0xdc>
  /*
   * Loop through all current file descriptors searching for one that's locked
   * for exclusive access. If a match is found, generate an error.
   */

  for (i = 0; i <= alt_max_fd; i++)
  811da0:	e0bffd17 	ldw	r2,-12(fp)
  811da4:	10800044 	addi	r2,r2,1
  811da8:	e0bffd15 	stw	r2,-12(fp)
  811dac:	00802074 	movhi	r2,129
  811db0:	1094de04 	addi	r2,r2,21368
  811db4:	10800017 	ldw	r2,0(r2)
  811db8:	1007883a 	mov	r3,r2
  811dbc:	e0bffd17 	ldw	r2,-12(fp)
  811dc0:	18bfd72e 	bgeu	r3,r2,811d20 <alt_file_locked+0x34>
    }
  }
  
  /* The device is not locked */
 
  return 0;
  811dc4:	e03fff15 	stw	zero,-4(fp)
  811dc8:	e0bfff17 	ldw	r2,-4(fp)
}
  811dcc:	e037883a 	mov	sp,fp
  811dd0:	dfc00217 	ldw	ra,8(sp)
  811dd4:	df000117 	ldw	fp,4(sp)
  811dd8:	dc000017 	ldw	r16,0(sp)
  811ddc:	dec00304 	addi	sp,sp,12
  811de0:	f800283a 	ret

00811de4 <open>:
 *
 * ALT_OPEN is mapped onto the open() system call in alt_syscall.h
 */
 
int ALT_OPEN (const char* file, int flags, int mode)
{ 
  811de4:	defff404 	addi	sp,sp,-48
  811de8:	dfc00b15 	stw	ra,44(sp)
  811dec:	df000a15 	stw	fp,40(sp)
  811df0:	df000a04 	addi	fp,sp,40
  811df4:	e13ffb15 	stw	r4,-20(fp)
  811df8:	e17ffc15 	stw	r5,-16(fp)
  811dfc:	e1bffd15 	stw	r6,-12(fp)
  alt_dev* dev;
  alt_fd*  fd;
  int index  = -1;
  811e00:	00bfffc4 	movi	r2,-1
  811e04:	e0bff815 	stw	r2,-32(fp)
  int status = -ENODEV;
  811e08:	00bffb44 	movi	r2,-19
  811e0c:	e0bff715 	stw	r2,-36(fp)
  int isafs = 0;
  811e10:	e03ff615 	stw	zero,-40(fp)
  /* 
   * Check the device list, to see if a device with a matching name is 
   * registered.
   */
  
  if (!(dev = alt_find_dev (file, &alt_dev_list)))
  811e14:	e13ffb17 	ldw	r4,-20(fp)
  811e18:	01402074 	movhi	r5,129
  811e1c:	2954dc04 	addi	r5,r5,21360
  811e20:	0811aec0 	call	811aec <alt_find_dev>
  811e24:	e0bffa15 	stw	r2,-24(fp)
  811e28:	e0bffa17 	ldw	r2,-24(fp)
  811e2c:	1004c03a 	cmpne	r2,r2,zero
  811e30:	1000051e 	bne	r2,zero,811e48 <open+0x64>
  {
    /* No matching device, so try the filesystem list */

    dev   = alt_find_file (file);
  811e34:	e13ffb17 	ldw	r4,-20(fp)
  811e38:	08121940 	call	812194 <alt_find_file>
  811e3c:	e0bffa15 	stw	r2,-24(fp)
    isafs = 1;
  811e40:	00800044 	movi	r2,1
  811e44:	e0bff615 	stw	r2,-40(fp)

  /* 
   * If a matching device or filesystem is found, allocate a file descriptor. 
   */

  if (dev)
  811e48:	e0bffa17 	ldw	r2,-24(fp)
  811e4c:	1005003a 	cmpeq	r2,r2,zero
  811e50:	1000311e 	bne	r2,zero,811f18 <open+0x134>
  {
    if ((index = alt_get_fd (dev)) < 0)
  811e54:	e13ffa17 	ldw	r4,-24(fp)
  811e58:	08122b40 	call	8122b4 <alt_get_fd>
  811e5c:	e0bff815 	stw	r2,-32(fp)
  811e60:	e0bff817 	ldw	r2,-32(fp)
  811e64:	1004403a 	cmpge	r2,r2,zero
  811e68:	1000031e 	bne	r2,zero,811e78 <open+0x94>
    {
      status = index;
  811e6c:	e0bff817 	ldw	r2,-32(fp)
  811e70:	e0bff715 	stw	r2,-36(fp)
  811e74:	00002a06 	br	811f20 <open+0x13c>
    }
    else
    {
      fd = &alt_fd_list[index];
  811e78:	e13ff817 	ldw	r4,-32(fp)
  811e7c:	01400304 	movi	r5,12
  811e80:	080f46c0 	call	80f46c <__mulsi3>
  811e84:	1007883a 	mov	r3,r2
  811e88:	00802074 	movhi	r2,129
  811e8c:	10903f04 	addi	r2,r2,16636
  811e90:	1885883a 	add	r2,r3,r2
  811e94:	e0bff915 	stw	r2,-28(fp)
      fd->fd_flags = (flags & ~ALT_FD_FLAGS_MASK);
  811e98:	e0fffc17 	ldw	r3,-16(fp)
  811e9c:	00900034 	movhi	r2,16384
  811ea0:	10bfffc4 	addi	r2,r2,-1
  811ea4:	1886703a 	and	r3,r3,r2
  811ea8:	e0bff917 	ldw	r2,-28(fp)
  811eac:	10c00215 	stw	r3,8(r2)
      
      /* If this is a device, ensure it isn't already locked */

      if (isafs || ((status = alt_file_locked (fd)) >= 0))
  811eb0:	e0bff617 	ldw	r2,-40(fp)
  811eb4:	1004c03a 	cmpne	r2,r2,zero
  811eb8:	1000061e 	bne	r2,zero,811ed4 <open+0xf0>
  811ebc:	e13ff917 	ldw	r4,-28(fp)
  811ec0:	0811cec0 	call	811cec <alt_file_locked>
  811ec4:	e0bff715 	stw	r2,-36(fp)
  811ec8:	e0bff717 	ldw	r2,-36(fp)
  811ecc:	1004803a 	cmplt	r2,r2,zero
  811ed0:	1000131e 	bne	r2,zero,811f20 <open+0x13c>
        /* 
         * If the device or filesystem provides an open() callback function,
         * call it now to perform any device/filesystem specific operations.
         */
    
        status = (dev->open) ? dev->open(fd, file, flags, mode): 0;
  811ed4:	e0bffa17 	ldw	r2,-24(fp)
  811ed8:	10800317 	ldw	r2,12(r2)
  811edc:	1005003a 	cmpeq	r2,r2,zero
  811ee0:	1000091e 	bne	r2,zero,811f08 <open+0x124>
  811ee4:	e0bffa17 	ldw	r2,-24(fp)
  811ee8:	10800317 	ldw	r2,12(r2)
  811eec:	e13ff917 	ldw	r4,-28(fp)
  811ef0:	e17ffb17 	ldw	r5,-20(fp)
  811ef4:	e1bffc17 	ldw	r6,-16(fp)
  811ef8:	e1fffd17 	ldw	r7,-12(fp)
  811efc:	103ee83a 	callr	r2
  811f00:	e0bfff15 	stw	r2,-4(fp)
  811f04:	00000106 	br	811f0c <open+0x128>
  811f08:	e03fff15 	stw	zero,-4(fp)
  811f0c:	e0bfff17 	ldw	r2,-4(fp)
  811f10:	e0bff715 	stw	r2,-36(fp)
  811f14:	00000206 	br	811f20 <open+0x13c>
      }
    }
  }
  else
  {
    status = -ENODEV;
  811f18:	00bffb44 	movi	r2,-19
  811f1c:	e0bff715 	stw	r2,-36(fp)
  }

  /* Allocation failed, so clean up and return an error */ 

  if (status < 0)
  811f20:	e0bff717 	ldw	r2,-36(fp)
  811f24:	1004403a 	cmpge	r2,r2,zero
  811f28:	1000091e 	bne	r2,zero,811f50 <open+0x16c>
  {
    alt_release_fd (index);  
  811f2c:	e13ff817 	ldw	r4,-32(fp)
  811f30:	08103400 	call	810340 <alt_release_fd>
    ALT_ERRNO = -status;
  811f34:	0811f700 	call	811f70 <alt_get_errno>
  811f38:	e0fff717 	ldw	r3,-36(fp)
  811f3c:	00c7c83a 	sub	r3,zero,r3
  811f40:	10c00015 	stw	r3,0(r2)
    return -1;
  811f44:	00bfffc4 	movi	r2,-1
  811f48:	e0bffe15 	stw	r2,-8(fp)
  811f4c:	00000206 	br	811f58 <open+0x174>
  }
  
  /* return the reference upon success */

  return index;
  811f50:	e0bff817 	ldw	r2,-32(fp)
  811f54:	e0bffe15 	stw	r2,-8(fp)
  811f58:	e0bffe17 	ldw	r2,-8(fp)
}
  811f5c:	e037883a 	mov	sp,fp
  811f60:	dfc00117 	ldw	ra,4(sp)
  811f64:	df000017 	ldw	fp,0(sp)
  811f68:	dec00204 	addi	sp,sp,8
  811f6c:	f800283a 	ret

00811f70 <alt_get_errno>:
#undef errno

extern int errno;

static ALT_INLINE int* alt_get_errno(void)
{
  811f70:	defffd04 	addi	sp,sp,-12
  811f74:	dfc00215 	stw	ra,8(sp)
  811f78:	df000115 	stw	fp,4(sp)
  811f7c:	df000104 	addi	fp,sp,4
  return ((alt_errno) ? alt_errno() : &errno);
  811f80:	00802074 	movhi	r2,129
  811f84:	1094df04 	addi	r2,r2,21372
  811f88:	10800017 	ldw	r2,0(r2)
  811f8c:	1005003a 	cmpeq	r2,r2,zero
  811f90:	1000061e 	bne	r2,zero,811fac <alt_get_errno+0x3c>
  811f94:	00802074 	movhi	r2,129
  811f98:	1094df04 	addi	r2,r2,21372
  811f9c:	10800017 	ldw	r2,0(r2)
  811fa0:	103ee83a 	callr	r2
  811fa4:	e0bfff15 	stw	r2,-4(fp)
  811fa8:	00000306 	br	811fb8 <alt_get_errno+0x48>
  811fac:	00802074 	movhi	r2,129
  811fb0:	109c6c04 	addi	r2,r2,29104
  811fb4:	e0bfff15 	stw	r2,-4(fp)
  811fb8:	e0bfff17 	ldw	r2,-4(fp)
}
  811fbc:	e037883a 	mov	sp,fp
  811fc0:	dfc00117 	ldw	ra,4(sp)
  811fc4:	df000017 	ldw	fp,0(sp)
  811fc8:	dec00204 	addi	sp,sp,8
  811fcc:	f800283a 	ret

00811fd0 <alt_alarm_stop>:
 * alarms. Alternatively an alarm can unregister itself by returning zero when 
 * the alarm executes.
 */

void alt_alarm_stop (alt_alarm* alarm)
{
  811fd0:	defffa04 	addi	sp,sp,-24
  811fd4:	df000515 	stw	fp,20(sp)
  811fd8:	df000504 	addi	fp,sp,20
  811fdc:	e13fff15 	stw	r4,-4(fp)
static ALT_INLINE alt_irq_context ALT_ALWAYS_INLINE 
       alt_irq_disable_all (void)
{
  alt_irq_context context;

  NIOS2_READ_STATUS (context);
  811fe0:	0005303a 	rdctl	r2,status
  811fe4:	e0bffd15 	stw	r2,-12(fp)

  NIOS2_WRITE_STATUS (context & ~NIOS2_STATUS_PIE_MSK);
  811fe8:	e0fffd17 	ldw	r3,-12(fp)
  811fec:	00bfff84 	movi	r2,-2
  811ff0:	1884703a 	and	r2,r3,r2
  811ff4:	1001703a 	wrctl	status,r2
  
  return context;
  811ff8:	e0bffd17 	ldw	r2,-12(fp)
  alt_irq_context irq_context;

  irq_context = alt_irq_disable_all();
  811ffc:	e0bffe15 	stw	r2,-8(fp)
  alt_llist_remove (&alarm->llist);
  812000:	e0bfff17 	ldw	r2,-4(fp)
  812004:	e0bffc15 	stw	r2,-16(fp)
 * input argument is the element to remove.
 */
     
static ALT_INLINE void ALT_ALWAYS_INLINE alt_llist_remove(alt_llist* entry)
{
  entry->next->previous = entry->previous;
  812008:	e0bffc17 	ldw	r2,-16(fp)
  81200c:	10c00017 	ldw	r3,0(r2)
  812010:	e0bffc17 	ldw	r2,-16(fp)
  812014:	10800117 	ldw	r2,4(r2)
  812018:	18800115 	stw	r2,4(r3)
  entry->previous->next = entry->next;
  81201c:	e0bffc17 	ldw	r2,-16(fp)
  812020:	10c00117 	ldw	r3,4(r2)
  812024:	e0bffc17 	ldw	r2,-16(fp)
  812028:	10800017 	ldw	r2,0(r2)
  81202c:	18800015 	stw	r2,0(r3)
  /* 
   * Set the entry to point to itself, so that any further calls to
   * alt_llist_remove() are harmless.
   */

  entry->previous = entry;
  812030:	e0fffc17 	ldw	r3,-16(fp)
  812034:	e0bffc17 	ldw	r2,-16(fp)
  812038:	18800115 	stw	r2,4(r3)
  entry->next     = entry;
  81203c:	e0fffc17 	ldw	r3,-16(fp)
  812040:	e0bffc17 	ldw	r2,-16(fp)
  812044:	18800015 	stw	r2,0(r3)
  812048:	e0bffe17 	ldw	r2,-8(fp)
  81204c:	e0bffb15 	stw	r2,-20(fp)
  status &= ~NIOS2_STATUS_PIE_MSK;
  status |= (context & NIOS2_STATUS_PIE_MSK);
  
  NIOS2_WRITE_STATUS (status);
#else
  NIOS2_WRITE_STATUS (context);
  812050:	e0bffb17 	ldw	r2,-20(fp)
  812054:	1001703a 	wrctl	status,r2
  alt_irq_enable_all (irq_context);
}
  812058:	e037883a 	mov	sp,fp
  81205c:	df000017 	ldw	fp,0(sp)
  812060:	dec00104 	addi	sp,sp,4
  812064:	f800283a 	ret

00812068 <alt_tick>:
 * 
 * alt_tick() is expected to run at interrupt level.
 */

void alt_tick (void)
{
  812068:	defffb04 	addi	sp,sp,-20
  81206c:	dfc00415 	stw	ra,16(sp)
  812070:	df000315 	stw	fp,12(sp)
  812074:	df000304 	addi	fp,sp,12
  alt_alarm* next;
  alt_alarm* alarm = (alt_alarm*) alt_alarm_list.next;
  812078:	d0a01317 	ldw	r2,-32692(gp)
  81207c:	e0bffe15 	stw	r2,-8(fp)

  alt_u32    next_callback;

  /* update the tick counter */

  _alt_nticks++;
  812080:	d0a7a317 	ldw	r2,-24948(gp)
  812084:	10800044 	addi	r2,r2,1
  812088:	d0a7a315 	stw	r2,-24948(gp)

  /* process the registered callbacks */

  while (alarm != (alt_alarm*) &alt_alarm_list)
  81208c:	00003106 	br	812154 <alt_tick+0xec>
  {
    next = (alt_alarm*) alarm->llist.next;
  812090:	e0bffe17 	ldw	r2,-8(fp)
  812094:	10800017 	ldw	r2,0(r2)
  812098:	e0bfff15 	stw	r2,-4(fp)
    /* 
     * Upon the tick-counter rolling over it is safe to clear the 
     * roll-over flag; once the flag is cleared this (or subsequnt)
     * tick events are enabled to generate an alarm event. 
     */
    if ((alarm->rollover) && (_alt_nticks == 0))
  81209c:	e0bffe17 	ldw	r2,-8(fp)
  8120a0:	10800403 	ldbu	r2,16(r2)
  8120a4:	10803fcc 	andi	r2,r2,255
  8120a8:	1005003a 	cmpeq	r2,r2,zero
  8120ac:	1000051e 	bne	r2,zero,8120c4 <alt_tick+0x5c>
  8120b0:	d0a7a317 	ldw	r2,-24948(gp)
  8120b4:	1004c03a 	cmpne	r2,r2,zero
  8120b8:	1000021e 	bne	r2,zero,8120c4 <alt_tick+0x5c>
    {
      alarm->rollover = 0;
  8120bc:	e0bffe17 	ldw	r2,-8(fp)
  8120c0:	10000405 	stb	zero,16(r2)
    }
    
    /* if the alarm period has expired, make the callback */    
    if ((alarm->time <= _alt_nticks) && (alarm->rollover == 0))
  8120c4:	e0bffe17 	ldw	r2,-8(fp)
  8120c8:	10c00217 	ldw	r3,8(r2)
  8120cc:	d0a7a317 	ldw	r2,-24948(gp)
  8120d0:	10c01e36 	bltu	r2,r3,81214c <alt_tick+0xe4>
  8120d4:	e0bffe17 	ldw	r2,-8(fp)
  8120d8:	10800403 	ldbu	r2,16(r2)
  8120dc:	10803fcc 	andi	r2,r2,255
  8120e0:	1004c03a 	cmpne	r2,r2,zero
  8120e4:	1000191e 	bne	r2,zero,81214c <alt_tick+0xe4>
    {
      next_callback = alarm->callback (alarm->context);
  8120e8:	e0bffe17 	ldw	r2,-8(fp)
  8120ec:	10c00317 	ldw	r3,12(r2)
  8120f0:	e0bffe17 	ldw	r2,-8(fp)
  8120f4:	11000517 	ldw	r4,20(r2)
  8120f8:	183ee83a 	callr	r3
  8120fc:	e0bffd15 	stw	r2,-12(fp)

      /* deactivate the alarm if the return value is zero */

      if (next_callback == 0)
  812100:	e0bffd17 	ldw	r2,-12(fp)
  812104:	1004c03a 	cmpne	r2,r2,zero
  812108:	1000031e 	bne	r2,zero,812118 <alt_tick+0xb0>
      {
        alt_alarm_stop (alarm);
  81210c:	e13ffe17 	ldw	r4,-8(fp)
  812110:	0811fd00 	call	811fd0 <alt_alarm_stop>
  812114:	00000d06 	br	81214c <alt_tick+0xe4>
      }
      else
      {
        alarm->time += next_callback;
  812118:	e0bffe17 	ldw	r2,-8(fp)
  81211c:	10c00217 	ldw	r3,8(r2)
  812120:	e0bffd17 	ldw	r2,-12(fp)
  812124:	1887883a 	add	r3,r3,r2
  812128:	e0bffe17 	ldw	r2,-8(fp)
  81212c:	10c00215 	stw	r3,8(r2)
        /* 
         * If the desired alarm time causes a roll-over, set the rollover
         * flag. This will prevent the subsequent tick event from causing
         * an alarm too early.
         */
        if(alarm->time < _alt_nticks)
  812130:	e0bffe17 	ldw	r2,-8(fp)
  812134:	10c00217 	ldw	r3,8(r2)
  812138:	d0a7a317 	ldw	r2,-24948(gp)
  81213c:	1880032e 	bgeu	r3,r2,81214c <alt_tick+0xe4>
        {
          alarm->rollover = 1;
  812140:	e0fffe17 	ldw	r3,-8(fp)
  812144:	00800044 	movi	r2,1
  812148:	18800405 	stb	r2,16(r3)
        }
      }
    }
    alarm = next;
  81214c:	e0bfff17 	ldw	r2,-4(fp)
  812150:	e0bffe15 	stw	r2,-8(fp)

  _alt_nticks++;

  /* process the registered callbacks */

  while (alarm != (alt_alarm*) &alt_alarm_list)
  812154:	d0e01304 	addi	r3,gp,-32692
  812158:	e0bffe17 	ldw	r2,-8(fp)
  81215c:	10ffcc1e 	bne	r2,r3,812090 <alt_tick+0x28>
  /* 
   * Update the operating system specific timer facilities.
   */

  ALT_OS_TIME_TICK();
}
  812160:	e037883a 	mov	sp,fp
  812164:	dfc00117 	ldw	ra,4(sp)
  812168:	df000017 	ldw	fp,0(sp)
  81216c:	dec00204 	addi	sp,sp,8
  812170:	f800283a 	ret

00812174 <altera_nios2_qsys_irq_init>:
/*
 * To initialize the internal interrupt controller, just clear the IENABLE
 * register so that all possible IRQs are disabled.
 */
void altera_nios2_qsys_irq_init(void) 
{
  812174:	deffff04 	addi	sp,sp,-4
  812178:	df000015 	stw	fp,0(sp)
  81217c:	d839883a 	mov	fp,sp
    NIOS2_WRITE_IENABLE(0);
  812180:	000170fa 	wrctl	ienable,zero
}
  812184:	e037883a 	mov	sp,fp
  812188:	df000017 	ldw	fp,0(sp)
  81218c:	dec00104 	addi	sp,sp,4
  812190:	f800283a 	ret

00812194 <alt_find_file>:
 * either '/' or '\0' is the prefix of the filename. For example the filename:
 * "/myfilesystem/junk.txt" would match: "/myfilesystem", but not: "/myfile". 
 */
 
alt_dev* alt_find_file (const char* name)
{
  812194:	defffa04 	addi	sp,sp,-24
  812198:	dfc00515 	stw	ra,20(sp)
  81219c:	df000415 	stw	fp,16(sp)
  8121a0:	df000404 	addi	fp,sp,16
  8121a4:	e13ffe15 	stw	r4,-8(fp)
  alt_dev* next = (alt_dev*) alt_fs_list.next;   
  8121a8:	00802074 	movhi	r2,129
  8121ac:	1094da04 	addi	r2,r2,21352
  8121b0:	10800017 	ldw	r2,0(r2)
  8121b4:	e0bffd15 	stw	r2,-12(fp)
  /*
   * Check each list entry in turn, until a match is found, or we reach the
   * end of the list (i.e. next winds up pointing back to the list head).
   */ 
 
  while (next != (alt_dev*) &alt_fs_list)
  8121b8:	00003306 	br	812288 <alt_find_file+0xf4>
  {
    len = strlen(next->name);
  8121bc:	e0bffd17 	ldw	r2,-12(fp)
  8121c0:	11000217 	ldw	r4,8(r2)
  8121c4:	08065300 	call	806530 <strlen>
  8121c8:	e0bffc15 	stw	r2,-16(fp)
    
    if (next->name[len-1] == '/')
  8121cc:	e0bffd17 	ldw	r2,-12(fp)
  8121d0:	10c00217 	ldw	r3,8(r2)
  8121d4:	e0bffc17 	ldw	r2,-16(fp)
  8121d8:	1885883a 	add	r2,r3,r2
  8121dc:	10bfffc4 	addi	r2,r2,-1
  8121e0:	10800003 	ldbu	r2,0(r2)
  8121e4:	10803fcc 	andi	r2,r2,255
  8121e8:	1080201c 	xori	r2,r2,128
  8121ec:	10bfe004 	addi	r2,r2,-128
  8121f0:	10800bd8 	cmpnei	r2,r2,47
  8121f4:	1000031e 	bne	r2,zero,812204 <alt_find_file+0x70>
    {
      len -= 1;
  8121f8:	e0bffc17 	ldw	r2,-16(fp)
  8121fc:	10bfffc4 	addi	r2,r2,-1
  812200:	e0bffc15 	stw	r2,-16(fp)
    }

    if (((name[len] == '/') || (name[len] == '\0')) && 
  812204:	e0bffc17 	ldw	r2,-16(fp)
  812208:	1007883a 	mov	r3,r2
  81220c:	e0bffe17 	ldw	r2,-8(fp)
  812210:	1885883a 	add	r2,r3,r2
  812214:	10800003 	ldbu	r2,0(r2)
  812218:	10803fcc 	andi	r2,r2,255
  81221c:	1080201c 	xori	r2,r2,128
  812220:	10bfe004 	addi	r2,r2,-128
  812224:	10800be0 	cmpeqi	r2,r2,47
  812228:	10000a1e 	bne	r2,zero,812254 <alt_find_file+0xc0>
  81222c:	e0bffc17 	ldw	r2,-16(fp)
  812230:	1007883a 	mov	r3,r2
  812234:	e0bffe17 	ldw	r2,-8(fp)
  812238:	1885883a 	add	r2,r3,r2
  81223c:	10800003 	ldbu	r2,0(r2)
  812240:	10803fcc 	andi	r2,r2,255
  812244:	1080201c 	xori	r2,r2,128
  812248:	10bfe004 	addi	r2,r2,-128
  81224c:	1004c03a 	cmpne	r2,r2,zero
  812250:	10000a1e 	bne	r2,zero,81227c <alt_find_file+0xe8>
  812254:	e0bffd17 	ldw	r2,-12(fp)
  812258:	11000217 	ldw	r4,8(r2)
  81225c:	e1bffc17 	ldw	r6,-16(fp)
  812260:	e17ffe17 	ldw	r5,-8(fp)
  812264:	08123d00 	call	8123d0 <memcmp>
  812268:	1004c03a 	cmpne	r2,r2,zero
  81226c:	1000031e 	bne	r2,zero,81227c <alt_find_file+0xe8>
        !memcmp (next->name, name, len))
    {
      /* match found */

      return next;
  812270:	e0bffd17 	ldw	r2,-12(fp)
  812274:	e0bfff15 	stw	r2,-4(fp)
  812278:	00000806 	br	81229c <alt_find_file+0x108>
    }
    next = (alt_dev*) next->llist.next;
  81227c:	e0bffd17 	ldw	r2,-12(fp)
  812280:	10800017 	ldw	r2,0(r2)
  812284:	e0bffd15 	stw	r2,-12(fp)
  /*
   * Check each list entry in turn, until a match is found, or we reach the
   * end of the list (i.e. next winds up pointing back to the list head).
   */ 
 
  while (next != (alt_dev*) &alt_fs_list)
  812288:	00c02074 	movhi	r3,129
  81228c:	18d4da04 	addi	r3,r3,21352
  812290:	e0bffd17 	ldw	r2,-12(fp)
  812294:	10ffc91e 	bne	r2,r3,8121bc <alt_find_file+0x28>
    next = (alt_dev*) next->llist.next;
  }
  
  /* No match found */
  
  return NULL;     
  812298:	e03fff15 	stw	zero,-4(fp)
  81229c:	e0bfff17 	ldw	r2,-4(fp)
}
  8122a0:	e037883a 	mov	sp,fp
  8122a4:	dfc00117 	ldw	ra,4(sp)
  8122a8:	df000017 	ldw	fp,0(sp)
  8122ac:	dec00204 	addi	sp,sp,8
  8122b0:	f800283a 	ret

008122b4 <alt_get_fd>:
 * the offset of the file descriptor within the file descriptor array). A
 * negative value indicates failure.
 */

int alt_get_fd (alt_dev* dev)
{
  8122b4:	defffa04 	addi	sp,sp,-24
  8122b8:	dfc00515 	stw	ra,20(sp)
  8122bc:	df000415 	stw	fp,16(sp)
  8122c0:	dc000315 	stw	r16,12(sp)
  8122c4:	df000304 	addi	fp,sp,12
  8122c8:	e13fff15 	stw	r4,-4(fp)
  alt_32 i;
  int rc = -EMFILE;
  8122cc:	00bffa04 	movi	r2,-24
  8122d0:	e0bffd15 	stw	r2,-12(fp)
   * indicates the highest file descriptor ever allocated. This is used to
   * improve efficency when searching the file descriptor list, and 
   * therefore reduce contention on the alt_fd_list_lock semaphore. 
   */

  for (i = 0; i < ALT_MAX_FD; i++)
  8122d4:	e03ffe15 	stw	zero,-8(fp)
  8122d8:	00002006 	br	81235c <alt_get_fd+0xa8>
  {
    if (!alt_fd_list[i].dev)
  8122dc:	e13ffe17 	ldw	r4,-8(fp)
  8122e0:	04002074 	movhi	r16,129
  8122e4:	84103f04 	addi	r16,r16,16636
  8122e8:	01400304 	movi	r5,12
  8122ec:	080f46c0 	call	80f46c <__mulsi3>
  8122f0:	1405883a 	add	r2,r2,r16
  8122f4:	10800017 	ldw	r2,0(r2)
  8122f8:	1004c03a 	cmpne	r2,r2,zero
  8122fc:	1000141e 	bne	r2,zero,812350 <alt_get_fd+0x9c>
    {
      alt_fd_list[i].dev = dev;
  812300:	e13ffe17 	ldw	r4,-8(fp)
  812304:	04002074 	movhi	r16,129
  812308:	84103f04 	addi	r16,r16,16636
  81230c:	01400304 	movi	r5,12
  812310:	080f46c0 	call	80f46c <__mulsi3>
  812314:	1407883a 	add	r3,r2,r16
  812318:	e0bfff17 	ldw	r2,-4(fp)
  81231c:	18800015 	stw	r2,0(r3)
      if (i > alt_max_fd)
  812320:	00802074 	movhi	r2,129
  812324:	1094de04 	addi	r2,r2,21368
  812328:	10c00017 	ldw	r3,0(r2)
  81232c:	e0bffe17 	ldw	r2,-8(fp)
  812330:	1880040e 	bge	r3,r2,812344 <alt_get_fd+0x90>
      {
        alt_max_fd = i;
  812334:	00c02074 	movhi	r3,129
  812338:	18d4de04 	addi	r3,r3,21368
  81233c:	e0bffe17 	ldw	r2,-8(fp)
  812340:	18800015 	stw	r2,0(r3)
      }
      rc = i;
  812344:	e0bffe17 	ldw	r2,-8(fp)
  812348:	e0bffd15 	stw	r2,-12(fp)
      goto alt_get_fd_exit;
  81234c:	00000606 	br	812368 <alt_get_fd+0xb4>
   * indicates the highest file descriptor ever allocated. This is used to
   * improve efficency when searching the file descriptor list, and 
   * therefore reduce contention on the alt_fd_list_lock semaphore. 
   */

  for (i = 0; i < ALT_MAX_FD; i++)
  812350:	e0bffe17 	ldw	r2,-8(fp)
  812354:	10800044 	addi	r2,r2,1
  812358:	e0bffe15 	stw	r2,-8(fp)
  81235c:	e0bffe17 	ldw	r2,-8(fp)
  812360:	10800810 	cmplti	r2,r2,32
  812364:	103fdd1e 	bne	r2,zero,8122dc <alt_get_fd+0x28>
   * file descriptor pool.
   */

  ALT_SEM_POST(alt_fd_list_lock);

  return rc;
  812368:	e0bffd17 	ldw	r2,-12(fp)
}
  81236c:	e037883a 	mov	sp,fp
  812370:	dfc00217 	ldw	ra,8(sp)
  812374:	df000117 	ldw	fp,4(sp)
  812378:	dc000017 	ldw	r16,0(sp)
  81237c:	dec00304 	addi	sp,sp,12
  812380:	f800283a 	ret

00812384 <atexit>:
  812384:	200b883a 	mov	r5,r4
  812388:	000d883a 	mov	r6,zero
  81238c:	0009883a 	mov	r4,zero
  812390:	000f883a 	mov	r7,zero
  812394:	08124441 	jmpi	812444 <__register_exitproc>

00812398 <exit>:
  812398:	defffe04 	addi	sp,sp,-8
  81239c:	000b883a 	mov	r5,zero
  8123a0:	dc000015 	stw	r16,0(sp)
  8123a4:	dfc00115 	stw	ra,4(sp)
  8123a8:	2021883a 	mov	r16,r4
  8123ac:	081257c0 	call	81257c <__call_exitprocs>
  8123b0:	00802074 	movhi	r2,129
  8123b4:	1094d504 	addi	r2,r2,21332
  8123b8:	11000017 	ldw	r4,0(r2)
  8123bc:	20800f17 	ldw	r2,60(r4)
  8123c0:	10000126 	beq	r2,zero,8123c8 <exit+0x30>
  8123c4:	103ee83a 	callr	r2
  8123c8:	8009883a 	mov	r4,r16
  8123cc:	081276c0 	call	81276c <_exit>

008123d0 <memcmp>:
  8123d0:	00c000c4 	movi	r3,3
  8123d4:	1980032e 	bgeu	r3,r6,8123e4 <memcmp+0x14>
  8123d8:	2144b03a 	or	r2,r4,r5
  8123dc:	10c4703a 	and	r2,r2,r3
  8123e0:	10000f26 	beq	r2,zero,812420 <memcmp+0x50>
  8123e4:	31ffffc4 	addi	r7,r6,-1
  8123e8:	3000061e 	bne	r6,zero,812404 <memcmp+0x34>
  8123ec:	00000a06 	br	812418 <memcmp+0x48>
  8123f0:	39ffffc4 	addi	r7,r7,-1
  8123f4:	00bfffc4 	movi	r2,-1
  8123f8:	21000044 	addi	r4,r4,1
  8123fc:	29400044 	addi	r5,r5,1
  812400:	38800526 	beq	r7,r2,812418 <memcmp+0x48>
  812404:	20c00003 	ldbu	r3,0(r4)
  812408:	28800003 	ldbu	r2,0(r5)
  81240c:	18bff826 	beq	r3,r2,8123f0 <memcmp+0x20>
  812410:	1885c83a 	sub	r2,r3,r2
  812414:	f800283a 	ret
  812418:	0005883a 	mov	r2,zero
  81241c:	f800283a 	ret
  812420:	180f883a 	mov	r7,r3
  812424:	20c00017 	ldw	r3,0(r4)
  812428:	28800017 	ldw	r2,0(r5)
  81242c:	18bfed1e 	bne	r3,r2,8123e4 <memcmp+0x14>
  812430:	31bfff04 	addi	r6,r6,-4
  812434:	21000104 	addi	r4,r4,4
  812438:	29400104 	addi	r5,r5,4
  81243c:	39bff936 	bltu	r7,r6,812424 <memcmp+0x54>
  812440:	003fe806 	br	8123e4 <memcmp+0x14>

00812444 <__register_exitproc>:
  812444:	defffa04 	addi	sp,sp,-24
  812448:	00802074 	movhi	r2,129
  81244c:	1094d504 	addi	r2,r2,21332
  812450:	dc000015 	stw	r16,0(sp)
  812454:	14000017 	ldw	r16,0(r2)
  812458:	dd000415 	stw	r20,16(sp)
  81245c:	2829883a 	mov	r20,r5
  812460:	81405217 	ldw	r5,328(r16)
  812464:	dcc00315 	stw	r19,12(sp)
  812468:	dc800215 	stw	r18,8(sp)
  81246c:	dc400115 	stw	r17,4(sp)
  812470:	dfc00515 	stw	ra,20(sp)
  812474:	2023883a 	mov	r17,r4
  812478:	3027883a 	mov	r19,r6
  81247c:	3825883a 	mov	r18,r7
  812480:	28002526 	beq	r5,zero,812518 <__register_exitproc+0xd4>
  812484:	29000117 	ldw	r4,4(r5)
  812488:	008007c4 	movi	r2,31
  81248c:	11002716 	blt	r2,r4,81252c <__register_exitproc+0xe8>
  812490:	8800101e 	bne	r17,zero,8124d4 <__register_exitproc+0x90>
  812494:	2105883a 	add	r2,r4,r4
  812498:	1085883a 	add	r2,r2,r2
  81249c:	20c00044 	addi	r3,r4,1
  8124a0:	1145883a 	add	r2,r2,r5
  8124a4:	0009883a 	mov	r4,zero
  8124a8:	15000215 	stw	r20,8(r2)
  8124ac:	28c00115 	stw	r3,4(r5)
  8124b0:	2005883a 	mov	r2,r4
  8124b4:	dfc00517 	ldw	ra,20(sp)
  8124b8:	dd000417 	ldw	r20,16(sp)
  8124bc:	dcc00317 	ldw	r19,12(sp)
  8124c0:	dc800217 	ldw	r18,8(sp)
  8124c4:	dc400117 	ldw	r17,4(sp)
  8124c8:	dc000017 	ldw	r16,0(sp)
  8124cc:	dec00604 	addi	sp,sp,24
  8124d0:	f800283a 	ret
  8124d4:	29802204 	addi	r6,r5,136
  8124d8:	00800044 	movi	r2,1
  8124dc:	110e983a 	sll	r7,r2,r4
  8124e0:	30c04017 	ldw	r3,256(r6)
  8124e4:	2105883a 	add	r2,r4,r4
  8124e8:	1085883a 	add	r2,r2,r2
  8124ec:	1185883a 	add	r2,r2,r6
  8124f0:	19c6b03a 	or	r3,r3,r7
  8124f4:	14802015 	stw	r18,128(r2)
  8124f8:	14c00015 	stw	r19,0(r2)
  8124fc:	00800084 	movi	r2,2
  812500:	30c04015 	stw	r3,256(r6)
  812504:	88bfe31e 	bne	r17,r2,812494 <__register_exitproc+0x50>
  812508:	30804117 	ldw	r2,260(r6)
  81250c:	11c4b03a 	or	r2,r2,r7
  812510:	30804115 	stw	r2,260(r6)
  812514:	003fdf06 	br	812494 <__register_exitproc+0x50>
  812518:	00802074 	movhi	r2,129
  81251c:	109cc604 	addi	r2,r2,29464
  812520:	100b883a 	mov	r5,r2
  812524:	80805215 	stw	r2,328(r16)
  812528:	003fd606 	br	812484 <__register_exitproc+0x40>
  81252c:	00800034 	movhi	r2,0
  812530:	10800004 	addi	r2,r2,0
  812534:	1000021e 	bne	r2,zero,812540 <__register_exitproc+0xfc>
  812538:	013fffc4 	movi	r4,-1
  81253c:	003fdc06 	br	8124b0 <__register_exitproc+0x6c>
  812540:	01006404 	movi	r4,400
  812544:	103ee83a 	callr	r2
  812548:	1007883a 	mov	r3,r2
  81254c:	103ffa26 	beq	r2,zero,812538 <__register_exitproc+0xf4>
  812550:	80805217 	ldw	r2,328(r16)
  812554:	180b883a 	mov	r5,r3
  812558:	18000115 	stw	zero,4(r3)
  81255c:	18800015 	stw	r2,0(r3)
  812560:	80c05215 	stw	r3,328(r16)
  812564:	18006215 	stw	zero,392(r3)
  812568:	18006315 	stw	zero,396(r3)
  81256c:	0009883a 	mov	r4,zero
  812570:	883fc826 	beq	r17,zero,812494 <__register_exitproc+0x50>
  812574:	003fd706 	br	8124d4 <__register_exitproc+0x90>

00812578 <register_fini>:
  812578:	f800283a 	ret

0081257c <__call_exitprocs>:
  81257c:	00802074 	movhi	r2,129
  812580:	1094d504 	addi	r2,r2,21332
  812584:	10800017 	ldw	r2,0(r2)
  812588:	defff304 	addi	sp,sp,-52
  81258c:	df000b15 	stw	fp,44(sp)
  812590:	d8800115 	stw	r2,4(sp)
  812594:	00800034 	movhi	r2,0
  812598:	10800004 	addi	r2,r2,0
  81259c:	1005003a 	cmpeq	r2,r2,zero
  8125a0:	d8800215 	stw	r2,8(sp)
  8125a4:	d8800117 	ldw	r2,4(sp)
  8125a8:	dd400815 	stw	r21,32(sp)
  8125ac:	dd000715 	stw	r20,28(sp)
  8125b0:	10805204 	addi	r2,r2,328
  8125b4:	dfc00c15 	stw	ra,48(sp)
  8125b8:	ddc00a15 	stw	r23,40(sp)
  8125bc:	dd800915 	stw	r22,36(sp)
  8125c0:	dcc00615 	stw	r19,24(sp)
  8125c4:	dc800515 	stw	r18,20(sp)
  8125c8:	dc400415 	stw	r17,16(sp)
  8125cc:	dc000315 	stw	r16,12(sp)
  8125d0:	282b883a 	mov	r21,r5
  8125d4:	2039883a 	mov	fp,r4
  8125d8:	d8800015 	stw	r2,0(sp)
  8125dc:	2829003a 	cmpeq	r20,r5,zero
  8125e0:	d8800117 	ldw	r2,4(sp)
  8125e4:	14405217 	ldw	r17,328(r2)
  8125e8:	88001026 	beq	r17,zero,81262c <__call_exitprocs+0xb0>
  8125ec:	ddc00017 	ldw	r23,0(sp)
  8125f0:	88800117 	ldw	r2,4(r17)
  8125f4:	8c802204 	addi	r18,r17,136
  8125f8:	143fffc4 	addi	r16,r2,-1
  8125fc:	80000916 	blt	r16,zero,812624 <__call_exitprocs+0xa8>
  812600:	05bfffc4 	movi	r22,-1
  812604:	a000151e 	bne	r20,zero,81265c <__call_exitprocs+0xe0>
  812608:	8409883a 	add	r4,r16,r16
  81260c:	2105883a 	add	r2,r4,r4
  812610:	1485883a 	add	r2,r2,r18
  812614:	10c02017 	ldw	r3,128(r2)
  812618:	a8c01126 	beq	r21,r3,812660 <__call_exitprocs+0xe4>
  81261c:	843fffc4 	addi	r16,r16,-1
  812620:	85bff81e 	bne	r16,r22,812604 <__call_exitprocs+0x88>
  812624:	d8800217 	ldw	r2,8(sp)
  812628:	10003126 	beq	r2,zero,8126f0 <__call_exitprocs+0x174>
  81262c:	dfc00c17 	ldw	ra,48(sp)
  812630:	df000b17 	ldw	fp,44(sp)
  812634:	ddc00a17 	ldw	r23,40(sp)
  812638:	dd800917 	ldw	r22,36(sp)
  81263c:	dd400817 	ldw	r21,32(sp)
  812640:	dd000717 	ldw	r20,28(sp)
  812644:	dcc00617 	ldw	r19,24(sp)
  812648:	dc800517 	ldw	r18,20(sp)
  81264c:	dc400417 	ldw	r17,16(sp)
  812650:	dc000317 	ldw	r16,12(sp)
  812654:	dec00d04 	addi	sp,sp,52
  812658:	f800283a 	ret
  81265c:	8409883a 	add	r4,r16,r16
  812660:	88c00117 	ldw	r3,4(r17)
  812664:	2105883a 	add	r2,r4,r4
  812668:	1445883a 	add	r2,r2,r17
  81266c:	18ffffc4 	addi	r3,r3,-1
  812670:	11800217 	ldw	r6,8(r2)
  812674:	1c001526 	beq	r3,r16,8126cc <__call_exitprocs+0x150>
  812678:	10000215 	stw	zero,8(r2)
  81267c:	303fe726 	beq	r6,zero,81261c <__call_exitprocs+0xa0>
  812680:	00c00044 	movi	r3,1
  812684:	1c06983a 	sll	r3,r3,r16
  812688:	90804017 	ldw	r2,256(r18)
  81268c:	8cc00117 	ldw	r19,4(r17)
  812690:	1884703a 	and	r2,r3,r2
  812694:	10001426 	beq	r2,zero,8126e8 <__call_exitprocs+0x16c>
  812698:	90804117 	ldw	r2,260(r18)
  81269c:	1884703a 	and	r2,r3,r2
  8126a0:	10000c1e 	bne	r2,zero,8126d4 <__call_exitprocs+0x158>
  8126a4:	2105883a 	add	r2,r4,r4
  8126a8:	1485883a 	add	r2,r2,r18
  8126ac:	11400017 	ldw	r5,0(r2)
  8126b0:	e009883a 	mov	r4,fp
  8126b4:	303ee83a 	callr	r6
  8126b8:	88800117 	ldw	r2,4(r17)
  8126bc:	98bfc81e 	bne	r19,r2,8125e0 <__call_exitprocs+0x64>
  8126c0:	b8800017 	ldw	r2,0(r23)
  8126c4:	147fd526 	beq	r2,r17,81261c <__call_exitprocs+0xa0>
  8126c8:	003fc506 	br	8125e0 <__call_exitprocs+0x64>
  8126cc:	8c000115 	stw	r16,4(r17)
  8126d0:	003fea06 	br	81267c <__call_exitprocs+0x100>
  8126d4:	2105883a 	add	r2,r4,r4
  8126d8:	1485883a 	add	r2,r2,r18
  8126dc:	11000017 	ldw	r4,0(r2)
  8126e0:	303ee83a 	callr	r6
  8126e4:	003ff406 	br	8126b8 <__call_exitprocs+0x13c>
  8126e8:	303ee83a 	callr	r6
  8126ec:	003ff206 	br	8126b8 <__call_exitprocs+0x13c>
  8126f0:	88800117 	ldw	r2,4(r17)
  8126f4:	1000081e 	bne	r2,zero,812718 <__call_exitprocs+0x19c>
  8126f8:	89000017 	ldw	r4,0(r17)
  8126fc:	20000726 	beq	r4,zero,81271c <__call_exitprocs+0x1a0>
  812700:	b9000015 	stw	r4,0(r23)
  812704:	8809883a 	mov	r4,r17
  812708:	00000000 	call	0 <__alt_mem_sdram_0-0x800000>
  81270c:	bc400017 	ldw	r17,0(r23)
  812710:	883fb71e 	bne	r17,zero,8125f0 <__call_exitprocs+0x74>
  812714:	003fc506 	br	81262c <__call_exitprocs+0xb0>
  812718:	89000017 	ldw	r4,0(r17)
  81271c:	882f883a 	mov	r23,r17
  812720:	2023883a 	mov	r17,r4
  812724:	883fb21e 	bne	r17,zero,8125f0 <__call_exitprocs+0x74>
  812728:	003fc006 	br	81262c <__call_exitprocs+0xb0>

0081272c <alt_sim_halt>:

/*
 * Routine called on exit.
 */
static ALT_ALWAYS_INLINE void alt_sim_halt(int exit_code)
{
  81272c:	defffd04 	addi	sp,sp,-12
  812730:	df000215 	stw	fp,8(sp)
  812734:	df000204 	addi	fp,sp,8
  812738:	e13fff15 	stw	r4,-4(fp)
  int r2 = exit_code;
  81273c:	e0bfff17 	ldw	r2,-4(fp)
  812740:	e0bffe15 	stw	r2,-8(fp)
  __asm__ volatile ("\n0:\n\taddi %0,%0, -1\n\tbgt %0,zero,0b" : : "r" (ALT_CPU_FREQ/100) ); /* Delay for >30ms */

  __asm__ volatile ("break 2" : : "D02"(r2), "D03"(r3) ALT_GMON_DATA );

#else /* !DEBUG_STUB */
  if (r2) {
  812744:	e0bffe17 	ldw	r2,-8(fp)
  812748:	1005003a 	cmpeq	r2,r2,zero
  81274c:	1000021e 	bne	r2,zero,812758 <alt_sim_halt+0x2c>
    ALT_SIM_FAIL();
  812750:	002af070 	cmpltui	zero,zero,43969
  812754:	00000106 	br	81275c <alt_sim_halt+0x30>
  } else {
    ALT_SIM_PASS();
  812758:	002af0b0 	cmpltui	zero,zero,43970
  }
#endif /* DEBUG_STUB */
}
  81275c:	e037883a 	mov	sp,fp
  812760:	df000017 	ldw	fp,0(sp)
  812764:	dec00104 	addi	sp,sp,4
  812768:	f800283a 	ret

0081276c <_exit>:
 *
 * ALT_EXIT is mapped onto the _exit() system call in alt_syscall.h
 */

void ALT_EXIT (int exit_code)
{
  81276c:	defffd04 	addi	sp,sp,-12
  812770:	dfc00215 	stw	ra,8(sp)
  812774:	df000115 	stw	fp,4(sp)
  812778:	df000104 	addi	fp,sp,4
  81277c:	e13fff15 	stw	r4,-4(fp)
  ALT_OS_STOP();

  /* Provide notification to the simulator that we've stopped */

  ALT_LOG_PRINT_BOOT("[alt_exit.c] Calling ALT_SIM_HALT().\r\n");
  ALT_SIM_HALT(exit_code);
  812780:	e13fff17 	ldw	r4,-4(fp)
  812784:	081272c0 	call	81272c <alt_sim_halt>

  /* spin forever, since there's no where to go back to */

  ALT_LOG_PRINT_BOOT("[alt_exit.c] Spinning forever.\r\n");
  while (1);
  812788:	003fff06 	br	812788 <_exit+0x1c>
  81278c:	00812578 	rdprs	r2,zero,1173
